

Microchip MPLAB XC8 Assembler V2.10 build 88905656 
                                                                                               Mon Mar 23 16:02:44 2020

Microchip MPLAB XC8 C Compiler v2.10 (Free license) build 20190730164152 Og1 
     1                           	processor	16F887
     2                           	opt	pw 120
     3                           	opt	flic
     4                           	psect	strings,global,class=STRING,delta=2
     5                           	psect	cinit,global,class=CODE,merge=1,delta=2
     6                           	psect	bssCOMMON,global,class=COMMON,space=1,delta=1
     7                           	psect	bssBANK0,global,class=BANK0,space=1,delta=1
     8                           	psect	clrtext,global,class=CODE,delta=2
     9                           	psect	cstackCOMMON,global,class=COMMON,space=1,delta=1
    10                           	psect	cstackBANK0,global,class=BANK0,space=1,delta=1
    11                           	psect	maintext,global,class=CODE,split=1,delta=2
    12                           	psect	text1,local,class=CODE,merge=1,delta=2
    13                           	psect	text2,local,class=CODE,merge=1,delta=2
    14                           	psect	text3,local,class=CODE,merge=1,delta=2,group=1
    15                           	psect	text4,local,class=CODE,merge=1,delta=2
    16                           	psect	text5,local,class=CODE,merge=1,delta=2
    17                           	psect	text6,local,class=CODE,merge=1,delta=2
    18                           	psect	text7,local,class=CODE,merge=1,delta=2
    19                           	psect	text8,local,class=CODE,merge=1,delta=2
    20                           	psect	text9,local,class=CODE,merge=1,delta=2
    21                           	psect	text10,local,class=CODE,merge=1,delta=2
    22                           	psect	text11,local,class=CODE,merge=1,delta=2
    23                           	psect	text12,local,class=CODE,merge=1,delta=2
    24                           	psect	text13,local,class=CODE,merge=1,delta=2
    25                           	psect	intentry,global,class=CODE,delta=2
    26                           	dabs	1,0x7E,2
    27  0000                     
    28                           ; Version 2.10
    29                           ; Generated 31/07/2019 GMT
    30                           ; 
    31                           ; Copyright © 2019, Microchip Technology Inc. and its subsidiaries ("Microchip")
    32                           ; All rights reserved.
    33                           ; 
    34                           ; This software is developed by Microchip Technology Inc. and its subsidiaries ("Microch
      +                          ip").
    35                           ; 
    36                           ; Redistribution and use in source and binary forms, with or without modification, are
    37                           ; permitted provided that the following conditions are met:
    38                           ; 
    39                           ;     1. Redistributions of source code must retain the above copyright notice, this lis
      +                          t of
    40                           ;        conditions and the following disclaimer.
    41                           ; 
    42                           ;     2. Redistributions in binary form must reproduce the above copyright notice, this 
      +                          list
    43                           ;        of conditions and the following disclaimer in the documentation and/or other
    44                           ;        materials provided with the distribution.
    45                           ; 
    46                           ;     3. Microchip's name may not be used to endorse or promote products derived from th
      +                          is
    47                           ;        software without specific prior written permission.
    48                           ; 
    49                           ; THIS SOFTWARE IS PROVIDED BY MICROCHIP "AS IS" AND ANY EXPRESS OR IMPLIED WARRANTIES,
    50                           ; INCLUDING, BUT NOT LIMITED TO, THE IMPLIED WARRANTIES OF MERCHANTABILITY AND FITNESS F
      +                          OR
    51                           ; PURPOSE ARE DISCLAIMED.  IN NO EVENT SHALL MICROCHIP BE LIABLE FOR ANY DIRECT, INDIREC
      +                          T,
    52                           ; INCIDENTAL, SPECIAL, EXEMPLARY, OR CONSEQUENTIAL DAMAGES (INCLUDING BUT NOT LIMITED TO
    53                           ; PROCUREMENT OF SUBSTITUTE GOODS OR SERVICES; LOSS OF USE, DATA OR PROFITS; OR BUSINESS
    54                           ; INTERRUPTION) HOWSOEVER CAUSED AND ON ANY THEORY OF LIABILITY, WHETHER IN CONTRACT, ST
      +                          RICT
    55                           ; LIABILITY, OR TORT (INCLUDING NEGLIGENCE OR OTHERWISE) ARISING IN ANY WAY OUT OF THE U
      +                          SE OF
    56                           ; THIS SOFTWARE, EVEN IF ADVISED OF THE POSSIBILITY OF SUCH DAMAGE.
    57                           ; 
    58                           ; 
    59                           ; Code-generator required, PIC16F887 Definitions
    60                           ; 
    61                           ; SFR Addresses
    62  0000                     	;# 
    63  0001                     	;# 
    64  0002                     	;# 
    65  0003                     	;# 
    66  0004                     	;# 
    67  0005                     	;# 
    68  0006                     	;# 
    69  0007                     	;# 
    70  0008                     	;# 
    71  0009                     	;# 
    72  000A                     	;# 
    73  000B                     	;# 
    74  000C                     	;# 
    75  000D                     	;# 
    76  000E                     	;# 
    77  000E                     	;# 
    78  000F                     	;# 
    79  0010                     	;# 
    80  0011                     	;# 
    81  0012                     	;# 
    82  0013                     	;# 
    83  0014                     	;# 
    84  0015                     	;# 
    85  0015                     	;# 
    86  0016                     	;# 
    87  0017                     	;# 
    88  0018                     	;# 
    89  0019                     	;# 
    90  001A                     	;# 
    91  001B                     	;# 
    92  001B                     	;# 
    93  001C                     	;# 
    94  001D                     	;# 
    95  001E                     	;# 
    96  001F                     	;# 
    97  0081                     	;# 
    98  0085                     	;# 
    99  0086                     	;# 
   100  0087                     	;# 
   101  0088                     	;# 
   102  0089                     	;# 
   103  008C                     	;# 
   104  008D                     	;# 
   105  008E                     	;# 
   106  008F                     	;# 
   107  0090                     	;# 
   108  0091                     	;# 
   109  0092                     	;# 
   110  0093                     	;# 
   111  0093                     	;# 
   112  0093                     	;# 
   113  0094                     	;# 
   114  0095                     	;# 
   115  0096                     	;# 
   116  0097                     	;# 
   117  0098                     	;# 
   118  0099                     	;# 
   119  009A                     	;# 
   120  009B                     	;# 
   121  009C                     	;# 
   122  009D                     	;# 
   123  009E                     	;# 
   124  009F                     	;# 
   125  0105                     	;# 
   126  0107                     	;# 
   127  0108                     	;# 
   128  0109                     	;# 
   129  010C                     	;# 
   130  010C                     	;# 
   131  010D                     	;# 
   132  010E                     	;# 
   133  010F                     	;# 
   134  0185                     	;# 
   135  0187                     	;# 
   136  0188                     	;# 
   137  0189                     	;# 
   138  018C                     	;# 
   139  018D                     	;# 
   140  0000                     	;# 
   141  0001                     	;# 
   142  0002                     	;# 
   143  0003                     	;# 
   144  0004                     	;# 
   145  0005                     	;# 
   146  0006                     	;# 
   147  0007                     	;# 
   148  0008                     	;# 
   149  0009                     	;# 
   150  000A                     	;# 
   151  000B                     	;# 
   152  000C                     	;# 
   153  000D                     	;# 
   154  000E                     	;# 
   155  000E                     	;# 
   156  000F                     	;# 
   157  0010                     	;# 
   158  0011                     	;# 
   159  0012                     	;# 
   160  0013                     	;# 
   161  0014                     	;# 
   162  0015                     	;# 
   163  0015                     	;# 
   164  0016                     	;# 
   165  0017                     	;# 
   166  0018                     	;# 
   167  0019                     	;# 
   168  001A                     	;# 
   169  001B                     	;# 
   170  001B                     	;# 
   171  001C                     	;# 
   172  001D                     	;# 
   173  001E                     	;# 
   174  001F                     	;# 
   175  0081                     	;# 
   176  0085                     	;# 
   177  0086                     	;# 
   178  0087                     	;# 
   179  0088                     	;# 
   180  0089                     	;# 
   181  008C                     	;# 
   182  008D                     	;# 
   183  008E                     	;# 
   184  008F                     	;# 
   185  0090                     	;# 
   186  0091                     	;# 
   187  0092                     	;# 
   188  0093                     	;# 
   189  0093                     	;# 
   190  0093                     	;# 
   191  0094                     	;# 
   192  0095                     	;# 
   193  0096                     	;# 
   194  0097                     	;# 
   195  0098                     	;# 
   196  0099                     	;# 
   197  009A                     	;# 
   198  009B                     	;# 
   199  009C                     	;# 
   200  009D                     	;# 
   201  009E                     	;# 
   202  009F                     	;# 
   203  0105                     	;# 
   204  0107                     	;# 
   205  0108                     	;# 
   206  0109                     	;# 
   207  010C                     	;# 
   208  010C                     	;# 
   209  010D                     	;# 
   210  010E                     	;# 
   211  010F                     	;# 
   212  0185                     	;# 
   213  0187                     	;# 
   214  0188                     	;# 
   215  0189                     	;# 
   216  018C                     	;# 
   217  018D                     	;# 
   218  0000                     	;# 
   219  0001                     	;# 
   220  0002                     	;# 
   221  0003                     	;# 
   222  0004                     	;# 
   223  0005                     	;# 
   224  0006                     	;# 
   225  0007                     	;# 
   226  0008                     	;# 
   227  0009                     	;# 
   228  000A                     	;# 
   229  000B                     	;# 
   230  000C                     	;# 
   231  000D                     	;# 
   232  000E                     	;# 
   233  000E                     	;# 
   234  000F                     	;# 
   235  0010                     	;# 
   236  0011                     	;# 
   237  0012                     	;# 
   238  0013                     	;# 
   239  0014                     	;# 
   240  0015                     	;# 
   241  0015                     	;# 
   242  0016                     	;# 
   243  0017                     	;# 
   244  0018                     	;# 
   245  0019                     	;# 
   246  001A                     	;# 
   247  001B                     	;# 
   248  001B                     	;# 
   249  001C                     	;# 
   250  001D                     	;# 
   251  001E                     	;# 
   252  001F                     	;# 
   253  0081                     	;# 
   254  0085                     	;# 
   255  0086                     	;# 
   256  0087                     	;# 
   257  0088                     	;# 
   258  0089                     	;# 
   259  008C                     	;# 
   260  008D                     	;# 
   261  008E                     	;# 
   262  008F                     	;# 
   263  0090                     	;# 
   264  0091                     	;# 
   265  0092                     	;# 
   266  0093                     	;# 
   267  0093                     	;# 
   268  0093                     	;# 
   269  0094                     	;# 
   270  0095                     	;# 
   271  0096                     	;# 
   272  0097                     	;# 
   273  0098                     	;# 
   274  0099                     	;# 
   275  009A                     	;# 
   276  009B                     	;# 
   277  009C                     	;# 
   278  009D                     	;# 
   279  009E                     	;# 
   280  009F                     	;# 
   281  0105                     	;# 
   282  0107                     	;# 
   283  0108                     	;# 
   284  0109                     	;# 
   285  010C                     	;# 
   286  010C                     	;# 
   287  010D                     	;# 
   288  010E                     	;# 
   289  010F                     	;# 
   290  0185                     	;# 
   291  0187                     	;# 
   292  0188                     	;# 
   293  0189                     	;# 
   294  018C                     	;# 
   295  018D                     	;# 
   296  000B                     _INTCONbits	set	11
   297  0009                     _PORTE	set	9
   298  0008                     _PORTD	set	8
   299  0007                     _PORTC	set	7
   300  0006                     _PORTB	set	6
   301  0005                     _PORTA	set	5
   302  0007                     _PORTCbits	set	7
   303  0009                     _PORTEbits	set	9
   304  001E                     _ADRESH	set	30
   305  001F                     _ADCON0bits	set	31
   306  000C                     _PIR1bits	set	12
   307  002C                     _RA4	set	44
   308  002B                     _RA3	set	43
   309  0066                     _ADIF	set	102
   310  008F                     _OSCCONbits	set	143
   311  008C                     _PIE1bits	set	140
   312  009F                     _ADCON1bits	set	159
   313  0089                     _TRISE	set	137
   314  0086                     _TRISB	set	134
   315  0085                     _TRISAbits	set	133
   316  0085                     _TRISA	set	133
   317  0087                     _TRISC	set	135
   318  0088                     _TRISD	set	136
   319  009E                     _ADRESL	set	158
   320  0188                     _ANSELbits	set	392
   321                           
   322                           	psect	strings
   323  0546                     __pstrings:	
   324  0546                     stringtab:	
   325  0546                     __stringtab:	
   326                           
   327                           ;	String table - string pointers are 1 byte each
   328  0546  1BFF               	btfsc	btemp+1,7
   329  0547  2D50               	ljmp	stringcode
   330  0548  1383               	bcf	3,7
   331  0549  187F               	btfsc	btemp+1,0
   332  054A  1783               	bsf	3,7
   333  054B  0800               	movf	0,w
   334  054C  0A84               	incf	4,f
   335  054D  1903               	skipnz
   336  054E  0AFF               	incf	btemp+1,f
   337  054F  0008               	return
   338  0550                     stringcode:	
   339  0550                     stringdir:	
   340  0550  3005               	movlw	high stringdir
   341  0551  008A               	movwf	10
   342  0552  0804               	movf	4,w
   343  0553  0A84               	incf	4,f
   344  0554  0782               	addwf	2,f
   345  0555                     __stringbase:	
   346  0555  3400               	retlw	0
   347  0556                     __end_of__stringtab:	
   348  0556                     STR_1:	
   349  0556  3453               	retlw	83	;'S'
   350  0557  3465               	retlw	101	;'e'
   351  0558  346E               	retlw	110	;'n'
   352  0559  3473               	retlw	115	;'s'
   353  055A  346F               	retlw	111	;'o'
   354  055B  3472               	retlw	114	;'r'
   355  055C  3420               	retlw	32	;' '
   356  055D  3448               	retlw	72	;'H'
   357  055E  3475               	retlw	117	;'u'
   358  055F  346D               	retlw	109	;'m'
   359  0560  342E               	retlw	46	;'.'
   360  0561  3420               	retlw	32	;' '
   361  0562  3459               	retlw	89	;'Y'
   362  0563  344C               	retlw	76	;'L'
   363  0564  3436               	retlw	54	;'6'
   364  0565  3439               	retlw	57	;'9'
   365  0566  3400               	retlw	0
   366  0567                     STR_3:	
   367  0567  3420               	retlw	32	;' '
   368  0568  3420               	retlw	32	;' '
   369  0569  3430               	retlw	48	;'0'
   370  056A  3425               	retlw	37	;'%'
   371  056B  3400               	retlw	0
   372  056C                     STR_14:	
   373  056C  3431               	retlw	49	;'1'
   374  056D  3430               	retlw	48	;'0'
   375  056E  3430               	retlw	48	;'0'
   376  056F  3425               	retlw	37	;'%'
   377  0570  3400               	retlw	0
   378  0571                     STR_5:	
   379  0571  3420               	retlw	32	;' '
   380  0572  3431               	retlw	49	;'1'
   381  0573  3430               	retlw	48	;'0'
   382  0574  3425               	retlw	37	;'%'
   383  0575  3400               	retlw	0
   384  0576                     STR_6:	
   385  0576  3420               	retlw	32	;' '
   386  0577  3432               	retlw	50	;'2'
   387  0578  3430               	retlw	48	;'0'
   388  0579  3425               	retlw	37	;'%'
   389  057A  3400               	retlw	0
   390  057B                     STR_7:	
   391  057B  3420               	retlw	32	;' '
   392  057C  3433               	retlw	51	;'3'
   393  057D  3430               	retlw	48	;'0'
   394  057E  3425               	retlw	37	;'%'
   395  057F  3400               	retlw	0
   396  0580                     STR_8:	
   397  0580  3420               	retlw	32	;' '
   398  0581  3434               	retlw	52	;'4'
   399  0582  3430               	retlw	48	;'0'
   400  0583  3425               	retlw	37	;'%'
   401  0584  3400               	retlw	0
   402  0585                     STR_9:	
   403  0585  3420               	retlw	32	;' '
   404  0586  3435               	retlw	53	;'5'
   405  0587  3430               	retlw	48	;'0'
   406  0588  3425               	retlw	37	;'%'
   407  0589  3400               	retlw	0
   408  058A                     STR_10:	
   409  058A  3420               	retlw	32	;' '
   410  058B  3436               	retlw	54	;'6'
   411  058C  3430               	retlw	48	;'0'
   412  058D  3425               	retlw	37	;'%'
   413  058E  3400               	retlw	0
   414  058F                     STR_11:	
   415  058F  3420               	retlw	32	;' '
   416  0590  3437               	retlw	55	;'7'
   417  0591  3430               	retlw	48	;'0'
   418  0592  3425               	retlw	37	;'%'
   419  0593  3400               	retlw	0
   420  0594                     STR_12:	
   421  0594  3420               	retlw	32	;' '
   422  0595  3438               	retlw	56	;'8'
   423  0596  3430               	retlw	48	;'0'
   424  0597  3425               	retlw	37	;'%'
   425  0598  3400               	retlw	0
   426  0599                     STR_13:	
   427  0599  3420               	retlw	32	;' '
   428  059A  3439               	retlw	57	;'9'
   429  059B  3430               	retlw	48	;'0'
   430  059C  3425               	retlw	37	;'%'
   431  059D  3400               	retlw	0
   432  059E                     STR_17:	
   433  059E  3425               	retlw	37	;'%'
   434  059F  342E               	retlw	46	;'.'
   435  05A0  3432               	retlw	50	;'2'
   436  05A1  3466               	retlw	102	;'f'
   437  05A2  3400               	retlw	0
   438  05A3                     STR_16:	
   439  05A3  3425               	retlw	37	;'%'
   440  05A4  3464               	retlw	100	;'d'
   441  05A5  3400               	retlw	0
   442  0567                     
   443                           ; #config settings
   444  0000                     
   445                           	psect	cinit
   446  000F                     start_initialization:	
   447  000F                     __initialization:	
   448                           
   449                           ; Clear objects allocated to COMMON
   450  000F  01FA               	clrf	__pbssCOMMON& (0+127)
   451  0010  01FB               	clrf	(__pbssCOMMON+1)& (0+127)
   452                           
   453                           ; Clear objects allocated to BANK0
   454  0011  1383               	bcf	3,7	;select IRP bank0
   455  0012  3020               	movlw	low __pbssBANK0
   456  0013  0084               	movwf	4
   457  0014  3036               	movlw	low (__pbssBANK0+22)
   458  0015  120A  118A  26E3  120A  118A  	fcall	clear_ram0
   459  001A                     end_of_initialization:	
   460                           ;End of C runtime variable initialization code
   461                           
   462  001A                     __end_of__initialization:	
   463  001A  0183               	clrf	3
   464  001B  120A  118A  281E   	ljmp	_main	;jump to C main() function
   465                           
   466                           	psect	bssCOMMON
   467  007A                     __pbssCOMMON:	
   468  007A                     _dec:	
   469  007A                     	ds	1
   470  007B                     _uni:	
   471  007B                     	ds	1
   472                           
   473                           	psect	bssBANK0
   474  0020                     __pbssBANK0:	
   475  0020                     mapeo@F1404:	
   476  0020                     	ds	6
   477  0026                     _LCD_Humedad:	
   478  0026                     	ds	2
   479  0028                     _Sens_Humedad:	
   480  0028                     	ds	2
   481  002A                     _Humedad_L:	
   482  002A                     	ds	2
   483  002C                     _Humedad_H:	
   484  002C                     	ds	2
   485  002E                     _unidad:	
   486  002E                     	ds	1
   487  002F                     _decena:	
   488  002F                     	ds	1
   489  0030                     _centena:	
   490  0030                     	ds	1
   491  0031                     _ESTADO3:	
   492  0031                     	ds	1
   493  0032                     _ESTADO2:	
   494  0032                     	ds	1
   495  0033                     _ESTADO:	
   496  0033                     	ds	1
   497  0034                     _cen:	
   498  0034                     	ds	1
   499  0035                     _voltaje_map:	
   500  0035                     	ds	1
   501                           
   502                           	psect	clrtext
   503  06E3                     clear_ram0:	
   504                           ;	Called with FSR containing the base address, and
   505                           ;	W with the last address+1
   506                           
   507  06E3  0064               	clrwdt	;clear the watchdog before getting into this loop
   508  06E4                     clrloop0:	
   509  06E4  0180               	clrf	0	;clear RAM location pointed to by FSR
   510  06E5  0A84               	incf	4,f	;increment pointer
   511  06E6  0604               	xorwf	4,w	;XOR with final address
   512  06E7  1903               	btfsc	3,2	;have we reached the end yet?
   513  06E8  3400               	retlw	0	;all done for this memory range, return
   514  06E9  0604               	xorwf	4,w	;XOR again to restore value
   515  06EA  2EE4               	goto	clrloop0	;do the next byte
   516                           
   517                           	psect	cstackCOMMON
   518  0070                     __pcstackCOMMON:	
   519  0070                     ?_config_PORTS:	
   520  0070                     ?_config_ADC:	
   521                           ; 1 bytes @ 0x0
   522                           
   523  0070                     ?_LCD_iniciar:	
   524                           ; 1 bytes @ 0x0
   525                           
   526  0070                     ?_LCD_CLEAR:	
   527                           ; 1 bytes @ 0x0
   528                           
   529  0070                     ?_uint_to_char:	
   530                           ; 1 bytes @ 0x0
   531                           
   532  0070                     ?_LCD_CHAR:	
   533                           ; 1 bytes @ 0x0
   534                           
   535  0070                     ?_ISR:	
   536                           ; 1 bytes @ 0x0
   537                           
   538  0070                     ??_ISR:	
   539                           ; 1 bytes @ 0x0
   540                           
   541  0070                     ?_main:	
   542                           ; 1 bytes @ 0x0
   543                           
   544                           
   545                           ; 1 bytes @ 0x0
   546  0070                     	ds	2
   547  0072                     ??_config_ADC:	
   548  0072                     ??_uint_to_char:	
   549                           ; 1 bytes @ 0x2
   550                           
   551  0072                     ??_LCD_CHAR:	
   552                           ; 1 bytes @ 0x2
   553                           
   554  0072                     ?_OSC_config:	
   555                           ; 1 bytes @ 0x2
   556                           
   557  0072                     ?_LCD_DATO:	
   558                           ; 1 bytes @ 0x2
   559                           
   560  0072                     ?___wmul:	
   561                           ; 1 bytes @ 0x2
   562                           
   563  0072                     LCD_DATO@var:	
   564                           ; 2 bytes @ 0x2
   565                           
   566  0072                     ___wmul@multiplier:	
   567                           ; 2 bytes @ 0x2
   568                           
   569  0072                     OSC_config@frecuencia:	
   570                           ; 2 bytes @ 0x2
   571                           
   572                           
   573                           ; 4 bytes @ 0x2
   574  0072                     	ds	1
   575  0073                     LCD_CHAR@a:	
   576                           
   577                           ; 1 bytes @ 0x3
   578  0073                     	ds	1
   579  0074                     ?_LCD_STRING:	
   580  0074                     ??_LCD_DATO:	
   581                           ; 1 bytes @ 0x4
   582                           
   583  0074                     uint_to_char@numero:	
   584                           ; 1 bytes @ 0x4
   585                           
   586  0074                     LCD_STRING@a:	
   587                           ; 1 bytes @ 0x4
   588                           
   589  0074                     ___wmul@multiplicand:	
   590                           ; 2 bytes @ 0x4
   591                           
   592                           
   593                           ; 2 bytes @ 0x4
   594  0074                     	ds	1
   595  0075                     uint_to_char@numChr:	
   596                           
   597                           ; 1 bytes @ 0x5
   598  0075                     	ds	1
   599  0076                     ??_config_PORTS:	
   600  0076                     ??_LCD_iniciar:	
   601                           ; 1 bytes @ 0x6
   602                           
   603  0076                     ??_LCD_CLEAR:	
   604                           ; 1 bytes @ 0x6
   605                           
   606  0076                     ?_LCD_CURSOR:	
   607                           ; 1 bytes @ 0x6
   608                           
   609  0076                     ??_LCD_STRING:	
   610                           ; 1 bytes @ 0x6
   611                           
   612  0076                     ??_OSC_config:	
   613                           ; 1 bytes @ 0x6
   614                           
   615  0076                     ??___wmul:	
   616                           ; 1 bytes @ 0x6
   617                           
   618  0076                     LCD_CURSOR@a:	
   619                           ; 1 bytes @ 0x6
   620                           
   621  0076                     ___wmul@product:	
   622                           ; 2 bytes @ 0x6
   623                           
   624                           
   625                           ; 2 bytes @ 0x6
   626  0076                     	ds	2
   627  0078                     ?_mapeo:	
   628  0078                     mapeo@limPIC:	
   629                           ; 1 bytes @ 0x8
   630                           
   631  0078                     LCD_CURSOR@b:	
   632                           ; 1 bytes @ 0x8
   633                           
   634                           
   635                           ; 2 bytes @ 0x8
   636  0078                     	ds	1
   637  0079                     mapeo@limFisico:	
   638                           
   639                           ; 1 bytes @ 0x9
   640  0079                     	ds	1
   641  007A                     ??_LCD_CURSOR:	
   642                           
   643                           	psect	cstackBANK0
   644  0036                     __pcstackBANK0:	
   645                           ; 1 bytes @ 0xA
   646                           
   647  0036                     ??_mapeo:	
   648  0036                     LCD_CURSOR@d:	
   649                           ; 1 bytes @ 0x0
   650                           
   651  0036                     LCD_STRING@n:	
   652                           ; 2 bytes @ 0x0
   653                           
   654                           
   655                           ; 2 bytes @ 0x0
   656  0036                     	ds	4
   657  003A                     mapeo@valor:	
   658                           
   659                           ; 1 bytes @ 0x4
   660  003A                     	ds	1
   661  003B                     mapeo@result:	
   662                           
   663                           ; 6 bytes @ 0x5
   664  003B                     	ds	6
   665  0041                     mapeo@dividendo:	
   666                           
   667                           ; 2 bytes @ 0xB
   668  0041                     	ds	2
   669  0043                     ??_main:	
   670                           
   671                           ; 1 bytes @ 0xD
   672  0043                     	ds	4
   673                           
   674                           	psect	maintext
   675  001E                     __pmaintext:	
   676 ;;
   677 ;;Main: autosize = 0, tempsize = 4, incstack = 0, save=0
   678 ;;
   679 ;; *************** function _main *****************
   680 ;; Defined at:
   681 ;;		line 92 in file "YL69_humedad.c"
   682 ;; Parameters:    Size  Location     Type
   683 ;;		None
   684 ;; Auto vars:     Size  Location     Type
   685 ;;		None
   686 ;; Return value:  Size  Location     Type
   687 ;;                  1    wreg      void 
   688 ;; Registers used:
   689 ;;		wreg, fsr0l, fsr0h, status,2, status,0, btemp+1, pclath, cstack
   690 ;; Tracked objects:
   691 ;;		On entry : B00/0
   692 ;;		On exit  : 0/0
   693 ;;		Unchanged: 0/0
   694 ;; Data sizes:     COMMON   BANK0   BANK1   BANK3   BANK2
   695 ;;      Params:         0       0       0       0       0
   696 ;;      Locals:         0       0       0       0       0
   697 ;;      Temps:          0       4       0       0       0
   698 ;;      Totals:         0       4       0       0       0
   699 ;;Total ram usage:        4 bytes
   700 ;; Hardware stack levels required when called:    3
   701 ;; This function calls:
   702 ;;		_LCD_CHAR
   703 ;;		_LCD_CLEAR
   704 ;;		_LCD_CURSOR
   705 ;;		_LCD_STRING
   706 ;;		_LCD_iniciar
   707 ;;		_config_ADC
   708 ;;		_config_PORTS
   709 ;;		_mapeo
   710 ;;		_uint_to_char
   711 ;; This function is called by:
   712 ;;		Startup code after reset
   713 ;; This function uses a non-reentrant model
   714 ;;
   715                           
   716                           
   717                           ;psect for function _main
   718  001E                     _main:	
   719  001E                     l2549:	
   720                           ;incstack = 0
   721                           ; Regs used in _main: [wreg-fsr0h+status,2+status,0+btemp+1+pclath+cstack]
   722                           
   723                           
   724                           ;YL69_humedad.c: 93:     config_PORTS();
   725  001E  120A  118A  2619  120A  118A  	fcall	_config_PORTS
   726  0023                     l2551:	
   727                           
   728                           ;YL69_humedad.c: 94:     config_ADC();
   729  0023  120A  118A  268B  120A  118A  	fcall	_config_ADC
   730  0028                     l2553:	
   731                           
   732                           ;YL69_humedad.c: 96:     LCD_iniciar();
   733  0028  120A  118A  24C7  120A  118A  	fcall	_LCD_iniciar
   734  002D                     l2555:	
   735                           
   736                           ;YL69_humedad.c: 97:     LCD_CLEAR();
   737  002D  120A  118A  26AC  120A  118A  	fcall	_LCD_CLEAR
   738  0032                     l2557:	
   739                           
   740                           ;YL69_humedad.c: 98:     LCD_CURSOR(1,1);
   741  0032  3001               	movlw	1
   742  0033  00F6               	movwf	LCD_CURSOR@a
   743  0034  3000               	movlw	0
   744  0035  00F7               	movwf	LCD_CURSOR@a+1
   745  0036  3001               	movlw	1
   746  0037  00F8               	movwf	LCD_CURSOR@b
   747  0038  3000               	movlw	0
   748  0039  00F9               	movwf	LCD_CURSOR@b+1
   749  003A  120A  118A  25EC  120A  118A  	fcall	_LCD_CURSOR
   750  003F                     l2559:	
   751                           
   752                           ;YL69_humedad.c: 99:     LCD_STRING ("Sensor Hum. YL69");
   753  003F  3001               	movlw	(low ((STR_1-__stringbase)| (0+32768)))& (0+255)
   754  0040  00F4               	movwf	LCD_STRING@a
   755  0041  3080               	movlw	128
   756  0042  00F5               	movwf	LCD_STRING@a+1
   757  0043  120A  118A  25A6  120A  118A  	fcall	_LCD_STRING
   758  0048                     l2561:	
   759                           
   760                           ;YL69_humedad.c: 105:         LCD_CURSOR(1,1);
   761  0048  3001               	movlw	1
   762  0049  00F6               	movwf	LCD_CURSOR@a
   763  004A  3000               	movlw	0
   764  004B  00F7               	movwf	LCD_CURSOR@a+1
   765  004C  3001               	movlw	1
   766  004D  00F8               	movwf	LCD_CURSOR@b
   767  004E  3000               	movlw	0
   768  004F  00F9               	movwf	LCD_CURSOR@b+1
   769  0050  120A  118A  25EC  120A  118A  	fcall	_LCD_CURSOR
   770  0055                     l2563:	
   771                           
   772                           ;YL69_humedad.c: 106:         LCD_STRING ("Sensor Hum. YL69");
   773  0055  3001               	movlw	(low ((STR_1-__stringbase)| (0+32768)))& (0+255)
   774  0056  00F4               	movwf	LCD_STRING@a
   775  0057  3080               	movlw	128
   776  0058  00F5               	movwf	LCD_STRING@a+1
   777  0059  120A  118A  25A6  120A  118A  	fcall	_LCD_STRING
   778  005E                     l2565:	
   779                           
   780                           ;YL69_humedad.c: 108:         ADCON0bits.GO = 1;
   781  005E  1283               	bcf	3,5	;RP0=0, select bank0
   782  005F  1303               	bcf	3,6	;RP1=0, select bank0
   783  0060  149F               	bsf	31,1	;volatile
   784  0061                     l2567:	
   785                           
   786                           ;YL69_humedad.c: 109:         Humedad_H = ADRESH ;
   787  0061  081E               	movf	30,w	;volatile
   788  0062  00C3               	movwf	??_main
   789  0063  01C4               	clrf	??_main+1
   790  0064  0843               	movf	??_main,w
   791  0065  00AC               	movwf	_Humedad_H
   792  0066  0844               	movf	??_main+1,w
   793  0067  00AD               	movwf	_Humedad_H+1
   794  0068                     l2569:	
   795                           
   796                           ;YL69_humedad.c: 110:         Humedad_L = ADRESL ;
   797  0068  1683               	bsf	3,5	;RP0=1, select bank1
   798  0069  1303               	bcf	3,6	;RP1=0, select bank1
   799  006A  081E               	movf	30,w	;volatile
   800  006B  1283               	bcf	3,5	;RP0=0, select bank0
   801  006C  1303               	bcf	3,6	;RP1=0, select bank0
   802  006D  00C3               	movwf	??_main
   803  006E  01C4               	clrf	??_main+1
   804  006F  0843               	movf	??_main,w
   805  0070  00AA               	movwf	_Humedad_L
   806  0071  0844               	movf	??_main+1,w
   807  0072  00AB               	movwf	_Humedad_L+1
   808  0073                     l2571:	
   809                           
   810                           ;YL69_humedad.c: 111:         Sens_Humedad = (Humedad_H << 2) | (Humedad_L >> 6);
   811  0073  082B               	movf	_Humedad_L+1,w
   812  0074  00C4               	movwf	??_main+1
   813  0075  082A               	movf	_Humedad_L,w
   814  0076  00C3               	movwf	??_main
   815  0077  3006               	movlw	6
   816  0078                     u955:	
   817  0078  1003               	clrc
   818  0079  0CC4               	rrf	??_main+1,f
   819  007A  0CC3               	rrf	??_main,f
   820  007B  3EFF               	addlw	-1
   821  007C  1D03               	skipz
   822  007D  2878               	goto	u955
   823  007E  082D               	movf	_Humedad_H+1,w
   824  007F  00C6               	movwf	??_main+3
   825  0080  082C               	movf	_Humedad_H,w
   826  0081  00C5               	movwf	??_main+2
   827  0082  1003               	clrc
   828  0083  0DC5               	rlf	??_main+2,f
   829  0084  0DC6               	rlf	??_main+3,f
   830  0085  1003               	clrc
   831  0086  0DC5               	rlf	??_main+2,f
   832  0087  0DC6               	rlf	??_main+3,f
   833  0088  0843               	movf	??_main,w
   834  0089  0445               	iorwf	??_main+2,w
   835  008A  00A8               	movwf	_Sens_Humedad
   836  008B  0844               	movf	??_main+1,w
   837  008C  0446               	iorwf	??_main+3,w
   838  008D  00A9               	movwf	_Sens_Humedad+1
   839  008E                     l2573:	
   840                           
   841                           ;YL69_humedad.c: 116:         voltaje_map = mapeo(Humedad_H, 255,1);
   842  008E  30FF               	movlw	255
   843  008F  00C3               	movwf	??_main
   844  0090  0843               	movf	??_main,w
   845  0091  00F8               	movwf	mapeo@limPIC
   846  0092  01F9               	clrf	mapeo@limFisico
   847  0093  0AF9               	incf	mapeo@limFisico,f
   848  0094  082C               	movf	_Humedad_H,w
   849  0095  120A  118A  2390  120A  118A  	fcall	_mapeo
   850  009A  1283               	bcf	3,5	;RP0=0, select bank0
   851  009B  1303               	bcf	3,6	;RP1=0, select bank0
   852  009C  00C4               	movwf	??_main+1
   853  009D  0844               	movf	??_main+1,w
   854  009E  00B5               	movwf	_voltaje_map
   855  009F                     l2575:	
   856                           
   857                           ;YL69_humedad.c: 117:         cen = voltaje_map[0];
   858  009F  0835               	movf	_voltaje_map,w
   859  00A0  0084               	movwf	4
   860  00A1  1383               	bcf	3,7	;select IRP bank0
   861  00A2  0800               	movf	0,w
   862  00A3  00C3               	movwf	??_main
   863  00A4  0843               	movf	??_main,w
   864  00A5  00B4               	movwf	_cen
   865  00A6                     l2577:	
   866                           
   867                           ;YL69_humedad.c: 118:         dec = voltaje_map[1];
   868  00A6  0835               	movf	_voltaje_map,w
   869  00A7  3E02               	addlw	2
   870  00A8  0084               	movwf	4
   871  00A9  0800               	movf	0,w
   872  00AA  00C3               	movwf	??_main
   873  00AB  0843               	movf	??_main,w
   874  00AC  00FA               	movwf	_dec
   875  00AD                     l2579:	
   876                           
   877                           ;YL69_humedad.c: 119:         uni = voltaje_map[2];
   878  00AD  0835               	movf	_voltaje_map,w
   879  00AE  3E04               	addlw	4
   880  00AF  0084               	movwf	4
   881  00B0  0800               	movf	0,w
   882  00B1  00C3               	movwf	??_main
   883  00B2  0843               	movf	??_main,w
   884  00B3  00FB               	movwf	_uni
   885  00B4                     l2581:	
   886                           
   887                           ;YL69_humedad.c: 121:         centena = uint_to_char(cen);
   888  00B4  0834               	movf	_cen,w
   889  00B5  120A  118A  2434  120A  118A  	fcall	_uint_to_char
   890  00BA  1283               	bcf	3,5	;RP0=0, select bank0
   891  00BB  1303               	bcf	3,6	;RP1=0, select bank0
   892  00BC  00C3               	movwf	??_main
   893  00BD  0843               	movf	??_main,w
   894  00BE  00B0               	movwf	_centena
   895  00BF                     l2583:	
   896                           
   897                           ;YL69_humedad.c: 122:         decena = uint_to_char(dec);
   898  00BF  087A               	movf	_dec,w
   899  00C0  120A  118A  2434  120A  118A  	fcall	_uint_to_char
   900  00C5  1283               	bcf	3,5	;RP0=0, select bank0
   901  00C6  1303               	bcf	3,6	;RP1=0, select bank0
   902  00C7  00C3               	movwf	??_main
   903  00C8  0843               	movf	??_main,w
   904  00C9  00AF               	movwf	_decena
   905  00CA                     l2585:	
   906                           
   907                           ;YL69_humedad.c: 123:         unidad = uint_to_char(uni);
   908  00CA  087B               	movf	_uni,w
   909  00CB  120A  118A  2434  120A  118A  	fcall	_uint_to_char
   910  00D0  1283               	bcf	3,5	;RP0=0, select bank0
   911  00D1  1303               	bcf	3,6	;RP1=0, select bank0
   912  00D2  00C3               	movwf	??_main
   913  00D3  0843               	movf	??_main,w
   914  00D4  00AE               	movwf	_unidad
   915  00D5                     l2587:	
   916                           
   917                           ;YL69_humedad.c: 125:         LCD_CURSOR(2,1);
   918  00D5  3002               	movlw	2
   919  00D6  00F6               	movwf	LCD_CURSOR@a
   920  00D7  3000               	movlw	0
   921  00D8  00F7               	movwf	LCD_CURSOR@a+1
   922  00D9  3001               	movlw	1
   923  00DA  00F8               	movwf	LCD_CURSOR@b
   924  00DB  3000               	movlw	0
   925  00DC  00F9               	movwf	LCD_CURSOR@b+1
   926  00DD  120A  118A  25EC  120A  118A  	fcall	_LCD_CURSOR
   927  00E2                     l2589:	
   928                           
   929                           ;YL69_humedad.c: 126:         LCD_CHAR(centena);
   930  00E2  1283               	bcf	3,5	;RP0=0, select bank0
   931  00E3  1303               	bcf	3,6	;RP1=0, select bank0
   932  00E4  0830               	movf	_centena,w
   933  00E5  120A  118A  26C6  120A  118A  	fcall	_LCD_CHAR
   934  00EA                     l2591:	
   935                           
   936                           ;YL69_humedad.c: 127:         LCD_CHAR(decena);
   937  00EA  1283               	bcf	3,5	;RP0=0, select bank0
   938  00EB  1303               	bcf	3,6	;RP1=0, select bank0
   939  00EC  082F               	movf	_decena,w
   940  00ED  120A  118A  26C6  120A  118A  	fcall	_LCD_CHAR
   941  00F2                     l2593:	
   942                           
   943                           ;YL69_humedad.c: 128:         LCD_CHAR(unidad);
   944  00F2  1283               	bcf	3,5	;RP0=0, select bank0
   945  00F3  1303               	bcf	3,6	;RP1=0, select bank0
   946  00F4  082E               	movf	_unidad,w
   947  00F5  120A  118A  26C6  120A  118A  	fcall	_LCD_CHAR
   948  00FA                     l2595:	
   949                           
   950                           ;YL69_humedad.c: 129:         LCD_CHAR('%');
   951  00FA  3025               	movlw	37
   952  00FB  120A  118A  26C6  120A  118A  	fcall	_LCD_CHAR
   953  0100                     l2597:	
   954                           
   955                           ;YL69_humedad.c: 134:         if (PORTEbits.RE2 == 1){
   956  0100  1283               	bcf	3,5	;RP0=0, select bank0
   957  0101  1303               	bcf	3,6	;RP1=0, select bank0
   958  0102  1D09               	btfss	9,2	;volatile
   959  0103  2905               	goto	u961
   960  0104  2906               	goto	u960
   961  0105                     u961:	
   962  0105  2917               	goto	l2611
   963  0106                     u960:	
   964  0106                     l2599:	
   965                           
   966                           ;YL69_humedad.c: 135:             ESTADO3 = 1;
   967  0106  01B1               	clrf	_ESTADO3
   968  0107  0AB1               	incf	_ESTADO3,f
   969  0108                     l2601:	
   970                           
   971                           ;YL69_humedad.c: 136:             _delay((unsigned long)((250)*(1000000/4000000.0)));
   972  0108  3013               	movlw	19
   973  0109  1283               	bcf	3,5	;RP0=0, select bank0
   974  010A  1303               	bcf	3,6	;RP1=0, select bank0
   975  010B  00C3               	movwf	??_main
   976  010C                     u1267:	
   977  010C  0BC3               	decfsz	??_main,f
   978  010D  290C               	goto	u1267
   979  010E  290F               	nop2
   980  010F                     l2603:	
   981  010F                     l2605:	
   982                           ;YL69_humedad.c: 138:             if (ESTADO3 == 1 && PORTEbits.RE2 == 0) {
   983                           
   984  010F  1283               	bcf	3,5	;RP0=0, select bank0
   985  0110  1303               	bcf	3,6	;RP1=0, select bank0
   986  0111  1909               	btfsc	9,2	;volatile
   987  0112  2914               	goto	u971
   988  0113  2915               	goto	u970
   989  0114                     u971:	
   990  0114  2916               	goto	l2609
   991  0115                     u970:	
   992  0115                     l2607:	
   993                           
   994                           ;YL69_humedad.c: 139:                 PORTCbits.RC2 = 1;
   995  0115  1507               	bsf	7,2	;volatile
   996  0116                     l2609:	
   997                           
   998                           ;YL69_humedad.c: 142:             ESTADO3 = 0;
   999  0116  01B1               	clrf	_ESTADO3
  1000  0117                     l2611:	
  1001                           
  1002                           ;YL69_humedad.c: 146:         if (Humedad_H == 0xFF){
  1003  0117  0A2C               	incf	_Humedad_H,w
  1004  0118  042D               	iorwf	_Humedad_H+1,w
  1005  0119  1D03               	btfss	3,2
  1006  011A  291C               	goto	u981
  1007  011B  291D               	goto	u980
  1008  011C                     u981:	
  1009  011C  2937               	goto	l2621
  1010  011D                     u980:	
  1011  011D                     l2613:	
  1012                           
  1013                           ;YL69_humedad.c: 147:             LCD_CURSOR(2,7);
  1014  011D  3002               	movlw	2
  1015  011E  00F6               	movwf	LCD_CURSOR@a
  1016  011F  3000               	movlw	0
  1017  0120  00F7               	movwf	LCD_CURSOR@a+1
  1018  0121  3007               	movlw	7
  1019  0122  00F8               	movwf	LCD_CURSOR@b
  1020  0123  3000               	movlw	0
  1021  0124  00F9               	movwf	LCD_CURSOR@b+1
  1022  0125  120A  118A  25EC  120A  118A  	fcall	_LCD_CURSOR
  1023  012A                     l2615:	
  1024                           
  1025                           ;YL69_humedad.c: 148:             LCD_STRING("  0%");
  1026  012A  3012               	movlw	(low ((STR_3-__stringbase)| (0+32768)))& (0+255)
  1027  012B  00F4               	movwf	LCD_STRING@a
  1028  012C  3080               	movlw	128
  1029  012D  00F5               	movwf	LCD_STRING@a+1
  1030  012E  120A  118A  25A6  120A  118A  	fcall	_LCD_STRING
  1031  0133                     l2617:	
  1032                           
  1033                           ;YL69_humedad.c: 149:             PORTCbits.RC0 = 0;
  1034  0133  1283               	bcf	3,5	;RP0=0, select bank0
  1035  0134  1303               	bcf	3,6	;RP1=0, select bank0
  1036  0135  1007               	bcf	7,0	;volatile
  1037  0136                     l2619:	
  1038                           
  1039                           ;YL69_humedad.c: 150:             PORTCbits.RC1 = 1;
  1040  0136  1487               	bsf	7,1	;volatile
  1041  0137                     l2621:	
  1042                           
  1043                           ;YL69_humedad.c: 155:         if ((dec == 9 || dec == 0) && (uni >= 6 || uni == 0) ){
  1044  0137  3009               	movlw	9
  1045  0138  067A               	xorwf	_dec,w
  1046  0139  1903               	btfsc	3,2
  1047  013A  293C               	goto	u991
  1048  013B  293D               	goto	u990
  1049  013C                     u991:	
  1050  013C  2942               	goto	l2625
  1051  013D                     u990:	
  1052  013D                     l2623:	
  1053  013D  087A               	movf	_dec,w
  1054  013E  1D03               	btfss	3,2
  1055  013F  2941               	goto	u1001
  1056  0140  2942               	goto	u1000
  1057  0141                     u1001:	
  1058  0141  2963               	goto	l2633
  1059  0142                     u1000:	
  1060  0142                     l2625:	
  1061  0142  3006               	movlw	6
  1062  0143  027B               	subwf	_uni,w
  1063  0144  1803               	skipnc
  1064  0145  2947               	goto	u1011
  1065  0146  2948               	goto	u1010
  1066  0147                     u1011:	
  1067  0147  294D               	goto	l2629
  1068  0148                     u1010:	
  1069  0148                     l2627:	
  1070  0148  087B               	movf	_uni,w
  1071  0149  1D03               	btfss	3,2
  1072  014A  294C               	goto	u1021
  1073  014B  294D               	goto	u1020
  1074  014C                     u1021:	
  1075  014C  2963               	goto	l2633
  1076  014D                     u1020:	
  1077  014D                     l2629:	
  1078                           
  1079                           ;YL69_humedad.c: 156:             LCD_CURSOR(2,7);
  1080  014D  3002               	movlw	2
  1081  014E  00F6               	movwf	LCD_CURSOR@a
  1082  014F  3000               	movlw	0
  1083  0150  00F7               	movwf	LCD_CURSOR@a+1
  1084  0151  3007               	movlw	7
  1085  0152  00F8               	movwf	LCD_CURSOR@b
  1086  0153  3000               	movlw	0
  1087  0154  00F9               	movwf	LCD_CURSOR@b+1
  1088  0155  120A  118A  25EC  120A  118A  	fcall	_LCD_CURSOR
  1089  015A                     l2631:	
  1090                           
  1091                           ;YL69_humedad.c: 157:             LCD_STRING("  0%");
  1092  015A  3012               	movlw	(low ((STR_3-__stringbase)| (0+32768)))& (0+255)
  1093  015B  00F4               	movwf	LCD_STRING@a
  1094  015C  3080               	movlw	128
  1095  015D  00F5               	movwf	LCD_STRING@a+1
  1096  015E  120A  118A  25A6  120A  118A  	fcall	_LCD_STRING
  1097  0163                     l2633:	
  1098                           
  1099                           ;YL69_humedad.c: 161:         if ( dec == 9 ){
  1100  0163  3009               	movlw	9
  1101  0164  067A               	xorwf	_dec,w
  1102  0165  1D03               	btfss	3,2
  1103  0166  2968               	goto	u1031
  1104  0167  2969               	goto	u1030
  1105  0168                     u1031:	
  1106  0168  2985               	goto	l2641
  1107  0169                     u1030:	
  1108  0169                     l2635:	
  1109                           
  1110                           ;YL69_humedad.c: 162:             if(uni >= 0 && uni < 5 ){
  1111  0169  3005               	movlw	5
  1112  016A  027B               	subwf	_uni,w
  1113  016B  1803               	skipnc
  1114  016C  296E               	goto	u1041
  1115  016D  296F               	goto	u1040
  1116  016E                     u1041:	
  1117  016E  2985               	goto	l2641
  1118  016F                     u1040:	
  1119  016F                     l2637:	
  1120                           
  1121                           ;YL69_humedad.c: 163:             LCD_CURSOR(2,7);
  1122  016F  3002               	movlw	2
  1123  0170  00F6               	movwf	LCD_CURSOR@a
  1124  0171  3000               	movlw	0
  1125  0172  00F7               	movwf	LCD_CURSOR@a+1
  1126  0173  3007               	movlw	7
  1127  0174  00F8               	movwf	LCD_CURSOR@b
  1128  0175  3000               	movlw	0
  1129  0176  00F9               	movwf	LCD_CURSOR@b+1
  1130  0177  120A  118A  25EC  120A  118A  	fcall	_LCD_CURSOR
  1131  017C                     l2639:	
  1132                           
  1133                           ;YL69_humedad.c: 164:             LCD_STRING(" 10%");
  1134  017C  301C               	movlw	(low ((STR_5-__stringbase)| (0+32768)))& (0+255)
  1135  017D  00F4               	movwf	LCD_STRING@a
  1136  017E  3080               	movlw	128
  1137  017F  00F5               	movwf	LCD_STRING@a+1
  1138  0180  120A  118A  25A6  120A  118A  	fcall	_LCD_STRING
  1139  0185                     l2641:	
  1140                           
  1141                           ;YL69_humedad.c: 169:         if ( dec == 8 ){
  1142  0185  3008               	movlw	8
  1143  0186  067A               	xorwf	_dec,w
  1144  0187  1D03               	btfss	3,2
  1145  0188  298A               	goto	u1051
  1146  0189  298B               	goto	u1050
  1147  018A                     u1051:	
  1148  018A  29A7               	goto	l2649
  1149  018B                     u1050:	
  1150  018B                     l2643:	
  1151                           
  1152                           ;YL69_humedad.c: 170:             if(uni >= 0 && uni < 9 ){
  1153  018B  3009               	movlw	9
  1154  018C  027B               	subwf	_uni,w
  1155  018D  1803               	skipnc
  1156  018E  2990               	goto	u1061
  1157  018F  2991               	goto	u1060
  1158  0190                     u1061:	
  1159  0190  29A7               	goto	l2649
  1160  0191                     u1060:	
  1161  0191                     l2645:	
  1162                           
  1163                           ;YL69_humedad.c: 171:             LCD_CURSOR(2,7);
  1164  0191  3002               	movlw	2
  1165  0192  00F6               	movwf	LCD_CURSOR@a
  1166  0193  3000               	movlw	0
  1167  0194  00F7               	movwf	LCD_CURSOR@a+1
  1168  0195  3007               	movlw	7
  1169  0196  00F8               	movwf	LCD_CURSOR@b
  1170  0197  3000               	movlw	0
  1171  0198  00F9               	movwf	LCD_CURSOR@b+1
  1172  0199  120A  118A  25EC  120A  118A  	fcall	_LCD_CURSOR
  1173  019E                     l2647:	
  1174                           
  1175                           ;YL69_humedad.c: 172:             LCD_STRING(" 20%");
  1176  019E  3021               	movlw	(low ((STR_6-__stringbase)| (0+32768)))& (0+255)
  1177  019F  00F4               	movwf	LCD_STRING@a
  1178  01A0  3080               	movlw	128
  1179  01A1  00F5               	movwf	LCD_STRING@a+1
  1180  01A2  120A  118A  25A6  120A  118A  	fcall	_LCD_STRING
  1181  01A7                     l2649:	
  1182                           
  1183                           ;YL69_humedad.c: 177:         if ( dec == 7 ){
  1184  01A7  3007               	movlw	7
  1185  01A8  067A               	xorwf	_dec,w
  1186  01A9  1D03               	btfss	3,2
  1187  01AA  29AC               	goto	u1071
  1188  01AB  29AD               	goto	u1070
  1189  01AC                     u1071:	
  1190  01AC  29C9               	goto	l2657
  1191  01AD                     u1070:	
  1192  01AD                     l2651:	
  1193                           
  1194                           ;YL69_humedad.c: 178:             if(uni >= 0 && uni < 9 ){
  1195  01AD  3009               	movlw	9
  1196  01AE  027B               	subwf	_uni,w
  1197  01AF  1803               	skipnc
  1198  01B0  29B2               	goto	u1081
  1199  01B1  29B3               	goto	u1080
  1200  01B2                     u1081:	
  1201  01B2  29C9               	goto	l2657
  1202  01B3                     u1080:	
  1203  01B3                     l2653:	
  1204                           
  1205                           ;YL69_humedad.c: 179:             LCD_CURSOR(2,7);
  1206  01B3  3002               	movlw	2
  1207  01B4  00F6               	movwf	LCD_CURSOR@a
  1208  01B5  3000               	movlw	0
  1209  01B6  00F7               	movwf	LCD_CURSOR@a+1
  1210  01B7  3007               	movlw	7
  1211  01B8  00F8               	movwf	LCD_CURSOR@b
  1212  01B9  3000               	movlw	0
  1213  01BA  00F9               	movwf	LCD_CURSOR@b+1
  1214  01BB  120A  118A  25EC  120A  118A  	fcall	_LCD_CURSOR
  1215  01C0                     l2655:	
  1216                           
  1217                           ;YL69_humedad.c: 180:             LCD_STRING(" 30%");
  1218  01C0  3026               	movlw	(low ((STR_7-__stringbase)| (0+32768)))& (0+255)
  1219  01C1  00F4               	movwf	LCD_STRING@a
  1220  01C2  3080               	movlw	128
  1221  01C3  00F5               	movwf	LCD_STRING@a+1
  1222  01C4  120A  118A  25A6  120A  118A  	fcall	_LCD_STRING
  1223  01C9                     l2657:	
  1224                           
  1225                           ;YL69_humedad.c: 185:         if ( dec == 6 ){
  1226  01C9  3006               	movlw	6
  1227  01CA  067A               	xorwf	_dec,w
  1228  01CB  1D03               	btfss	3,2
  1229  01CC  29CE               	goto	u1091
  1230  01CD  29CF               	goto	u1090
  1231  01CE                     u1091:	
  1232  01CE  29EB               	goto	l2665
  1233  01CF                     u1090:	
  1234  01CF                     l2659:	
  1235                           
  1236                           ;YL69_humedad.c: 186:             if(uni >= 0 && uni < 9 ){
  1237  01CF  3009               	movlw	9
  1238  01D0  027B               	subwf	_uni,w
  1239  01D1  1803               	skipnc
  1240  01D2  29D4               	goto	u1101
  1241  01D3  29D5               	goto	u1100
  1242  01D4                     u1101:	
  1243  01D4  29EB               	goto	l2665
  1244  01D5                     u1100:	
  1245  01D5                     l2661:	
  1246                           
  1247                           ;YL69_humedad.c: 187:             LCD_CURSOR(2,7);
  1248  01D5  3002               	movlw	2
  1249  01D6  00F6               	movwf	LCD_CURSOR@a
  1250  01D7  3000               	movlw	0
  1251  01D8  00F7               	movwf	LCD_CURSOR@a+1
  1252  01D9  3007               	movlw	7
  1253  01DA  00F8               	movwf	LCD_CURSOR@b
  1254  01DB  3000               	movlw	0
  1255  01DC  00F9               	movwf	LCD_CURSOR@b+1
  1256  01DD  120A  118A  25EC  120A  118A  	fcall	_LCD_CURSOR
  1257  01E2                     l2663:	
  1258                           
  1259                           ;YL69_humedad.c: 188:             LCD_STRING(" 40%");
  1260  01E2  302B               	movlw	(low ((STR_8-__stringbase)| (0+32768)))& (0+255)
  1261  01E3  00F4               	movwf	LCD_STRING@a
  1262  01E4  3080               	movlw	128
  1263  01E5  00F5               	movwf	LCD_STRING@a+1
  1264  01E6  120A  118A  25A6  120A  118A  	fcall	_LCD_STRING
  1265  01EB                     l2665:	
  1266                           
  1267                           ;YL69_humedad.c: 193:         if ( dec == 5 ){
  1268  01EB  3005               	movlw	5
  1269  01EC  067A               	xorwf	_dec,w
  1270  01ED  1D03               	btfss	3,2
  1271  01EE  29F0               	goto	u1111
  1272  01EF  29F1               	goto	u1110
  1273  01F0                     u1111:	
  1274  01F0  2A0D               	goto	l2673
  1275  01F1                     u1110:	
  1276  01F1                     l2667:	
  1277                           
  1278                           ;YL69_humedad.c: 194:             if(uni >= 0 && uni < 9 ){
  1279  01F1  3009               	movlw	9
  1280  01F2  027B               	subwf	_uni,w
  1281  01F3  1803               	skipnc
  1282  01F4  29F6               	goto	u1121
  1283  01F5  29F7               	goto	u1120
  1284  01F6                     u1121:	
  1285  01F6  2A0D               	goto	l2673
  1286  01F7                     u1120:	
  1287  01F7                     l2669:	
  1288                           
  1289                           ;YL69_humedad.c: 195:             LCD_CURSOR(2,7);
  1290  01F7  3002               	movlw	2
  1291  01F8  00F6               	movwf	LCD_CURSOR@a
  1292  01F9  3000               	movlw	0
  1293  01FA  00F7               	movwf	LCD_CURSOR@a+1
  1294  01FB  3007               	movlw	7
  1295  01FC  00F8               	movwf	LCD_CURSOR@b
  1296  01FD  3000               	movlw	0
  1297  01FE  00F9               	movwf	LCD_CURSOR@b+1
  1298  01FF  120A  118A  25EC  120A  118A  	fcall	_LCD_CURSOR
  1299  0204                     l2671:	
  1300                           
  1301                           ;YL69_humedad.c: 196:             LCD_STRING(" 50%");
  1302  0204  3030               	movlw	(low ((STR_9-__stringbase)| (0+32768)))& (0+255)
  1303  0205  00F4               	movwf	LCD_STRING@a
  1304  0206  3080               	movlw	128
  1305  0207  00F5               	movwf	LCD_STRING@a+1
  1306  0208  120A  118A  25A6  120A  118A  	fcall	_LCD_STRING
  1307  020D                     l2673:	
  1308                           
  1309                           ;YL69_humedad.c: 201:         if ( dec == 4 ){
  1310  020D  3004               	movlw	4
  1311  020E  067A               	xorwf	_dec,w
  1312  020F  1D03               	btfss	3,2
  1313  0210  2A12               	goto	u1131
  1314  0211  2A13               	goto	u1130
  1315  0212                     u1131:	
  1316  0212  2A2F               	goto	l2681
  1317  0213                     u1130:	
  1318  0213                     l2675:	
  1319                           
  1320                           ;YL69_humedad.c: 202:             if(uni >= 0 && uni < 9 ){
  1321  0213  3009               	movlw	9
  1322  0214  027B               	subwf	_uni,w
  1323  0215  1803               	skipnc
  1324  0216  2A18               	goto	u1141
  1325  0217  2A19               	goto	u1140
  1326  0218                     u1141:	
  1327  0218  2A2F               	goto	l2681
  1328  0219                     u1140:	
  1329  0219                     l2677:	
  1330                           
  1331                           ;YL69_humedad.c: 203:             LCD_CURSOR(2,7);
  1332  0219  3002               	movlw	2
  1333  021A  00F6               	movwf	LCD_CURSOR@a
  1334  021B  3000               	movlw	0
  1335  021C  00F7               	movwf	LCD_CURSOR@a+1
  1336  021D  3007               	movlw	7
  1337  021E  00F8               	movwf	LCD_CURSOR@b
  1338  021F  3000               	movlw	0
  1339  0220  00F9               	movwf	LCD_CURSOR@b+1
  1340  0221  120A  118A  25EC  120A  118A  	fcall	_LCD_CURSOR
  1341  0226                     l2679:	
  1342                           
  1343                           ;YL69_humedad.c: 204:             LCD_STRING(" 60%");
  1344  0226  3035               	movlw	(low ((STR_10-__stringbase)| (0+32768)))& (0+255)
  1345  0227  00F4               	movwf	LCD_STRING@a
  1346  0228  3080               	movlw	128
  1347  0229  00F5               	movwf	LCD_STRING@a+1
  1348  022A  120A  118A  25A6  120A  118A  	fcall	_LCD_STRING
  1349  022F                     l2681:	
  1350                           
  1351                           ;YL69_humedad.c: 209:         if ( dec == 3 ){
  1352  022F  3003               	movlw	3
  1353  0230  067A               	xorwf	_dec,w
  1354  0231  1D03               	btfss	3,2
  1355  0232  2A34               	goto	u1151
  1356  0233  2A35               	goto	u1150
  1357  0234                     u1151:	
  1358  0234  2A51               	goto	l2689
  1359  0235                     u1150:	
  1360  0235                     l2683:	
  1361                           
  1362                           ;YL69_humedad.c: 210:             if(uni >= 0 && uni < 9 ){
  1363  0235  3009               	movlw	9
  1364  0236  027B               	subwf	_uni,w
  1365  0237  1803               	skipnc
  1366  0238  2A3A               	goto	u1161
  1367  0239  2A3B               	goto	u1160
  1368  023A                     u1161:	
  1369  023A  2A51               	goto	l2689
  1370  023B                     u1160:	
  1371  023B                     l2685:	
  1372                           
  1373                           ;YL69_humedad.c: 211:             LCD_CURSOR(2,7);
  1374  023B  3002               	movlw	2
  1375  023C  00F6               	movwf	LCD_CURSOR@a
  1376  023D  3000               	movlw	0
  1377  023E  00F7               	movwf	LCD_CURSOR@a+1
  1378  023F  3007               	movlw	7
  1379  0240  00F8               	movwf	LCD_CURSOR@b
  1380  0241  3000               	movlw	0
  1381  0242  00F9               	movwf	LCD_CURSOR@b+1
  1382  0243  120A  118A  25EC  120A  118A  	fcall	_LCD_CURSOR
  1383  0248                     l2687:	
  1384                           
  1385                           ;YL69_humedad.c: 212:             LCD_STRING(" 70%");
  1386  0248  303A               	movlw	(low ((STR_11-__stringbase)| (0+32768)))& (0+255)
  1387  0249  00F4               	movwf	LCD_STRING@a
  1388  024A  3080               	movlw	128
  1389  024B  00F5               	movwf	LCD_STRING@a+1
  1390  024C  120A  118A  25A6  120A  118A  	fcall	_LCD_STRING
  1391  0251                     l2689:	
  1392                           
  1393                           ;YL69_humedad.c: 217:         if ( dec == 2 ){
  1394  0251  3002               	movlw	2
  1395  0252  067A               	xorwf	_dec,w
  1396  0253  1D03               	btfss	3,2
  1397  0254  2A56               	goto	u1171
  1398  0255  2A57               	goto	u1170
  1399  0256                     u1171:	
  1400  0256  2A73               	goto	l2697
  1401  0257                     u1170:	
  1402  0257                     l2691:	
  1403                           
  1404                           ;YL69_humedad.c: 218:             if(uni >= 0 && uni < 9 ){
  1405  0257  3009               	movlw	9
  1406  0258  027B               	subwf	_uni,w
  1407  0259  1803               	skipnc
  1408  025A  2A5C               	goto	u1181
  1409  025B  2A5D               	goto	u1180
  1410  025C                     u1181:	
  1411  025C  2A73               	goto	l2697
  1412  025D                     u1180:	
  1413  025D                     l2693:	
  1414                           
  1415                           ;YL69_humedad.c: 219:             LCD_CURSOR(2,7);
  1416  025D  3002               	movlw	2
  1417  025E  00F6               	movwf	LCD_CURSOR@a
  1418  025F  3000               	movlw	0
  1419  0260  00F7               	movwf	LCD_CURSOR@a+1
  1420  0261  3007               	movlw	7
  1421  0262  00F8               	movwf	LCD_CURSOR@b
  1422  0263  3000               	movlw	0
  1423  0264  00F9               	movwf	LCD_CURSOR@b+1
  1424  0265  120A  118A  25EC  120A  118A  	fcall	_LCD_CURSOR
  1425  026A                     l2695:	
  1426                           
  1427                           ;YL69_humedad.c: 220:             LCD_STRING(" 80%");
  1428  026A  303F               	movlw	(low ((STR_12-__stringbase)| (0+32768)))& (0+255)
  1429  026B  00F4               	movwf	LCD_STRING@a
  1430  026C  3080               	movlw	128
  1431  026D  00F5               	movwf	LCD_STRING@a+1
  1432  026E  120A  118A  25A6  120A  118A  	fcall	_LCD_STRING
  1433  0273                     l2697:	
  1434                           
  1435                           ;YL69_humedad.c: 225:         if ( dec == 1 ){
  1436  0273  037A               	decf	_dec,w
  1437  0274  1D03               	btfss	3,2
  1438  0275  2A77               	goto	u1191
  1439  0276  2A78               	goto	u1190
  1440  0277                     u1191:	
  1441  0277  2A94               	goto	l2705
  1442  0278                     u1190:	
  1443  0278                     l2699:	
  1444                           
  1445                           ;YL69_humedad.c: 226:             if(uni >= 0 && uni < 9 ){
  1446  0278  3009               	movlw	9
  1447  0279  027B               	subwf	_uni,w
  1448  027A  1803               	skipnc
  1449  027B  2A7D               	goto	u1201
  1450  027C  2A7E               	goto	u1200
  1451  027D                     u1201:	
  1452  027D  2A94               	goto	l2705
  1453  027E                     u1200:	
  1454  027E                     l2701:	
  1455                           
  1456                           ;YL69_humedad.c: 227:             LCD_CURSOR(2,7);
  1457  027E  3002               	movlw	2
  1458  027F  00F6               	movwf	LCD_CURSOR@a
  1459  0280  3000               	movlw	0
  1460  0281  00F7               	movwf	LCD_CURSOR@a+1
  1461  0282  3007               	movlw	7
  1462  0283  00F8               	movwf	LCD_CURSOR@b
  1463  0284  3000               	movlw	0
  1464  0285  00F9               	movwf	LCD_CURSOR@b+1
  1465  0286  120A  118A  25EC  120A  118A  	fcall	_LCD_CURSOR
  1466  028B                     l2703:	
  1467                           
  1468                           ;YL69_humedad.c: 228:             LCD_STRING(" 90%");
  1469  028B  3044               	movlw	(low ((STR_13-__stringbase)| (0+32768)))& (0+255)
  1470  028C  00F4               	movwf	LCD_STRING@a
  1471  028D  3080               	movlw	128
  1472  028E  00F5               	movwf	LCD_STRING@a+1
  1473  028F  120A  118A  25A6  120A  118A  	fcall	_LCD_STRING
  1474  0294                     l2705:	
  1475                           
  1476                           ;YL69_humedad.c: 233:         if ( dec == 0 ){
  1477  0294  087A               	movf	_dec,w
  1478  0295  1D03               	btfss	3,2
  1479  0296  2A98               	goto	u1211
  1480  0297  2A99               	goto	u1210
  1481  0298                     u1211:	
  1482  0298  2AB5               	goto	l2713
  1483  0299                     u1210:	
  1484  0299                     l2707:	
  1485                           
  1486                           ;YL69_humedad.c: 234:             if(uni >= 0 && uni < 9 ){
  1487  0299  3009               	movlw	9
  1488  029A  027B               	subwf	_uni,w
  1489  029B  1803               	skipnc
  1490  029C  2A9E               	goto	u1221
  1491  029D  2A9F               	goto	u1220
  1492  029E                     u1221:	
  1493  029E  2AB5               	goto	l2713
  1494  029F                     u1220:	
  1495  029F                     l2709:	
  1496                           
  1497                           ;YL69_humedad.c: 235:             LCD_CURSOR(2,7);
  1498  029F  3002               	movlw	2
  1499  02A0  00F6               	movwf	LCD_CURSOR@a
  1500  02A1  3000               	movlw	0
  1501  02A2  00F7               	movwf	LCD_CURSOR@a+1
  1502  02A3  3007               	movlw	7
  1503  02A4  00F8               	movwf	LCD_CURSOR@b
  1504  02A5  3000               	movlw	0
  1505  02A6  00F9               	movwf	LCD_CURSOR@b+1
  1506  02A7  120A  118A  25EC  120A  118A  	fcall	_LCD_CURSOR
  1507  02AC                     l2711:	
  1508                           
  1509                           ;YL69_humedad.c: 236:             LCD_STRING("100%");
  1510  02AC  3017               	movlw	(low ((STR_14-__stringbase)| (0+32768)))& (0+255)
  1511  02AD  00F4               	movwf	LCD_STRING@a
  1512  02AE  3080               	movlw	128
  1513  02AF  00F5               	movwf	LCD_STRING@a+1
  1514  02B0  120A  118A  25A6  120A  118A  	fcall	_LCD_STRING
  1515  02B5                     l2713:	
  1516                           
  1517                           ;YL69_humedad.c: 242:         if (cen == 0 ){
  1518  02B5  1283               	bcf	3,5	;RP0=0, select bank0
  1519  02B6  1303               	bcf	3,6	;RP1=0, select bank0
  1520  02B7  0834               	movf	_cen,w
  1521  02B8  1D03               	btfss	3,2
  1522  02B9  2ABB               	goto	u1231
  1523  02BA  2ABC               	goto	u1230
  1524  02BB                     u1231:	
  1525  02BB  2848               	goto	l2561
  1526  02BC                     u1230:	
  1527  02BC                     l2715:	
  1528                           
  1529                           ;YL69_humedad.c: 243:             if(dec == 0 && uni == 0 ){
  1530  02BC  087A               	movf	_dec,w
  1531  02BD  1D03               	btfss	3,2
  1532  02BE  2AC0               	goto	u1241
  1533  02BF  2AC1               	goto	u1240
  1534  02C0                     u1241:	
  1535  02C0  2848               	goto	l2561
  1536  02C1                     u1240:	
  1537  02C1                     l2717:	
  1538  02C1  087B               	movf	_uni,w
  1539  02C2  1D03               	btfss	3,2
  1540  02C3  2AC5               	goto	u1251
  1541  02C4  2AC6               	goto	u1250
  1542  02C5                     u1251:	
  1543  02C5  2848               	goto	l2561
  1544  02C6                     u1250:	
  1545  02C6                     l2719:	
  1546                           
  1547                           ;YL69_humedad.c: 244:             LCD_CURSOR(2,7);
  1548  02C6  3002               	movlw	2
  1549  02C7  00F6               	movwf	LCD_CURSOR@a
  1550  02C8  3000               	movlw	0
  1551  02C9  00F7               	movwf	LCD_CURSOR@a+1
  1552  02CA  3007               	movlw	7
  1553  02CB  00F8               	movwf	LCD_CURSOR@b
  1554  02CC  3000               	movlw	0
  1555  02CD  00F9               	movwf	LCD_CURSOR@b+1
  1556  02CE  120A  118A  25EC  120A  118A  	fcall	_LCD_CURSOR
  1557  02D3                     l2721:	
  1558                           
  1559                           ;YL69_humedad.c: 245:             LCD_STRING("100%");
  1560  02D3  3017               	movlw	(low ((STR_14-__stringbase)| (0+32768)))& (0+255)
  1561  02D4  00F4               	movwf	LCD_STRING@a
  1562  02D5  3080               	movlw	128
  1563  02D6  00F5               	movwf	LCD_STRING@a+1
  1564  02D7  120A  118A  25A6  120A  118A  	fcall	_LCD_STRING
  1565  02DC                     l2723:	
  1566                           
  1567                           ;YL69_humedad.c: 246:             PORTCbits.RC0 = 1;
  1568  02DC  1283               	bcf	3,5	;RP0=0, select bank0
  1569  02DD  1303               	bcf	3,6	;RP1=0, select bank0
  1570  02DE  1407               	bsf	7,0	;volatile
  1571  02DF                     l2725:	
  1572                           
  1573                           ;YL69_humedad.c: 247:             PORTCbits.RC1 = 0;
  1574  02DF  1087               	bcf	7,1	;volatile
  1575  02E0  2848               	goto	l2561
  1576  02E1  120A  118A  280C   	ljmp	start
  1577  02E4                     __end_of_main:	
  1578                           
  1579                           	psect	text1
  1580  0434                     __ptext1:	
  1581 ;; *************** function _uint_to_char *****************
  1582 ;; Defined at:
  1583 ;;		line 98 in file "Lib_LCD.c"
  1584 ;; Parameters:    Size  Location     Type
  1585 ;;  numero          1    wreg     unsigned char 
  1586 ;; Auto vars:     Size  Location     Type
  1587 ;;  numero          1    4[COMMON] unsigned char 
  1588 ;;  numChr          1    5[COMMON] unsigned char 
  1589 ;; Return value:  Size  Location     Type
  1590 ;;                  1    wreg      unsigned char 
  1591 ;; Registers used:
  1592 ;;		wreg, fsr0l, fsr0h, status,2, status,0
  1593 ;; Tracked objects:
  1594 ;;		On entry : 0/0
  1595 ;;		On exit  : 0/0
  1596 ;;		Unchanged: 0/0
  1597 ;; Data sizes:     COMMON   BANK0   BANK1   BANK3   BANK2
  1598 ;;      Params:         0       0       0       0       0
  1599 ;;      Locals:         2       0       0       0       0
  1600 ;;      Temps:          2       0       0       0       0
  1601 ;;      Totals:         4       0       0       0       0
  1602 ;;Total ram usage:        4 bytes
  1603 ;; Hardware stack levels used:    1
  1604 ;; Hardware stack levels required when called:    1
  1605 ;; This function calls:
  1606 ;;		Nothing
  1607 ;; This function is called by:
  1608 ;;		_main
  1609 ;; This function uses a non-reentrant model
  1610 ;;
  1611                           
  1612                           
  1613                           ;psect for function _uint_to_char
  1614  0434                     _uint_to_char:	
  1615                           
  1616                           ;incstack = 0
  1617                           ; Regs used in _uint_to_char: [wreg-fsr0h+status,2+status,0]
  1618                           ;uint_to_char@numero stored from wreg
  1619  0434  00F4               	movwf	uint_to_char@numero
  1620  0435                     l1893:	
  1621                           
  1622                           ;Lib_LCD.c: 100:     switch (numero){
  1623  0435  2C8B               	goto	l1929
  1624  0436                     l1895:	
  1625                           
  1626                           ;Lib_LCD.c: 102:             numChr = 48;
  1627  0436  3030               	movlw	48
  1628  0437  00F2               	movwf	??_uint_to_char
  1629  0438  0872               	movf	??_uint_to_char,w
  1630  0439  00F5               	movwf	uint_to_char@numChr
  1631                           
  1632                           ;Lib_LCD.c: 103:             break;
  1633  043A  2CC5               	goto	l1931
  1634  043B                     l1897:	
  1635                           
  1636                           ;Lib_LCD.c: 105:             numChr = 49;
  1637  043B  3031               	movlw	49
  1638  043C  00F2               	movwf	??_uint_to_char
  1639  043D  0872               	movf	??_uint_to_char,w
  1640  043E  00F5               	movwf	uint_to_char@numChr
  1641                           
  1642                           ;Lib_LCD.c: 106:             break;
  1643  043F  2CC5               	goto	l1931
  1644  0440                     l1899:	
  1645                           
  1646                           ;Lib_LCD.c: 108:             numChr = 50;
  1647  0440  3032               	movlw	50
  1648  0441  00F2               	movwf	??_uint_to_char
  1649  0442  0872               	movf	??_uint_to_char,w
  1650  0443  00F5               	movwf	uint_to_char@numChr
  1651                           
  1652                           ;Lib_LCD.c: 109:             break;
  1653  0444  2CC5               	goto	l1931
  1654  0445                     l1901:	
  1655                           
  1656                           ;Lib_LCD.c: 111:             numChr = 51;
  1657  0445  3033               	movlw	51
  1658  0446  00F2               	movwf	??_uint_to_char
  1659  0447  0872               	movf	??_uint_to_char,w
  1660  0448  00F5               	movwf	uint_to_char@numChr
  1661                           
  1662                           ;Lib_LCD.c: 112:             break;
  1663  0449  2CC5               	goto	l1931
  1664  044A                     l1903:	
  1665                           
  1666                           ;Lib_LCD.c: 114:             numChr = 52;
  1667  044A  3034               	movlw	52
  1668  044B  00F2               	movwf	??_uint_to_char
  1669  044C  0872               	movf	??_uint_to_char,w
  1670  044D  00F5               	movwf	uint_to_char@numChr
  1671                           
  1672                           ;Lib_LCD.c: 115:             break;
  1673  044E  2CC5               	goto	l1931
  1674  044F                     l1905:	
  1675                           
  1676                           ;Lib_LCD.c: 117:             numChr = 53;
  1677  044F  3035               	movlw	53
  1678  0450  00F2               	movwf	??_uint_to_char
  1679  0451  0872               	movf	??_uint_to_char,w
  1680  0452  00F5               	movwf	uint_to_char@numChr
  1681                           
  1682                           ;Lib_LCD.c: 118:             break;
  1683  0453  2CC5               	goto	l1931
  1684  0454                     l1907:	
  1685                           
  1686                           ;Lib_LCD.c: 120:             numChr = 54;
  1687  0454  3036               	movlw	54
  1688  0455  00F2               	movwf	??_uint_to_char
  1689  0456  0872               	movf	??_uint_to_char,w
  1690  0457  00F5               	movwf	uint_to_char@numChr
  1691                           
  1692                           ;Lib_LCD.c: 121:             break;
  1693  0458  2CC5               	goto	l1931
  1694  0459                     l1909:	
  1695                           
  1696                           ;Lib_LCD.c: 123:             numChr = 55;
  1697  0459  3037               	movlw	55
  1698  045A  00F2               	movwf	??_uint_to_char
  1699  045B  0872               	movf	??_uint_to_char,w
  1700  045C  00F5               	movwf	uint_to_char@numChr
  1701                           
  1702                           ;Lib_LCD.c: 124:             break;
  1703  045D  2CC5               	goto	l1931
  1704  045E                     l1911:	
  1705                           
  1706                           ;Lib_LCD.c: 126:             numChr = 56;
  1707  045E  3038               	movlw	56
  1708  045F  00F2               	movwf	??_uint_to_char
  1709  0460  0872               	movf	??_uint_to_char,w
  1710  0461  00F5               	movwf	uint_to_char@numChr
  1711                           
  1712                           ;Lib_LCD.c: 127:             break;
  1713  0462  2CC5               	goto	l1931
  1714  0463                     l1913:	
  1715                           
  1716                           ;Lib_LCD.c: 129:             numChr = 57;
  1717  0463  3039               	movlw	57
  1718  0464  00F2               	movwf	??_uint_to_char
  1719  0465  0872               	movf	??_uint_to_char,w
  1720  0466  00F5               	movwf	uint_to_char@numChr
  1721                           
  1722                           ;Lib_LCD.c: 130:             break;
  1723  0467  2CC5               	goto	l1931
  1724  0468                     l1915:	
  1725                           
  1726                           ;Lib_LCD.c: 132:             numChr = 65;
  1727  0468  3041               	movlw	65
  1728  0469  00F2               	movwf	??_uint_to_char
  1729  046A  0872               	movf	??_uint_to_char,w
  1730  046B  00F5               	movwf	uint_to_char@numChr
  1731                           
  1732                           ;Lib_LCD.c: 133:             break;
  1733  046C  2CC5               	goto	l1931
  1734  046D                     l1917:	
  1735                           
  1736                           ;Lib_LCD.c: 135:             numChr = 66;
  1737  046D  3042               	movlw	66
  1738  046E  00F2               	movwf	??_uint_to_char
  1739  046F  0872               	movf	??_uint_to_char,w
  1740  0470  00F5               	movwf	uint_to_char@numChr
  1741                           
  1742                           ;Lib_LCD.c: 136:             break;
  1743  0471  2CC5               	goto	l1931
  1744  0472                     l1919:	
  1745                           
  1746                           ;Lib_LCD.c: 138:             numChr = 67;
  1747  0472  3043               	movlw	67
  1748  0473  00F2               	movwf	??_uint_to_char
  1749  0474  0872               	movf	??_uint_to_char,w
  1750  0475  00F5               	movwf	uint_to_char@numChr
  1751                           
  1752                           ;Lib_LCD.c: 139:             break;
  1753  0476  2CC5               	goto	l1931
  1754  0477                     l1921:	
  1755                           
  1756                           ;Lib_LCD.c: 141:             numChr = 68;
  1757  0477  3044               	movlw	68
  1758  0478  00F2               	movwf	??_uint_to_char
  1759  0479  0872               	movf	??_uint_to_char,w
  1760  047A  00F5               	movwf	uint_to_char@numChr
  1761                           
  1762                           ;Lib_LCD.c: 142:             break;
  1763  047B  2CC5               	goto	l1931
  1764  047C                     l1923:	
  1765                           
  1766                           ;Lib_LCD.c: 144:             numChr = 69;
  1767  047C  3045               	movlw	69
  1768  047D  00F2               	movwf	??_uint_to_char
  1769  047E  0872               	movf	??_uint_to_char,w
  1770  047F  00F5               	movwf	uint_to_char@numChr
  1771                           
  1772                           ;Lib_LCD.c: 145:             break;
  1773  0480  2CC5               	goto	l1931
  1774  0481                     l1925:	
  1775                           
  1776                           ;Lib_LCD.c: 147:             numChr = 70;
  1777  0481  3046               	movlw	70
  1778  0482  00F2               	movwf	??_uint_to_char
  1779  0483  0872               	movf	??_uint_to_char,w
  1780  0484  00F5               	movwf	uint_to_char@numChr
  1781                           
  1782                           ;Lib_LCD.c: 148:             break;
  1783  0485  2CC5               	goto	l1931
  1784  0486                     l1927:	
  1785                           
  1786                           ;Lib_LCD.c: 150:             numChr = 214;
  1787  0486  30D6               	movlw	214
  1788  0487  00F2               	movwf	??_uint_to_char
  1789  0488  0872               	movf	??_uint_to_char,w
  1790  0489  00F5               	movwf	uint_to_char@numChr
  1791                           
  1792                           ;Lib_LCD.c: 151:     }
  1793  048A  2CC5               	goto	l1931
  1794  048B                     l1929:	
  1795  048B  0874               	movf	uint_to_char@numero,w
  1796  048C  00F2               	movwf	??_uint_to_char
  1797  048D  01F3               	clrf	??_uint_to_char+1
  1798                           
  1799                           ; Switch on 2 bytes has been partitioned into a top level switch of size 1, and 1 sub-sw
      +                          itches
  1800                           ; Switch size 1, requested type "simple"
  1801                           ; Number of cases is 1, Range of values is 0 to 0
  1802                           ; switch strategies available:
  1803                           ; Name         Instructions Cycles
  1804                           ; simple_byte            4     3 (average)
  1805                           ; direct_byte           11     8 (fixed)
  1806                           ; jumptable            260     6 (fixed)
  1807                           ;	Chosen strategy is simple_byte
  1808  048E  0873               	movf	??_uint_to_char+1,w
  1809  048F  3A00               	xorlw	0	; case 0
  1810  0490  1903               	skipnz
  1811  0491  2C93               	goto	l3095
  1812  0492  2C86               	goto	l1927
  1813  0493                     l3095:	
  1814                           
  1815                           ; Switch size 1, requested type "simple"
  1816                           ; Number of cases is 16, Range of values is 0 to 15
  1817                           ; switch strategies available:
  1818                           ; Name         Instructions Cycles
  1819                           ; simple_byte           49    25 (average)
  1820                           ; direct_byte           56     8 (fixed)
  1821                           ; jumptable            260     6 (fixed)
  1822                           ;	Chosen strategy is simple_byte
  1823  0493  0872               	movf	??_uint_to_char,w
  1824  0494  3A00               	xorlw	0	; case 0
  1825  0495  1903               	skipnz
  1826  0496  2C36               	goto	l1895
  1827  0497  3A01               	xorlw	1	; case 1
  1828  0498  1903               	skipnz
  1829  0499  2C3B               	goto	l1897
  1830  049A  3A03               	xorlw	3	; case 2
  1831  049B  1903               	skipnz
  1832  049C  2C40               	goto	l1899
  1833  049D  3A01               	xorlw	1	; case 3
  1834  049E  1903               	skipnz
  1835  049F  2C45               	goto	l1901
  1836  04A0  3A07               	xorlw	7	; case 4
  1837  04A1  1903               	skipnz
  1838  04A2  2C4A               	goto	l1903
  1839  04A3  3A01               	xorlw	1	; case 5
  1840  04A4  1903               	skipnz
  1841  04A5  2C4F               	goto	l1905
  1842  04A6  3A03               	xorlw	3	; case 6
  1843  04A7  1903               	skipnz
  1844  04A8  2C54               	goto	l1907
  1845  04A9  3A01               	xorlw	1	; case 7
  1846  04AA  1903               	skipnz
  1847  04AB  2C59               	goto	l1909
  1848  04AC  3A0F               	xorlw	15	; case 8
  1849  04AD  1903               	skipnz
  1850  04AE  2C5E               	goto	l1911
  1851  04AF  3A01               	xorlw	1	; case 9
  1852  04B0  1903               	skipnz
  1853  04B1  2C63               	goto	l1913
  1854  04B2  3A03               	xorlw	3	; case 10
  1855  04B3  1903               	skipnz
  1856  04B4  2C68               	goto	l1915
  1857  04B5  3A01               	xorlw	1	; case 11
  1858  04B6  1903               	skipnz
  1859  04B7  2C6D               	goto	l1917
  1860  04B8  3A07               	xorlw	7	; case 12
  1861  04B9  1903               	skipnz
  1862  04BA  2C72               	goto	l1919
  1863  04BB  3A01               	xorlw	1	; case 13
  1864  04BC  1903               	skipnz
  1865  04BD  2C77               	goto	l1921
  1866  04BE  3A03               	xorlw	3	; case 14
  1867  04BF  1903               	skipnz
  1868  04C0  2C7C               	goto	l1923
  1869  04C1  3A01               	xorlw	1	; case 15
  1870  04C2  1903               	skipnz
  1871  04C3  2C81               	goto	l1925
  1872  04C4  2C86               	goto	l1927
  1873  04C5                     l1931:	
  1874                           
  1875                           ;Lib_LCD.c: 152:     return(numChr);
  1876  04C5  0875               	movf	uint_to_char@numChr,w
  1877  04C6                     l238:	
  1878  04C6  0008               	return
  1879  04C7                     __end_of_uint_to_char:	
  1880                           
  1881                           	psect	text2
  1882  0390                     __ptext2:	
  1883 ;; *************** function _mapeo *****************
  1884 ;; Defined at:
  1885 ;;		line 366 in file "YL69_humedad.c"
  1886 ;; Parameters:    Size  Location     Type
  1887 ;;  valor           1    wreg     unsigned char 
  1888 ;;  limPIC          1    8[COMMON] unsigned char 
  1889 ;;  limFisico       1    9[COMMON] unsigned char 
  1890 ;; Auto vars:     Size  Location     Type
  1891 ;;  valor           1    4[BANK0 ] unsigned char 
  1892 ;;  result          6    5[BANK0 ] unsigned int [3]
  1893 ;;  dividendo       2   11[BANK0 ] unsigned int 
  1894 ;; Return value:  Size  Location     Type
  1895 ;;                  1    wreg      PTR unsigned int 
  1896 ;; Registers used:
  1897 ;;		wreg, fsr0l, fsr0h, status,2, status,0, btemp+1, pclath, cstack
  1898 ;; Tracked objects:
  1899 ;;		On entry : 0/0
  1900 ;;		On exit  : 0/0
  1901 ;;		Unchanged: 0/0
  1902 ;; Data sizes:     COMMON   BANK0   BANK1   BANK3   BANK2
  1903 ;;      Params:         2       0       0       0       0
  1904 ;;      Locals:         0       9       0       0       0
  1905 ;;      Temps:          0       4       0       0       0
  1906 ;;      Totals:         2      13       0       0       0
  1907 ;;Total ram usage:       15 bytes
  1908 ;; Hardware stack levels used:    1
  1909 ;; Hardware stack levels required when called:    2
  1910 ;; This function calls:
  1911 ;;		___wmul
  1912 ;; This function is called by:
  1913 ;;		_main
  1914 ;; This function uses a non-reentrant model
  1915 ;;
  1916                           
  1917                           
  1918                           ;psect for function _mapeo
  1919  0390                     _mapeo:	
  1920                           
  1921                           ;incstack = 0
  1922                           ; Regs used in _mapeo: [wreg-fsr0h+status,2+status,0+btemp+1+pclath+cstack]
  1923                           ;mapeo@valor stored from wreg
  1924  0390  1283               	bcf	3,5	;RP0=0, select bank0
  1925  0391  1303               	bcf	3,6	;RP1=0, select bank0
  1926  0392  00BA               	movwf	mapeo@valor
  1927  0393                     l1869:	
  1928                           
  1929                           ;YL69_humedad.c: 367:     uint16_t result[3] = {0,0,0};
  1930  0393  303B               	movlw	mapeo@result& (0+255)
  1931  0394  0084               	movwf	4
  1932  0395  3006               	movlw	6
  1933  0396  00FF               	movwf	btemp+1
  1934  0397                     u550:	
  1935  0397  1383               	bcf	3,7	;select IRP bank0
  1936  0398  0180               	clrf	0
  1937  0399  0A84               	incf	4,f
  1938  039A  0BFF               	decfsz	btemp+1,f
  1939  039B  2B97               	goto	u550
  1940  039C                     l1871:	
  1941                           
  1942                           ;YL69_humedad.c: 368:     uint16_t dividendo = valor*limFisico;
  1943  039C  083A               	movf	mapeo@valor,w
  1944  039D  00B6               	movwf	??_mapeo
  1945  039E  01B7               	clrf	??_mapeo+1
  1946  039F  0836               	movf	??_mapeo,w
  1947  03A0  00F2               	movwf	___wmul@multiplier
  1948  03A1  0837               	movf	??_mapeo+1,w
  1949  03A2  00F3               	movwf	___wmul@multiplier+1
  1950  03A3  0879               	movf	mapeo@limFisico,w
  1951  03A4  00B8               	movwf	??_mapeo+2
  1952  03A5  01B9               	clrf	??_mapeo+3
  1953  03A6  0838               	movf	??_mapeo+2,w
  1954  03A7  00F4               	movwf	___wmul@multiplicand
  1955  03A8  0839               	movf	??_mapeo+3,w
  1956  03A9  00F5               	movwf	___wmul@multiplicand+1
  1957  03AA  120A  118A  2642  120A  118A  	fcall	___wmul
  1958  03AF  0873               	movf	?___wmul+1,w
  1959  03B0  1283               	bcf	3,5	;RP0=0, select bank0
  1960  03B1  1303               	bcf	3,6	;RP1=0, select bank0
  1961  03B2  00C2               	movwf	mapeo@dividendo+1
  1962  03B3  0872               	movf	?___wmul,w
  1963  03B4  00C1               	movwf	mapeo@dividendo
  1964                           
  1965                           ;YL69_humedad.c: 369:     while (limPIC <= dividendo){
  1966  03B5  2BC5               	goto	l1875
  1967  03B6                     l1873:	
  1968                           
  1969                           ;YL69_humedad.c: 370:         result[0] = result[0] + 1;
  1970  03B6  083B               	movf	mapeo@result,w
  1971  03B7  3E01               	addlw	1
  1972  03B8  00BB               	movwf	mapeo@result
  1973  03B9  083C               	movf	mapeo@result+1,w
  1974  03BA  1803               	skipnc
  1975  03BB  3E01               	addlw	1
  1976  03BC  3E00               	addlw	0
  1977  03BD  00BC               	movwf	mapeo@result+1
  1978                           
  1979                           ;YL69_humedad.c: 371:         dividendo = dividendo - limPIC;
  1980  03BE  0878               	movf	mapeo@limPIC,w
  1981  03BF  0241               	subwf	mapeo@dividendo,w
  1982  03C0  00C1               	movwf	mapeo@dividendo
  1983  03C1  0842               	movf	mapeo@dividendo+1,w
  1984  03C2  1C03               	skipc
  1985  03C3  0342               	decf	mapeo@dividendo+1,w
  1986  03C4  00C2               	movwf	mapeo@dividendo+1
  1987  03C5                     l1875:	
  1988                           
  1989                           ;YL69_humedad.c: 369:     while (limPIC <= dividendo){
  1990  03C5  0878               	movf	mapeo@limPIC,w
  1991  03C6  00B6               	movwf	??_mapeo
  1992  03C7  01B7               	clrf	??_mapeo+1
  1993  03C8  0837               	movf	??_mapeo+1,w
  1994  03C9  0242               	subwf	mapeo@dividendo+1,w
  1995  03CA  1D03               	skipz
  1996  03CB  2BCE               	goto	u565
  1997  03CC  0836               	movf	??_mapeo,w
  1998  03CD  0241               	subwf	mapeo@dividendo,w
  1999  03CE                     u565:	
  2000  03CE  1803               	skipnc
  2001  03CF  2BD1               	goto	u561
  2002  03D0  2BD2               	goto	u560
  2003  03D1                     u561:	
  2004  03D1  2BB6               	goto	l1873
  2005  03D2                     u560:	
  2006  03D2                     l1877:	
  2007                           
  2008                           ;YL69_humedad.c: 373:     dividendo = dividendo *10;
  2009  03D2  0842               	movf	mapeo@dividendo+1,w
  2010  03D3  00F3               	movwf	___wmul@multiplier+1
  2011  03D4  0841               	movf	mapeo@dividendo,w
  2012  03D5  00F2               	movwf	___wmul@multiplier
  2013  03D6  300A               	movlw	10
  2014  03D7  00F4               	movwf	___wmul@multiplicand
  2015  03D8  3000               	movlw	0
  2016  03D9  00F5               	movwf	___wmul@multiplicand+1
  2017  03DA  120A  118A  2642  120A  118A  	fcall	___wmul
  2018  03DF  0873               	movf	?___wmul+1,w
  2019  03E0  1283               	bcf	3,5	;RP0=0, select bank0
  2020  03E1  1303               	bcf	3,6	;RP1=0, select bank0
  2021  03E2  00C2               	movwf	mapeo@dividendo+1
  2022  03E3  0872               	movf	?___wmul,w
  2023  03E4  00C1               	movwf	mapeo@dividendo
  2024                           
  2025                           ;YL69_humedad.c: 374:     while (limPIC <= dividendo){
  2026  03E5  2BF5               	goto	l1881
  2027  03E6                     l1879:	
  2028                           
  2029                           ;YL69_humedad.c: 375:         result[1] = result[1] +1;
  2030  03E6  083D               	movf	mapeo@result+2,w
  2031  03E7  3E01               	addlw	1
  2032  03E8  00BD               	movwf	mapeo@result+2
  2033  03E9  083E               	movf	mapeo@result+3,w
  2034  03EA  1803               	skipnc
  2035  03EB  3E01               	addlw	1
  2036  03EC  3E00               	addlw	0
  2037  03ED  00BE               	movwf	mapeo@result+3
  2038                           
  2039                           ;YL69_humedad.c: 376:         dividendo = dividendo - limPIC;
  2040  03EE  0878               	movf	mapeo@limPIC,w
  2041  03EF  0241               	subwf	mapeo@dividendo,w
  2042  03F0  00C1               	movwf	mapeo@dividendo
  2043  03F1  0842               	movf	mapeo@dividendo+1,w
  2044  03F2  1C03               	skipc
  2045  03F3  0342               	decf	mapeo@dividendo+1,w
  2046  03F4  00C2               	movwf	mapeo@dividendo+1
  2047  03F5                     l1881:	
  2048                           
  2049                           ;YL69_humedad.c: 374:     while (limPIC <= dividendo){
  2050  03F5  0878               	movf	mapeo@limPIC,w
  2051  03F6  00B6               	movwf	??_mapeo
  2052  03F7  01B7               	clrf	??_mapeo+1
  2053  03F8  0837               	movf	??_mapeo+1,w
  2054  03F9  0242               	subwf	mapeo@dividendo+1,w
  2055  03FA  1D03               	skipz
  2056  03FB  2BFE               	goto	u575
  2057  03FC  0836               	movf	??_mapeo,w
  2058  03FD  0241               	subwf	mapeo@dividendo,w
  2059  03FE                     u575:	
  2060  03FE  1803               	skipnc
  2061  03FF  2C01               	goto	u571
  2062  0400  2C02               	goto	u570
  2063  0401                     u571:	
  2064  0401  2BE6               	goto	l1879
  2065  0402                     u570:	
  2066  0402                     l1883:	
  2067                           
  2068                           ;YL69_humedad.c: 378:     dividendo = dividendo *10;
  2069  0402  0842               	movf	mapeo@dividendo+1,w
  2070  0403  00F3               	movwf	___wmul@multiplier+1
  2071  0404  0841               	movf	mapeo@dividendo,w
  2072  0405  00F2               	movwf	___wmul@multiplier
  2073  0406  300A               	movlw	10
  2074  0407  00F4               	movwf	___wmul@multiplicand
  2075  0408  3000               	movlw	0
  2076  0409  00F5               	movwf	___wmul@multiplicand+1
  2077  040A  120A  118A  2642  120A  118A  	fcall	___wmul
  2078  040F  0873               	movf	?___wmul+1,w
  2079  0410  1283               	bcf	3,5	;RP0=0, select bank0
  2080  0411  1303               	bcf	3,6	;RP1=0, select bank0
  2081  0412  00C2               	movwf	mapeo@dividendo+1
  2082  0413  0872               	movf	?___wmul,w
  2083  0414  00C1               	movwf	mapeo@dividendo
  2084                           
  2085                           ;YL69_humedad.c: 379:     while (limPIC <= dividendo){
  2086  0415  2C25               	goto	l1887
  2087  0416                     l1885:	
  2088                           
  2089                           ;YL69_humedad.c: 380:         result[2] = result[2] +1;
  2090  0416  083F               	movf	mapeo@result+4,w
  2091  0417  3E01               	addlw	1
  2092  0418  00BF               	movwf	mapeo@result+4
  2093  0419  0840               	movf	mapeo@result+5,w
  2094  041A  1803               	skipnc
  2095  041B  3E01               	addlw	1
  2096  041C  3E00               	addlw	0
  2097  041D  00C0               	movwf	mapeo@result+5
  2098                           
  2099                           ;YL69_humedad.c: 381:         dividendo = dividendo - limPIC;
  2100  041E  0878               	movf	mapeo@limPIC,w
  2101  041F  0241               	subwf	mapeo@dividendo,w
  2102  0420  00C1               	movwf	mapeo@dividendo
  2103  0421  0842               	movf	mapeo@dividendo+1,w
  2104  0422  1C03               	skipc
  2105  0423  0342               	decf	mapeo@dividendo+1,w
  2106  0424  00C2               	movwf	mapeo@dividendo+1
  2107  0425                     l1887:	
  2108                           
  2109                           ;YL69_humedad.c: 379:     while (limPIC <= dividendo){
  2110  0425  0878               	movf	mapeo@limPIC,w
  2111  0426  00B6               	movwf	??_mapeo
  2112  0427  01B7               	clrf	??_mapeo+1
  2113  0428  0837               	movf	??_mapeo+1,w
  2114  0429  0242               	subwf	mapeo@dividendo+1,w
  2115  042A  1D03               	skipz
  2116  042B  2C2E               	goto	u585
  2117  042C  0836               	movf	??_mapeo,w
  2118  042D  0241               	subwf	mapeo@dividendo,w
  2119  042E                     u585:	
  2120  042E  1803               	skipnc
  2121  042F  2C31               	goto	u581
  2122  0430  2C32               	goto	u580
  2123  0431                     u581:	
  2124  0431  2C16               	goto	l1885
  2125  0432                     u580:	
  2126  0432                     l1889:	
  2127                           
  2128                           ;YL69_humedad.c: 384:     return(result);
  2129  0432  303B               	movlw	(low (mapeo@result| 0))& (0+255)
  2130  0433                     l182:	
  2131  0433  0008               	return
  2132  0434                     __end_of_mapeo:	
  2133                           
  2134                           	psect	text3
  2135  0642                     __ptext3:	
  2136 ;; *************** function ___wmul *****************
  2137 ;; Defined at:
  2138 ;;		line 15 in file "C:\Program Files (x86)\Microchip\xc8\v2.10\pic\sources\c90\common\Umul16.c"
  2139 ;; Parameters:    Size  Location     Type
  2140 ;;  multiplier      2    2[COMMON] unsigned int 
  2141 ;;  multiplicand    2    4[COMMON] unsigned int 
  2142 ;; Auto vars:     Size  Location     Type
  2143 ;;  product         2    6[COMMON] unsigned int 
  2144 ;; Return value:  Size  Location     Type
  2145 ;;                  2    2[COMMON] unsigned int 
  2146 ;; Registers used:
  2147 ;;		wreg, status,2, status,0
  2148 ;; Tracked objects:
  2149 ;;		On entry : 0/0
  2150 ;;		On exit  : 0/0
  2151 ;;		Unchanged: 0/0
  2152 ;; Data sizes:     COMMON   BANK0   BANK1   BANK3   BANK2
  2153 ;;      Params:         4       0       0       0       0
  2154 ;;      Locals:         2       0       0       0       0
  2155 ;;      Temps:          0       0       0       0       0
  2156 ;;      Totals:         6       0       0       0       0
  2157 ;;Total ram usage:        6 bytes
  2158 ;; Hardware stack levels used:    1
  2159 ;; Hardware stack levels required when called:    1
  2160 ;; This function calls:
  2161 ;;		Nothing
  2162 ;; This function is called by:
  2163 ;;		_mapeo
  2164 ;; This function uses a non-reentrant model
  2165 ;;
  2166                           
  2167                           
  2168                           ;psect for function ___wmul
  2169  0642                     ___wmul:	
  2170  0642                     l1769:	
  2171                           ;incstack = 0
  2172                           ; Regs used in ___wmul: [wreg+status,2+status,0]
  2173                           
  2174  0642  01F6               	clrf	___wmul@product
  2175  0643  01F7               	clrf	___wmul@product+1
  2176  0644                     l1771:	
  2177  0644  1C72               	btfss	___wmul@multiplier,0
  2178  0645  2E47               	goto	u461
  2179  0646  2E48               	goto	u460
  2180  0647                     u461:	
  2181  0647  2E4E               	goto	l324
  2182  0648                     u460:	
  2183  0648                     l1773:	
  2184  0648  0874               	movf	___wmul@multiplicand,w
  2185  0649  07F6               	addwf	___wmul@product,f
  2186  064A  1803               	skipnc
  2187  064B  0AF7               	incf	___wmul@product+1,f
  2188  064C  0875               	movf	___wmul@multiplicand+1,w
  2189  064D  07F7               	addwf	___wmul@product+1,f
  2190  064E                     l324:	
  2191  064E  3001               	movlw	1
  2192  064F                     u475:	
  2193  064F  1003               	clrc
  2194  0650  0DF4               	rlf	___wmul@multiplicand,f
  2195  0651  0DF5               	rlf	___wmul@multiplicand+1,f
  2196  0652  3EFF               	addlw	-1
  2197  0653  1D03               	skipz
  2198  0654  2E4F               	goto	u475
  2199  0655                     l1775:	
  2200  0655  3001               	movlw	1
  2201  0656                     u485:	
  2202  0656  1003               	clrc
  2203  0657  0CF3               	rrf	___wmul@multiplier+1,f
  2204  0658  0CF2               	rrf	___wmul@multiplier,f
  2205  0659  3EFF               	addlw	-1
  2206  065A  1D03               	skipz
  2207  065B  2E56               	goto	u485
  2208  065C                     l1777:	
  2209  065C  0872               	movf	___wmul@multiplier,w
  2210  065D  0473               	iorwf	___wmul@multiplier+1,w
  2211  065E  1D03               	btfss	3,2
  2212  065F  2E61               	goto	u491
  2213  0660  2E62               	goto	u490
  2214  0661                     u491:	
  2215  0661  2E44               	goto	l1771
  2216  0662                     u490:	
  2217  0662                     l1779:	
  2218  0662  0877               	movf	___wmul@product+1,w
  2219  0663  00F3               	movwf	?___wmul+1
  2220  0664  0876               	movf	___wmul@product,w
  2221  0665  00F2               	movwf	?___wmul
  2222  0666                     l326:	
  2223  0666  0008               	return
  2224  0667                     __end_of___wmul:	
  2225                           
  2226                           	psect	text4
  2227  0619                     __ptext4:	
  2228 ;; *************** function _config_PORTS *****************
  2229 ;; Defined at:
  2230 ;;		line 272 in file "YL69_humedad.c"
  2231 ;; Parameters:    Size  Location     Type
  2232 ;;		None
  2233 ;; Auto vars:     Size  Location     Type
  2234 ;;		None
  2235 ;; Return value:  Size  Location     Type
  2236 ;;                  1    wreg      void 
  2237 ;; Registers used:
  2238 ;;		wreg, fsr0l, fsr0h, status,2, status,0, pclath, cstack
  2239 ;; Tracked objects:
  2240 ;;		On entry : 0/0
  2241 ;;		On exit  : 0/0
  2242 ;;		Unchanged: 0/0
  2243 ;; Data sizes:     COMMON   BANK0   BANK1   BANK3   BANK2
  2244 ;;      Params:         0       0       0       0       0
  2245 ;;      Locals:         0       0       0       0       0
  2246 ;;      Temps:          0       0       0       0       0
  2247 ;;      Totals:         0       0       0       0       0
  2248 ;;Total ram usage:        0 bytes
  2249 ;; Hardware stack levels used:    1
  2250 ;; Hardware stack levels required when called:    2
  2251 ;; This function calls:
  2252 ;;		_OSC_config
  2253 ;; This function is called by:
  2254 ;;		_main
  2255 ;; This function uses a non-reentrant model
  2256 ;;
  2257                           
  2258                           
  2259                           ;psect for function _config_PORTS
  2260  0619                     _config_PORTS:	
  2261  0619                     l1783:	
  2262                           ;incstack = 0
  2263                           ; Regs used in _config_PORTS: [wreg-fsr0h+status,2+status,0+pclath+cstack]
  2264                           
  2265                           
  2266                           ;YL69_humedad.c: 273:     OSC_config(1000000);
  2267  0619  3000               	movlw	0
  2268  061A  00F5               	movwf	OSC_config@frecuencia+3
  2269  061B  300F               	movlw	15
  2270  061C  00F4               	movwf	OSC_config@frecuencia+2
  2271  061D  3042               	movlw	66
  2272  061E  00F3               	movwf	OSC_config@frecuencia+1
  2273  061F  3040               	movlw	64
  2274  0620  00F2               	movwf	OSC_config@frecuencia
  2275  0621  120A  118A  22E4  120A  118A  	fcall	_OSC_config
  2276  0626                     l1785:	
  2277                           
  2278                           ;YL69_humedad.c: 274:     TRISD = 0x00;
  2279  0626  1683               	bsf	3,5	;RP0=1, select bank1
  2280  0627  1303               	bcf	3,6	;RP1=0, select bank1
  2281  0628  0188               	clrf	8	;volatile
  2282  0629                     l1787:	
  2283                           
  2284                           ;YL69_humedad.c: 275:     TRISC = 0x00;
  2285  0629  0187               	clrf	7	;volatile
  2286  062A                     l1789:	
  2287                           
  2288                           ;YL69_humedad.c: 276:     TRISA = 0b00000001;
  2289  062A  3001               	movlw	1
  2290  062B  0085               	movwf	5	;volatile
  2291  062C                     l1791:	
  2292                           
  2293                           ;YL69_humedad.c: 277:     ANSELbits.ANS5 = 0;
  2294  062C  1683               	bsf	3,5	;RP0=1, select bank3
  2295  062D  1703               	bsf	3,6	;RP1=1, select bank3
  2296  062E  1288               	bcf	8,5	;volatile
  2297  062F                     l1793:	
  2298                           
  2299                           ;YL69_humedad.c: 278:     ANSELbits.ANS6 = 0;
  2300  062F  1308               	bcf	8,6	;volatile
  2301  0630                     l1795:	
  2302                           
  2303                           ;YL69_humedad.c: 279:     ANSELbits.ANS7 = 0;
  2304  0630  1388               	bcf	8,7	;volatile
  2305  0631                     l1797:	
  2306                           
  2307                           ;YL69_humedad.c: 281:     ANSELbits.ANS3 = 0;
  2308  0631  1188               	bcf	8,3	;volatile
  2309  0632                     l1799:	
  2310                           
  2311                           ;YL69_humedad.c: 282:     ANSELbits.ANS4 = 0;
  2312  0632  1208               	bcf	8,4	;volatile
  2313  0633                     l1801:	
  2314                           
  2315                           ;YL69_humedad.c: 283:     TRISAbits.TRISA3 = 0;
  2316  0633  1683               	bsf	3,5	;RP0=1, select bank1
  2317  0634  1303               	bcf	3,6	;RP1=0, select bank1
  2318  0635  1185               	bcf	5,3	;volatile
  2319  0636                     l1803:	
  2320                           
  2321                           ;YL69_humedad.c: 284:     TRISAbits.TRISA4 = 0;
  2322  0636  1205               	bcf	5,4	;volatile
  2323  0637                     l1805:	
  2324                           
  2325                           ;YL69_humedad.c: 285:     TRISB = 0;
  2326  0637  0186               	clrf	6	;volatile
  2327  0638                     l1807:	
  2328                           
  2329                           ;YL69_humedad.c: 286:     TRISE = 0xFF;
  2330  0638  30FF               	movlw	255
  2331  0639  0089               	movwf	9	;volatile
  2332  063A                     l1809:	
  2333                           
  2334                           ;YL69_humedad.c: 288:     PORTA = 0x00;
  2335  063A  1283               	bcf	3,5	;RP0=0, select bank0
  2336  063B  1303               	bcf	3,6	;RP1=0, select bank0
  2337  063C  0185               	clrf	5	;volatile
  2338  063D                     l1811:	
  2339                           
  2340                           ;YL69_humedad.c: 289:     PORTB = 0x00;
  2341  063D  0186               	clrf	6	;volatile
  2342  063E                     l1813:	
  2343                           
  2344                           ;YL69_humedad.c: 290:     PORTC = 0x00;
  2345  063E  0187               	clrf	7	;volatile
  2346  063F                     l1815:	
  2347                           
  2348                           ;YL69_humedad.c: 291:     PORTD = 0x00;
  2349  063F  0188               	clrf	8	;volatile
  2350  0640                     l1817:	
  2351                           
  2352                           ;YL69_humedad.c: 292:     PORTE = 0x00;
  2353  0640  0189               	clrf	9	;volatile
  2354  0641                     l145:	
  2355  0641  0008               	return
  2356  0642                     __end_of_config_PORTS:	
  2357                           
  2358                           	psect	text5
  2359  02E4                     __ptext5:	
  2360 ;; *************** function _OSC_config *****************
  2361 ;; Defined at:
  2362 ;;		line 323 in file "YL69_humedad.c"
  2363 ;; Parameters:    Size  Location     Type
  2364 ;;  frecuencia      4    2[COMMON] unsigned long 
  2365 ;; Auto vars:     Size  Location     Type
  2366 ;;		None
  2367 ;; Return value:  Size  Location     Type
  2368 ;;                  1    wreg      void 
  2369 ;; Registers used:
  2370 ;;		wreg, fsr0l, fsr0h, status,2, status,0
  2371 ;; Tracked objects:
  2372 ;;		On entry : 0/0
  2373 ;;		On exit  : 0/0
  2374 ;;		Unchanged: 0/0
  2375 ;; Data sizes:     COMMON   BANK0   BANK1   BANK3   BANK2
  2376 ;;      Params:         4       0       0       0       0
  2377 ;;      Locals:         0       0       0       0       0
  2378 ;;      Temps:          0       0       0       0       0
  2379 ;;      Totals:         4       0       0       0       0
  2380 ;;Total ram usage:        4 bytes
  2381 ;; Hardware stack levels used:    1
  2382 ;; Hardware stack levels required when called:    1
  2383 ;; This function calls:
  2384 ;;		Nothing
  2385 ;; This function is called by:
  2386 ;;		_config_PORTS
  2387 ;; This function uses a non-reentrant model
  2388 ;;
  2389                           
  2390                           
  2391                           ;psect for function _OSC_config
  2392  02E4                     _OSC_config:	
  2393  02E4                     l1671:	
  2394                           ;incstack = 0
  2395                           ; Regs used in _OSC_config: [wreg-fsr0h+status,2+status,0]
  2396                           
  2397                           
  2398                           ;YL69_humedad.c: 324:     switch(frecuencia){
  2399  02E4  2B20               	goto	l1691
  2400  02E5                     l1673:	
  2401                           
  2402                           ;YL69_humedad.c: 326:             OSCCONbits.IRCF = 0b111;
  2403  02E5  3070               	movlw	112
  2404  02E6  1683               	bsf	3,5	;RP0=1, select bank1
  2405  02E7  1303               	bcf	3,6	;RP1=0, select bank1
  2406  02E8  048F               	iorwf	15,f	;volatile
  2407                           
  2408                           ;YL69_humedad.c: 327:             break;
  2409  02E9  2B8F               	goto	l162
  2410  02EA                     l1675:	
  2411                           
  2412                           ;YL69_humedad.c: 329:             OSCCONbits.IRCF = 0b110;
  2413  02EA  1683               	bsf	3,5	;RP0=1, select bank1
  2414  02EB  1303               	bcf	3,6	;RP1=0, select bank1
  2415  02EC  080F               	movf	15,w	;volatile
  2416  02ED  398F               	andlw	-113
  2417  02EE  3860               	iorlw	96
  2418  02EF  008F               	movwf	15	;volatile
  2419                           
  2420                           ;YL69_humedad.c: 330:             break;
  2421  02F0  2B8F               	goto	l162
  2422  02F1                     l1677:	
  2423                           
  2424                           ;YL69_humedad.c: 332:             OSCCONbits.IRCF = 0b101;
  2425  02F1  1683               	bsf	3,5	;RP0=1, select bank1
  2426  02F2  1303               	bcf	3,6	;RP1=0, select bank1
  2427  02F3  080F               	movf	15,w	;volatile
  2428  02F4  398F               	andlw	-113
  2429  02F5  3850               	iorlw	80
  2430  02F6  008F               	movwf	15	;volatile
  2431                           
  2432                           ;YL69_humedad.c: 333:             break;
  2433  02F7  2B8F               	goto	l162
  2434  02F8                     l1679:	
  2435                           
  2436                           ;YL69_humedad.c: 335:             OSCCONbits.IRCF = 0b100;
  2437  02F8  1683               	bsf	3,5	;RP0=1, select bank1
  2438  02F9  1303               	bcf	3,6	;RP1=0, select bank1
  2439  02FA  080F               	movf	15,w	;volatile
  2440  02FB  398F               	andlw	-113
  2441  02FC  3840               	iorlw	64
  2442  02FD  008F               	movwf	15	;volatile
  2443                           
  2444                           ;YL69_humedad.c: 336:             break;
  2445  02FE  2B8F               	goto	l162
  2446  02FF                     l1681:	
  2447                           
  2448                           ;YL69_humedad.c: 338:             OSCCONbits.IRCF = 0b011;
  2449  02FF  1683               	bsf	3,5	;RP0=1, select bank1
  2450  0300  1303               	bcf	3,6	;RP1=0, select bank1
  2451  0301  080F               	movf	15,w	;volatile
  2452  0302  398F               	andlw	-113
  2453  0303  3830               	iorlw	48
  2454  0304  008F               	movwf	15	;volatile
  2455                           
  2456                           ;YL69_humedad.c: 339:             break;
  2457  0305  2B8F               	goto	l162
  2458  0306                     l1683:	
  2459                           
  2460                           ;YL69_humedad.c: 341:             OSCCONbits.IRCF = 0b010;
  2461  0306  1683               	bsf	3,5	;RP0=1, select bank1
  2462  0307  1303               	bcf	3,6	;RP1=0, select bank1
  2463  0308  080F               	movf	15,w	;volatile
  2464  0309  398F               	andlw	-113
  2465  030A  3820               	iorlw	32
  2466  030B  008F               	movwf	15	;volatile
  2467                           
  2468                           ;YL69_humedad.c: 342:             break;
  2469  030C  2B8F               	goto	l162
  2470  030D                     l1685:	
  2471                           
  2472                           ;YL69_humedad.c: 344:             OSCCONbits.IRCF = 0b001;
  2473  030D  1683               	bsf	3,5	;RP0=1, select bank1
  2474  030E  1303               	bcf	3,6	;RP1=0, select bank1
  2475  030F  080F               	movf	15,w	;volatile
  2476  0310  398F               	andlw	-113
  2477  0311  3810               	iorlw	16
  2478  0312  008F               	movwf	15	;volatile
  2479                           
  2480                           ;YL69_humedad.c: 345:             break;
  2481  0313  2B8F               	goto	l162
  2482  0314                     l1687:	
  2483                           
  2484                           ;YL69_humedad.c: 347:             OSCCONbits.IRCF = 0b000;
  2485  0314  308F               	movlw	-113
  2486  0315  1683               	bsf	3,5	;RP0=1, select bank1
  2487  0316  1303               	bcf	3,6	;RP1=0, select bank1
  2488  0317  058F               	andwf	15,f	;volatile
  2489                           
  2490                           ;YL69_humedad.c: 348:             break;
  2491  0318  2B8F               	goto	l162
  2492  0319                     l1689:	
  2493                           
  2494                           ;YL69_humedad.c: 350:             OSCCONbits.IRCF = 0b110;
  2495  0319  1683               	bsf	3,5	;RP0=1, select bank1
  2496  031A  1303               	bcf	3,6	;RP1=0, select bank1
  2497  031B  080F               	movf	15,w	;volatile
  2498  031C  398F               	andlw	-113
  2499  031D  3860               	iorlw	96
  2500  031E  008F               	movwf	15	;volatile
  2501                           
  2502                           ;YL69_humedad.c: 351:     }
  2503  031F  2B8F               	goto	l162
  2504  0320                     l1691:	
  2505                           
  2506                           ; Switch on 2 bytes has been partitioned into a top level switch of size 1, and 9 sub-sw
      +                          itches
  2507                           ; Switch size 1, requested type "simple"
  2508                           ; Number of cases is 1, Range of values is 0 to 0
  2509                           ; switch strategies available:
  2510                           ; Name         Instructions Cycles
  2511                           ; simple_byte            4     3 (average)
  2512                           ; direct_byte           11     8 (fixed)
  2513                           ; jumptable            260     6 (fixed)
  2514                           ;	Chosen strategy is simple_byte
  2515  0320  0875               	movf	OSC_config@frecuencia+3,w
  2516  0321  3A00               	xorlw	0	; case 0
  2517  0322  1903               	skipnz
  2518  0323  2B75               	goto	l3113
  2519  0324  2B19               	goto	l1689
  2520  0325                     l3097:	
  2521                           
  2522                           ; Switch on 2 bytes has been partitioned into a top level switch of size 1, and 1 sub-sw
      +                          itches
  2523                           ; Switch size 1, requested type "simple"
  2524                           ; Number of cases is 1, Range of values is 125 to 125
  2525                           ; switch strategies available:
  2526                           ; Name         Instructions Cycles
  2527                           ; simple_byte            4     3 (average)
  2528                           ; direct_byte           14    11 (fixed)
  2529                           ; jumptable            263     9 (fixed)
  2530                           ;	Chosen strategy is simple_byte
  2531  0325  0873               	movf	OSC_config@frecuencia+1,w
  2532  0326  3A7D               	xorlw	125	; case 125
  2533  0327  1903               	skipnz
  2534  0328  2B2A               	goto	l3115
  2535  0329  2B19               	goto	l1689
  2536  032A                     l3115:	
  2537                           
  2538                           ; Switch size 1, requested type "simple"
  2539                           ; Number of cases is 1, Range of values is 0 to 0
  2540                           ; switch strategies available:
  2541                           ; Name         Instructions Cycles
  2542                           ; simple_byte            4     3 (average)
  2543                           ; direct_byte           11     8 (fixed)
  2544                           ; jumptable            260     6 (fixed)
  2545                           ;	Chosen strategy is simple_byte
  2546  032A  0872               	movf	OSC_config@frecuencia,w
  2547  032B  3A00               	xorlw	0	; case 0
  2548  032C  1903               	skipnz
  2549  032D  2B14               	goto	l1687
  2550  032E  2B19               	goto	l1689
  2551  032F                     l3099:	
  2552                           
  2553                           ; Switch on 2 bytes has been partitioned into a top level switch of size 1, and 1 sub-sw
      +                          itches
  2554                           ; Switch size 1, requested type "simple"
  2555                           ; Number of cases is 1, Range of values is 232 to 232
  2556                           ; switch strategies available:
  2557                           ; Name         Instructions Cycles
  2558                           ; simple_byte            4     3 (average)
  2559                           ; direct_byte           14    11 (fixed)
  2560                           ; jumptable            263     9 (fixed)
  2561                           ;	Chosen strategy is simple_byte
  2562  032F  0873               	movf	OSC_config@frecuencia+1,w
  2563  0330  3AE8               	xorlw	232	; case 232
  2564  0331  1903               	skipnz
  2565  0332  2B34               	goto	l3117
  2566  0333  2B19               	goto	l1689
  2567  0334                     l3117:	
  2568                           
  2569                           ; Switch size 1, requested type "simple"
  2570                           ; Number of cases is 1, Range of values is 72 to 72
  2571                           ; switch strategies available:
  2572                           ; Name         Instructions Cycles
  2573                           ; simple_byte            4     3 (average)
  2574                           ; direct_byte           14    11 (fixed)
  2575                           ; jumptable            263     9 (fixed)
  2576                           ;	Chosen strategy is simple_byte
  2577  0334  0872               	movf	OSC_config@frecuencia,w
  2578  0335  3A48               	xorlw	72	; case 72
  2579  0336  1903               	skipnz
  2580  0337  2B0D               	goto	l1685
  2581  0338  2B19               	goto	l1689
  2582  0339                     l3101:	
  2583                           
  2584                           ; Switch on 2 bytes has been partitioned into a top level switch of size 1, and 1 sub-sw
      +                          itches
  2585                           ; Switch size 1, requested type "simple"
  2586                           ; Number of cases is 1, Range of values is 208 to 208
  2587                           ; switch strategies available:
  2588                           ; Name         Instructions Cycles
  2589                           ; simple_byte            4     3 (average)
  2590                           ; direct_byte           14    11 (fixed)
  2591                           ; jumptable            263     9 (fixed)
  2592                           ;	Chosen strategy is simple_byte
  2593  0339  0873               	movf	OSC_config@frecuencia+1,w
  2594  033A  3AD0               	xorlw	208	; case 208
  2595  033B  1903               	skipnz
  2596  033C  2B3E               	goto	l3119
  2597  033D  2B19               	goto	l1689
  2598  033E                     l3119:	
  2599                           
  2600                           ; Switch size 1, requested type "simple"
  2601                           ; Number of cases is 1, Range of values is 144 to 144
  2602                           ; switch strategies available:
  2603                           ; Name         Instructions Cycles
  2604                           ; simple_byte            4     3 (average)
  2605                           ; direct_byte           14    11 (fixed)
  2606                           ; jumptable            263     9 (fixed)
  2607                           ;	Chosen strategy is simple_byte
  2608  033E  0872               	movf	OSC_config@frecuencia,w
  2609  033F  3A90               	xorlw	144	; case 144
  2610  0340  1903               	skipnz
  2611  0341  2B06               	goto	l1683
  2612  0342  2B19               	goto	l1689
  2613  0343                     l3103:	
  2614                           
  2615                           ; Switch on 2 bytes has been partitioned into a top level switch of size 1, and 1 sub-sw
      +                          itches
  2616                           ; Switch size 1, requested type "simple"
  2617                           ; Number of cases is 1, Range of values is 161 to 161
  2618                           ; switch strategies available:
  2619                           ; Name         Instructions Cycles
  2620                           ; simple_byte            4     3 (average)
  2621                           ; direct_byte           14    11 (fixed)
  2622                           ; jumptable            263     9 (fixed)
  2623                           ;	Chosen strategy is simple_byte
  2624  0343  0873               	movf	OSC_config@frecuencia+1,w
  2625  0344  3AA1               	xorlw	161	; case 161
  2626  0345  1903               	skipnz
  2627  0346  2B48               	goto	l3121
  2628  0347  2B19               	goto	l1689
  2629  0348                     l3121:	
  2630                           
  2631                           ; Switch size 1, requested type "simple"
  2632                           ; Number of cases is 1, Range of values is 32 to 32
  2633                           ; switch strategies available:
  2634                           ; Name         Instructions Cycles
  2635                           ; simple_byte            4     3 (average)
  2636                           ; direct_byte           14    11 (fixed)
  2637                           ; jumptable            263     9 (fixed)
  2638                           ;	Chosen strategy is simple_byte
  2639  0348  0872               	movf	OSC_config@frecuencia,w
  2640  0349  3A20               	xorlw	32	; case 32
  2641  034A  1903               	skipnz
  2642  034B  2AFF               	goto	l1681
  2643  034C  2B19               	goto	l1689
  2644  034D                     l3105:	
  2645                           
  2646                           ; Switch on 2 bytes has been partitioned into a top level switch of size 1, and 1 sub-sw
      +                          itches
  2647                           ; Switch size 1, requested type "simple"
  2648                           ; Number of cases is 1, Range of values is 66 to 66
  2649                           ; switch strategies available:
  2650                           ; Name         Instructions Cycles
  2651                           ; simple_byte            4     3 (average)
  2652                           ; direct_byte           14    11 (fixed)
  2653                           ; jumptable            263     9 (fixed)
  2654                           ;	Chosen strategy is simple_byte
  2655  034D  0873               	movf	OSC_config@frecuencia+1,w
  2656  034E  3A42               	xorlw	66	; case 66
  2657  034F  1903               	skipnz
  2658  0350  2B52               	goto	l3123
  2659  0351  2B19               	goto	l1689
  2660  0352                     l3123:	
  2661                           
  2662                           ; Switch size 1, requested type "simple"
  2663                           ; Number of cases is 1, Range of values is 64 to 64
  2664                           ; switch strategies available:
  2665                           ; Name         Instructions Cycles
  2666                           ; simple_byte            4     3 (average)
  2667                           ; direct_byte           14    11 (fixed)
  2668                           ; jumptable            263     9 (fixed)
  2669                           ;	Chosen strategy is simple_byte
  2670  0352  0872               	movf	OSC_config@frecuencia,w
  2671  0353  3A40               	xorlw	64	; case 64
  2672  0354  1903               	skipnz
  2673  0355  2AF8               	goto	l1679
  2674  0356  2B19               	goto	l1689
  2675  0357                     l3107:	
  2676                           
  2677                           ; Switch on 2 bytes has been partitioned into a top level switch of size 1, and 1 sub-sw
      +                          itches
  2678                           ; Switch size 1, requested type "simple"
  2679                           ; Number of cases is 1, Range of values is 132 to 132
  2680                           ; switch strategies available:
  2681                           ; Name         Instructions Cycles
  2682                           ; simple_byte            4     3 (average)
  2683                           ; direct_byte           14    11 (fixed)
  2684                           ; jumptable            263     9 (fixed)
  2685                           ;	Chosen strategy is simple_byte
  2686  0357  0873               	movf	OSC_config@frecuencia+1,w
  2687  0358  3A84               	xorlw	132	; case 132
  2688  0359  1903               	skipnz
  2689  035A  2B5C               	goto	l3125
  2690  035B  2B19               	goto	l1689
  2691  035C                     l3125:	
  2692                           
  2693                           ; Switch size 1, requested type "simple"
  2694                           ; Number of cases is 1, Range of values is 128 to 128
  2695                           ; switch strategies available:
  2696                           ; Name         Instructions Cycles
  2697                           ; simple_byte            4     3 (average)
  2698                           ; direct_byte           14    11 (fixed)
  2699                           ; jumptable            263     9 (fixed)
  2700                           ;	Chosen strategy is simple_byte
  2701  035C  0872               	movf	OSC_config@frecuencia,w
  2702  035D  3A80               	xorlw	128	; case 128
  2703  035E  1903               	skipnz
  2704  035F  2AF1               	goto	l1677
  2705  0360  2B19               	goto	l1689
  2706  0361                     l3109:	
  2707                           
  2708                           ; Switch on 2 bytes has been partitioned into a top level switch of size 1, and 1 sub-sw
      +                          itches
  2709                           ; Switch size 1, requested type "simple"
  2710                           ; Number of cases is 1, Range of values is 9 to 9
  2711                           ; switch strategies available:
  2712                           ; Name         Instructions Cycles
  2713                           ; simple_byte            4     3 (average)
  2714                           ; direct_byte           14    11 (fixed)
  2715                           ; jumptable            263     9 (fixed)
  2716                           ;	Chosen strategy is simple_byte
  2717  0361  0873               	movf	OSC_config@frecuencia+1,w
  2718  0362  3A09               	xorlw	9	; case 9
  2719  0363  1903               	skipnz
  2720  0364  2B66               	goto	l3127
  2721  0365  2B19               	goto	l1689
  2722  0366                     l3127:	
  2723                           
  2724                           ; Switch size 1, requested type "simple"
  2725                           ; Number of cases is 1, Range of values is 0 to 0
  2726                           ; switch strategies available:
  2727                           ; Name         Instructions Cycles
  2728                           ; simple_byte            4     3 (average)
  2729                           ; direct_byte           11     8 (fixed)
  2730                           ; jumptable            260     6 (fixed)
  2731                           ;	Chosen strategy is simple_byte
  2732  0366  0872               	movf	OSC_config@frecuencia,w
  2733  0367  3A00               	xorlw	0	; case 0
  2734  0368  1903               	skipnz
  2735  0369  2AEA               	goto	l1675
  2736  036A  2B19               	goto	l1689
  2737  036B                     l3111:	
  2738                           
  2739                           ; Switch on 2 bytes has been partitioned into a top level switch of size 1, and 1 sub-sw
      +                          itches
  2740                           ; Switch size 1, requested type "simple"
  2741                           ; Number of cases is 1, Range of values is 18 to 18
  2742                           ; switch strategies available:
  2743                           ; Name         Instructions Cycles
  2744                           ; simple_byte            4     3 (average)
  2745                           ; direct_byte           14    11 (fixed)
  2746                           ; jumptable            263     9 (fixed)
  2747                           ;	Chosen strategy is simple_byte
  2748  036B  0873               	movf	OSC_config@frecuencia+1,w
  2749  036C  3A12               	xorlw	18	; case 18
  2750  036D  1903               	skipnz
  2751  036E  2B70               	goto	l3129
  2752  036F  2B19               	goto	l1689
  2753  0370                     l3129:	
  2754                           
  2755                           ; Switch size 1, requested type "simple"
  2756                           ; Number of cases is 1, Range of values is 0 to 0
  2757                           ; switch strategies available:
  2758                           ; Name         Instructions Cycles
  2759                           ; simple_byte            4     3 (average)
  2760                           ; direct_byte           11     8 (fixed)
  2761                           ; jumptable            260     6 (fixed)
  2762                           ;	Chosen strategy is simple_byte
  2763  0370  0872               	movf	OSC_config@frecuencia,w
  2764  0371  3A00               	xorlw	0	; case 0
  2765  0372  1903               	skipnz
  2766  0373  2AE5               	goto	l1673
  2767  0374  2B19               	goto	l1689
  2768  0375                     l3113:	
  2769                           
  2770                           ; Switch size 1, requested type "simple"
  2771                           ; Number of cases is 8, Range of values is 0 to 122
  2772                           ; switch strategies available:
  2773                           ; Name         Instructions Cycles
  2774                           ; simple_byte           25    13 (average)
  2775                           ; jumptable            260     6 (fixed)
  2776                           ;	Chosen strategy is simple_byte
  2777  0375  0874               	movf	OSC_config@frecuencia+2,w
  2778  0376  3A00               	xorlw	0	; case 0
  2779  0377  1903               	skipnz
  2780  0378  2B25               	goto	l3097
  2781  0379  3A01               	xorlw	1	; case 1
  2782  037A  1903               	skipnz
  2783  037B  2B2F               	goto	l3099
  2784  037C  3A02               	xorlw	2	; case 3
  2785  037D  1903               	skipnz
  2786  037E  2B39               	goto	l3101
  2787  037F  3A04               	xorlw	4	; case 7
  2788  0380  1903               	skipnz
  2789  0381  2B43               	goto	l3103
  2790  0382  3A08               	xorlw	8	; case 15
  2791  0383  1903               	skipnz
  2792  0384  2B4D               	goto	l3105
  2793  0385  3A11               	xorlw	17	; case 30
  2794  0386  1903               	skipnz
  2795  0387  2B57               	goto	l3107
  2796  0388  3A23               	xorlw	35	; case 61
  2797  0389  1903               	skipnz
  2798  038A  2B61               	goto	l3109
  2799  038B  3A47               	xorlw	71	; case 122
  2800  038C  1903               	skipnz
  2801  038D  2B6B               	goto	l3111
  2802  038E  2B19               	goto	l1689
  2803  038F                     l162:	
  2804  038F  0008               	return
  2805  0390                     __end_of_OSC_config:	
  2806                           
  2807                           	psect	text6
  2808  068B                     __ptext6:	
  2809 ;; *************** function _config_ADC *****************
  2810 ;; Defined at:
  2811 ;;		line 297 in file "YL69_humedad.c"
  2812 ;; Parameters:    Size  Location     Type
  2813 ;;		None
  2814 ;; Auto vars:     Size  Location     Type
  2815 ;;		None
  2816 ;; Return value:  Size  Location     Type
  2817 ;;                  1    wreg      void 
  2818 ;; Registers used:
  2819 ;;		None
  2820 ;; Tracked objects:
  2821 ;;		On entry : 0/0
  2822 ;;		On exit  : 0/0
  2823 ;;		Unchanged: 0/0
  2824 ;; Data sizes:     COMMON   BANK0   BANK1   BANK3   BANK2
  2825 ;;      Params:         0       0       0       0       0
  2826 ;;      Locals:         0       0       0       0       0
  2827 ;;      Temps:          0       0       0       0       0
  2828 ;;      Totals:         0       0       0       0       0
  2829 ;;Total ram usage:        0 bytes
  2830 ;; Hardware stack levels used:    1
  2831 ;; Hardware stack levels required when called:    1
  2832 ;; This function calls:
  2833 ;;		Nothing
  2834 ;; This function is called by:
  2835 ;;		_main
  2836 ;; This function uses a non-reentrant model
  2837 ;;
  2838                           
  2839                           
  2840                           ;psect for function _config_ADC
  2841  068B                     _config_ADC:	
  2842  068B                     l1819:	
  2843                           ;incstack = 0
  2844                           ; Regs used in _config_ADC: []
  2845                           
  2846                           
  2847                           ;YL69_humedad.c: 298:     ADCON0bits.ADON = 1;
  2848  068B  1283               	bcf	3,5	;RP0=0, select bank0
  2849  068C  1303               	bcf	3,6	;RP1=0, select bank0
  2850  068D  141F               	bsf	31,0	;volatile
  2851                           
  2852                           ;YL69_humedad.c: 301:     ANSELbits.ANS0 = 1;
  2853  068E  1683               	bsf	3,5	;RP0=1, select bank3
  2854  068F  1703               	bsf	3,6	;RP1=1, select bank3
  2855  0690  1408               	bsf	8,0	;volatile
  2856                           
  2857                           ;YL69_humedad.c: 302:     TRISAbits.TRISA0 = 1;
  2858  0691  1683               	bsf	3,5	;RP0=1, select bank1
  2859  0692  1303               	bcf	3,6	;RP1=0, select bank1
  2860  0693  1405               	bsf	5,0	;volatile
  2861                           
  2862                           ;YL69_humedad.c: 304:     ADCON0bits.CHS0 = 0;
  2863  0694  1283               	bcf	3,5	;RP0=0, select bank0
  2864  0695  1303               	bcf	3,6	;RP1=0, select bank0
  2865  0696  111F               	bcf	31,2	;volatile
  2866                           
  2867                           ;YL69_humedad.c: 305:     ADCON0bits.CHS0 = 0;
  2868  0697  111F               	bcf	31,2	;volatile
  2869                           
  2870                           ;YL69_humedad.c: 306:     ADCON0bits.CHS0 = 0;
  2871  0698  111F               	bcf	31,2	;volatile
  2872                           
  2873                           ;YL69_humedad.c: 307:     ADCON0bits.CHS0 = 0;
  2874  0699  111F               	bcf	31,2	;volatile
  2875                           
  2876                           ;YL69_humedad.c: 309:     ADCON1bits.ADFM = 0;
  2877  069A  1683               	bsf	3,5	;RP0=1, select bank1
  2878  069B  1303               	bcf	3,6	;RP1=0, select bank1
  2879  069C  139F               	bcf	31,7	;volatile
  2880                           
  2881                           ;YL69_humedad.c: 310:     ADCON1bits.VCFG0 = 0;
  2882  069D  121F               	bcf	31,4	;volatile
  2883                           
  2884                           ;YL69_humedad.c: 311:     ADCON1bits.VCFG1 = 0;
  2885  069E  129F               	bcf	31,5	;volatile
  2886                           
  2887                           ;YL69_humedad.c: 313:     ADCON0bits.ADCS1 = 1;
  2888  069F  1283               	bcf	3,5	;RP0=0, select bank0
  2889  06A0  1303               	bcf	3,6	;RP1=0, select bank0
  2890  06A1  179F               	bsf	31,7	;volatile
  2891                           
  2892                           ;YL69_humedad.c: 314:     ADCON0bits.ADCS0 = 0;
  2893  06A2  131F               	bcf	31,6	;volatile
  2894                           
  2895                           ;YL69_humedad.c: 317:     INTCONbits.GIE = 1;
  2896  06A3  178B               	bsf	11,7	;volatile
  2897                           
  2898                           ;YL69_humedad.c: 318:     INTCONbits.PEIE = 1;
  2899  06A4  170B               	bsf	11,6	;volatile
  2900                           
  2901                           ;YL69_humedad.c: 319:     PIE1bits.ADIE = 1;
  2902  06A5  1683               	bsf	3,5	;RP0=1, select bank1
  2903  06A6  1303               	bcf	3,6	;RP1=0, select bank1
  2904  06A7  170C               	bsf	12,6	;volatile
  2905                           
  2906                           ;YL69_humedad.c: 320:     PIR1bits.ADIF = 0;
  2907  06A8  1283               	bcf	3,5	;RP0=0, select bank0
  2908  06A9  1303               	bcf	3,6	;RP1=0, select bank0
  2909  06AA  130C               	bcf	12,6	;volatile
  2910  06AB                     l148:	
  2911  06AB  0008               	return
  2912  06AC                     __end_of_config_ADC:	
  2913                           
  2914                           	psect	text7
  2915  04C7                     __ptext7:	
  2916 ;; *************** function _LCD_iniciar *****************
  2917 ;; Defined at:
  2918 ;;		line 26 in file "Lib_LCD.c"
  2919 ;; Parameters:    Size  Location     Type
  2920 ;;		None
  2921 ;; Auto vars:     Size  Location     Type
  2922 ;;		None
  2923 ;; Return value:  Size  Location     Type
  2924 ;;                  1    wreg      void 
  2925 ;; Registers used:
  2926 ;;		wreg, status,2, status,0, pclath, cstack
  2927 ;; Tracked objects:
  2928 ;;		On entry : 0/0
  2929 ;;		On exit  : 0/0
  2930 ;;		Unchanged: 0/0
  2931 ;; Data sizes:     COMMON   BANK0   BANK1   BANK3   BANK2
  2932 ;;      Params:         0       0       0       0       0
  2933 ;;      Locals:         0       0       0       0       0
  2934 ;;      Temps:          2       0       0       0       0
  2935 ;;      Totals:         2       0       0       0       0
  2936 ;;Total ram usage:        2 bytes
  2937 ;; Hardware stack levels used:    1
  2938 ;; Hardware stack levels required when called:    2
  2939 ;; This function calls:
  2940 ;;		_LCD_DATO
  2941 ;; This function is called by:
  2942 ;;		_main
  2943 ;; This function uses a non-reentrant model
  2944 ;;
  2945                           
  2946                           
  2947                           ;psect for function _LCD_iniciar
  2948  04C7                     _LCD_iniciar:	
  2949  04C7                     l2501:	
  2950                           ;incstack = 0
  2951                           ; Regs used in _LCD_iniciar: [wreg+status,2+status,0+pclath+cstack]
  2952                           
  2953                           
  2954                           ;Lib_LCD.c: 27:     _delay((unsigned long)((20)*(4000000/4000.0)));
  2955  04C7  301A               	movlw	26
  2956  04C8  00F7               	movwf	??_LCD_iniciar+1
  2957  04C9  30F8               	movlw	248
  2958  04CA  00F6               	movwf	??_LCD_iniciar
  2959  04CB                     u1277:	
  2960  04CB  0BF6               	decfsz	??_LCD_iniciar,f
  2961  04CC  2CCB               	goto	u1277
  2962  04CD  0BF7               	decfsz	??_LCD_iniciar+1,f
  2963  04CE  2CCB               	goto	u1277
  2964  04CF  0000               	nop
  2965  04D0                     l2503:	
  2966                           
  2967                           ;Lib_LCD.c: 28:     LCD_DATO(0x30);
  2968  04D0  3030               	movlw	48
  2969  04D1  00F2               	movwf	LCD_DATO@var
  2970  04D2  3000               	movlw	0
  2971  04D3  00F3               	movwf	LCD_DATO@var+1
  2972  04D4  120A  118A  2667  120A  118A  	fcall	_LCD_DATO
  2973  04D9                     l2505:	
  2974                           
  2975                           ;Lib_LCD.c: 29:     _delay((unsigned long)((5)*(4000000/4000.0)));
  2976  04D9  3007               	movlw	7
  2977  04DA  00F7               	movwf	??_LCD_iniciar+1
  2978  04DB  307D               	movlw	125
  2979  04DC  00F6               	movwf	??_LCD_iniciar
  2980  04DD                     u1287:	
  2981  04DD  0BF6               	decfsz	??_LCD_iniciar,f
  2982  04DE  2CDD               	goto	u1287
  2983  04DF  0BF7               	decfsz	??_LCD_iniciar+1,f
  2984  04E0  2CDD               	goto	u1287
  2985                           
  2986                           ;Lib_LCD.c: 30:     LCD_DATO(0x30);
  2987  04E1  3030               	movlw	48
  2988  04E2  00F2               	movwf	LCD_DATO@var
  2989  04E3  3000               	movlw	0
  2990  04E4  00F3               	movwf	LCD_DATO@var+1
  2991  04E5  120A  118A  2667  120A  118A  	fcall	_LCD_DATO
  2992  04EA                     l2507:	
  2993                           
  2994                           ;Lib_LCD.c: 31:     _delay((unsigned long)((100)*(4000000/4000000.0)));
  2995  04EA  3021               	movlw	33
  2996  04EB  00F6               	movwf	??_LCD_iniciar
  2997  04EC                     u1297:	
  2998  04EC  0BF6               	decfsz	??_LCD_iniciar,f
  2999  04ED  2CEC               	goto	u1297
  3000  04EE                     l2509:	
  3001                           
  3002                           ;Lib_LCD.c: 32:     LCD_DATO(0x30);
  3003  04EE  3030               	movlw	48
  3004  04EF  00F2               	movwf	LCD_DATO@var
  3005  04F0  3000               	movlw	0
  3006  04F1  00F3               	movwf	LCD_DATO@var+1
  3007  04F2  120A  118A  2667  120A  118A  	fcall	_LCD_DATO
  3008                           
  3009                           ;Lib_LCD.c: 33:     _delay((unsigned long)((100)*(4000000/4000000.0)));
  3010  04F7  3021               	movlw	33
  3011  04F8  00F6               	movwf	??_LCD_iniciar
  3012  04F9                     u1307:	
  3013  04F9  0BF6               	decfsz	??_LCD_iniciar,f
  3014  04FA  2CF9               	goto	u1307
  3015  04FB                     l2511:	
  3016                           
  3017                           ;Lib_LCD.c: 34:     LCD_DATO(0x38);
  3018  04FB  3038               	movlw	56
  3019  04FC  00F2               	movwf	LCD_DATO@var
  3020  04FD  3000               	movlw	0
  3021  04FE  00F3               	movwf	LCD_DATO@var+1
  3022  04FF  120A  118A  2667  120A  118A  	fcall	_LCD_DATO
  3023  0504                     l2513:	
  3024                           
  3025                           ;Lib_LCD.c: 35:     _delay((unsigned long)((53)*(4000000/4000000.0)));
  3026  0504  3011               	movlw	17
  3027  0505  00F6               	movwf	??_LCD_iniciar
  3028  0506                     u1317:	
  3029  0506  0BF6               	decfsz	??_LCD_iniciar,f
  3030  0507  2D06               	goto	u1317
  3031  0508  0000               	nop
  3032                           
  3033                           ;Lib_LCD.c: 36:     LCD_DATO(0x08);
  3034  0509  3008               	movlw	8
  3035  050A  00F2               	movwf	LCD_DATO@var
  3036  050B  3000               	movlw	0
  3037  050C  00F3               	movwf	LCD_DATO@var+1
  3038  050D  120A  118A  2667  120A  118A  	fcall	_LCD_DATO
  3039  0512                     l2515:	
  3040                           
  3041                           ;Lib_LCD.c: 37:     _delay((unsigned long)((53)*(4000000/4000000.0)));
  3042  0512  3011               	movlw	17
  3043  0513  00F6               	movwf	??_LCD_iniciar
  3044  0514                     u1327:	
  3045  0514  0BF6               	decfsz	??_LCD_iniciar,f
  3046  0515  2D14               	goto	u1327
  3047  0516  0000               	nop
  3048  0517                     l2517:	
  3049                           
  3050                           ;Lib_LCD.c: 38:     LCD_DATO(0x01);
  3051  0517  3001               	movlw	1
  3052  0518  00F2               	movwf	LCD_DATO@var
  3053  0519  3000               	movlw	0
  3054  051A  00F3               	movwf	LCD_DATO@var+1
  3055  051B  120A  118A  2667  120A  118A  	fcall	_LCD_DATO
  3056                           
  3057                           ;Lib_LCD.c: 39:     _delay((unsigned long)((4)*(4000000/4000.0)));
  3058  0520  3006               	movlw	6
  3059  0521  00F7               	movwf	??_LCD_iniciar+1
  3060  0522  3030               	movlw	48
  3061  0523  00F6               	movwf	??_LCD_iniciar
  3062  0524                     u1337:	
  3063  0524  0BF6               	decfsz	??_LCD_iniciar,f
  3064  0525  2D24               	goto	u1337
  3065  0526  0BF7               	decfsz	??_LCD_iniciar+1,f
  3066  0527  2D24               	goto	u1337
  3067  0528  0000               	nop
  3068  0529                     l2519:	
  3069                           
  3070                           ;Lib_LCD.c: 40:     LCD_DATO(0x06);
  3071  0529  3006               	movlw	6
  3072  052A  00F2               	movwf	LCD_DATO@var
  3073  052B  3000               	movlw	0
  3074  052C  00F3               	movwf	LCD_DATO@var+1
  3075  052D  120A  118A  2667  120A  118A  	fcall	_LCD_DATO
  3076  0532                     l2521:	
  3077                           
  3078                           ;Lib_LCD.c: 41:     _delay((unsigned long)((53)*(4000000/4000000.0)));
  3079  0532  3011               	movlw	17
  3080  0533  00F6               	movwf	??_LCD_iniciar
  3081  0534                     u1347:	
  3082  0534  0BF6               	decfsz	??_LCD_iniciar,f
  3083  0535  2D34               	goto	u1347
  3084  0536  0000               	nop
  3085                           
  3086                           ;Lib_LCD.c: 42:     LCD_DATO(0x0C);
  3087  0537  300C               	movlw	12
  3088  0538  00F2               	movwf	LCD_DATO@var
  3089  0539  3000               	movlw	0
  3090  053A  00F3               	movwf	LCD_DATO@var+1
  3091  053B  120A  118A  2667  120A  118A  	fcall	_LCD_DATO
  3092  0540                     l2523:	
  3093                           
  3094                           ;Lib_LCD.c: 43:     _delay((unsigned long)((53)*(4000000/4000000.0)));
  3095  0540  3011               	movlw	17
  3096  0541  00F6               	movwf	??_LCD_iniciar
  3097  0542                     u1357:	
  3098  0542  0BF6               	decfsz	??_LCD_iniciar,f
  3099  0543  2D42               	goto	u1357
  3100  0544  0000               	nop
  3101  0545                     l195:	
  3102  0545  0008               	return
  3103  0546                     __end_of_LCD_iniciar:	
  3104                           
  3105                           	psect	text8
  3106  05A6                     __ptext8:	
  3107 ;; *************** function _LCD_STRING *****************
  3108 ;; Defined at:
  3109 ;;		line 90 in file "Lib_LCD.c"
  3110 ;; Parameters:    Size  Location     Type
  3111 ;;  a               2    4[COMMON] PTR unsigned char 
  3112 ;;		 -> LCD_WRITE_Float@buffer2(16), LCD_WRITE_INT@buffer(16), STR_15(5), STR_14(5), 
  3113 ;;		 -> STR_13(5), STR_12(5), STR_11(5), STR_10(5), 
  3114 ;;		 -> STR_9(5), STR_8(5), STR_7(5), STR_6(5), 
  3115 ;;		 -> STR_5(5), STR_4(5), STR_3(5), STR_2(17), 
  3116 ;;		 -> STR_1(17), 
  3117 ;; Auto vars:     Size  Location     Type
  3118 ;;  n               2    0[BANK0 ] int 
  3119 ;; Return value:  Size  Location     Type
  3120 ;;                  1    wreg      void 
  3121 ;; Registers used:
  3122 ;;		wreg, fsr0l, fsr0h, status,2, status,0, btemp+1, pclath, cstack
  3123 ;; Tracked objects:
  3124 ;;		On entry : 0/0
  3125 ;;		On exit  : 0/0
  3126 ;;		Unchanged: 0/0
  3127 ;; Data sizes:     COMMON   BANK0   BANK1   BANK3   BANK2
  3128 ;;      Params:         2       0       0       0       0
  3129 ;;      Locals:         0       2       0       0       0
  3130 ;;      Temps:          3       0       0       0       0
  3131 ;;      Totals:         5       2       0       0       0
  3132 ;;Total ram usage:        7 bytes
  3133 ;; Hardware stack levels used:    1
  3134 ;; Hardware stack levels required when called:    2
  3135 ;; This function calls:
  3136 ;;		_LCD_CHAR
  3137 ;; This function is called by:
  3138 ;;		_main
  3139 ;;		_LCD_WRITE_INT
  3140 ;;		_LCD_WRITE_Float
  3141 ;; This function uses a non-reentrant model
  3142 ;;
  3143                           
  3144                           
  3145                           ;psect for function _LCD_STRING
  3146  05A6                     _LCD_STRING:	
  3147  05A6                     l2541:	
  3148                           ;incstack = 0
  3149                           ; Regs used in _LCD_STRING: [wreg-fsr0h+status,2+status,0+btemp+1+pclath+cstack]
  3150                           
  3151                           
  3152                           ;Lib_LCD.c: 90: void LCD_STRING(char *a);Lib_LCD.c: 91: {;Lib_LCD.c: 92:     int n;;Lib_
      +                          LCD.c: 93:     for(n = 0; a[n] != '\0'; n++){
  3153  05A6  1283               	bcf	3,5	;RP0=0, select bank0
  3154  05A7  1303               	bcf	3,6	;RP1=0, select bank0
  3155  05A8  01B6               	clrf	LCD_STRING@n
  3156  05A9  01B7               	clrf	LCD_STRING@n+1
  3157  05AA  2DCF               	goto	l2547
  3158  05AB                     l2543:	
  3159                           
  3160                           ;Lib_LCD.c: 94:         LCD_CHAR(a[n]);
  3161  05AB  0836               	movf	LCD_STRING@n,w
  3162  05AC  0774               	addwf	LCD_STRING@a,w
  3163  05AD  00F7               	movwf	??_LCD_STRING+1
  3164  05AE  0875               	movf	LCD_STRING@a+1,w
  3165  05AF  00F6               	movwf	??_LCD_STRING
  3166  05B0  1803               	skipnc
  3167  05B1  0AF6               	incf	??_LCD_STRING,f
  3168  05B2  1FB6               	btfss	LCD_STRING@n,7
  3169  05B3  2DB5               	goto	u920
  3170  05B4  03F6               	decf	??_LCD_STRING,f
  3171  05B5                     u920:	
  3172  05B5  0876               	movf	??_LCD_STRING,w
  3173  05B6  00F8               	movwf	??_LCD_STRING+2
  3174  05B7  0878               	movf	??_LCD_STRING+2,w
  3175  05B8  1283               	bcf	3,5	;RP0=0, select bank0
  3176  05B9  1303               	bcf	3,6	;RP1=0, select bank0
  3177  05BA  00FF               	movwf	btemp+1
  3178  05BB  0877               	movf	??_LCD_STRING+1,w
  3179  05BC  0084               	movwf	4
  3180  05BD  120A  118A  2546  120A  118A  	fcall	stringtab
  3181  05C2  120A  118A  26C6  120A  118A  	fcall	_LCD_CHAR
  3182  05C7                     l2545:	
  3183                           
  3184                           ;Lib_LCD.c: 95:     }
  3185  05C7  3001               	movlw	1
  3186  05C8  1283               	bcf	3,5	;RP0=0, select bank0
  3187  05C9  1303               	bcf	3,6	;RP1=0, select bank0
  3188  05CA  07B6               	addwf	LCD_STRING@n,f
  3189  05CB  1803               	skipnc
  3190  05CC  0AB7               	incf	LCD_STRING@n+1,f
  3191  05CD  3000               	movlw	0
  3192  05CE  07B7               	addwf	LCD_STRING@n+1,f
  3193  05CF                     l2547:	
  3194  05CF  0836               	movf	LCD_STRING@n,w
  3195  05D0  0774               	addwf	LCD_STRING@a,w
  3196  05D1  00F7               	movwf	??_LCD_STRING+1
  3197  05D2  0875               	movf	LCD_STRING@a+1,w
  3198  05D3  00F6               	movwf	??_LCD_STRING
  3199  05D4  1803               	skipnc
  3200  05D5  0AF6               	incf	??_LCD_STRING,f
  3201  05D6  1FB6               	btfss	LCD_STRING@n,7
  3202  05D7  2DD9               	goto	u930
  3203  05D8  03F6               	decf	??_LCD_STRING,f
  3204  05D9                     u930:	
  3205  05D9  0876               	movf	??_LCD_STRING,w
  3206  05DA  00F8               	movwf	??_LCD_STRING+2
  3207  05DB  0878               	movf	??_LCD_STRING+2,w
  3208  05DC  1283               	bcf	3,5	;RP0=0, select bank0
  3209  05DD  1303               	bcf	3,6	;RP1=0, select bank0
  3210  05DE  00FF               	movwf	btemp+1
  3211  05DF  0877               	movf	??_LCD_STRING+1,w
  3212  05E0  0084               	movwf	4
  3213  05E1  120A  118A  2546  120A  118A  	fcall	stringtab
  3214  05E6  3A00               	xorlw	0
  3215  05E7  1D03               	skipz
  3216  05E8  2DEA               	goto	u941
  3217  05E9  2DEB               	goto	u940
  3218  05EA                     u941:	
  3219  05EA  2DAB               	goto	l2543
  3220  05EB                     u940:	
  3221  05EB                     l216:	
  3222  05EB  0008               	return
  3223  05EC                     __end_of_LCD_STRING:	
  3224                           
  3225                           	psect	text9
  3226  06C6                     __ptext9:	
  3227 ;; *************** function _LCD_CHAR *****************
  3228 ;; Defined at:
  3229 ;;		line 80 in file "Lib_LCD.c"
  3230 ;; Parameters:    Size  Location     Type
  3231 ;;  a               1    wreg     unsigned char 
  3232 ;; Auto vars:     Size  Location     Type
  3233 ;;  a               1    3[COMMON] unsigned char 
  3234 ;; Return value:  Size  Location     Type
  3235 ;;                  1    wreg      void 
  3236 ;; Registers used:
  3237 ;;		wreg
  3238 ;; Tracked objects:
  3239 ;;		On entry : 0/0
  3240 ;;		On exit  : 0/0
  3241 ;;		Unchanged: 0/0
  3242 ;; Data sizes:     COMMON   BANK0   BANK1   BANK3   BANK2
  3243 ;;      Params:         0       0       0       0       0
  3244 ;;      Locals:         1       0       0       0       0
  3245 ;;      Temps:          1       0       0       0       0
  3246 ;;      Totals:         2       0       0       0       0
  3247 ;;Total ram usage:        2 bytes
  3248 ;; Hardware stack levels used:    1
  3249 ;; Hardware stack levels required when called:    1
  3250 ;; This function calls:
  3251 ;;		Nothing
  3252 ;; This function is called by:
  3253 ;;		_main
  3254 ;;		_LCD_STRING
  3255 ;; This function uses a non-reentrant model
  3256 ;;
  3257                           
  3258                           
  3259                           ;psect for function _LCD_CHAR
  3260  06C6                     _LCD_CHAR:	
  3261                           
  3262                           ;incstack = 0
  3263                           ; Regs used in _LCD_CHAR: [wreg]
  3264                           ;LCD_CHAR@a stored from wreg
  3265  06C6  00F3               	movwf	LCD_CHAR@a
  3266  06C7                     l2485:	
  3267                           
  3268                           ;Lib_LCD.c: 80: void LCD_CHAR(char a);Lib_LCD.c: 81: {;Lib_LCD.c: 82:     RA3 = 1;
  3269  06C7  1283               	bcf	3,5	;RP0=0, select bank0
  3270  06C8  1303               	bcf	3,6	;RP1=0, select bank0
  3271  06C9  1585               	bsf	5,3	;volatile
  3272  06CA                     l2487:	
  3273                           
  3274                           ;Lib_LCD.c: 84:     PORTB = a;
  3275  06CA  0873               	movf	LCD_CHAR@a,w
  3276  06CB  0086               	movwf	6	;volatile
  3277  06CC                     l2489:	
  3278                           
  3279                           ;Lib_LCD.c: 85:     RA4 = 1;
  3280  06CC  1605               	bsf	5,4	;volatile
  3281                           
  3282                           ;Lib_LCD.c: 86:     _delay((unsigned long)((40)*(4000000/4000000.0)));
  3283  06CD  300D               	movlw	13
  3284  06CE  00F2               	movwf	??_LCD_CHAR
  3285  06CF                     u1367:	
  3286  06CF  0BF2               	decfsz	??_LCD_CHAR,f
  3287  06D0  2ECF               	goto	u1367
  3288  06D1                     l2491:	
  3289                           
  3290                           ;Lib_LCD.c: 87:     RA4 = 0;
  3291  06D1  1283               	bcf	3,5	;RP0=0, select bank0
  3292  06D2  1303               	bcf	3,6	;RP1=0, select bank0
  3293  06D3  1205               	bcf	5,4	;volatile
  3294  06D4                     l210:	
  3295  06D4  0008               	return
  3296  06D5                     __end_of_LCD_CHAR:	
  3297                           
  3298                           	psect	text10
  3299  05EC                     __ptext10:	
  3300 ;; *************** function _LCD_CURSOR *****************
  3301 ;; Defined at:
  3302 ;;		line 63 in file "Lib_LCD.c"
  3303 ;; Parameters:    Size  Location     Type
  3304 ;;  a               2    6[COMMON] int 
  3305 ;;  b               2    8[COMMON] int 
  3306 ;; Auto vars:     Size  Location     Type
  3307 ;;  d               2    0[BANK0 ] int 
  3308 ;; Return value:  Size  Location     Type
  3309 ;;                  1    wreg      void 
  3310 ;; Registers used:
  3311 ;;		wreg, status,2, status,0, pclath, cstack
  3312 ;; Tracked objects:
  3313 ;;		On entry : 0/0
  3314 ;;		On exit  : 0/0
  3315 ;;		Unchanged: 0/0
  3316 ;; Data sizes:     COMMON   BANK0   BANK1   BANK3   BANK2
  3317 ;;      Params:         4       0       0       0       0
  3318 ;;      Locals:         0       2       0       0       0
  3319 ;;      Temps:          0       0       0       0       0
  3320 ;;      Totals:         4       2       0       0       0
  3321 ;;Total ram usage:        6 bytes
  3322 ;; Hardware stack levels used:    1
  3323 ;; Hardware stack levels required when called:    2
  3324 ;; This function calls:
  3325 ;;		_LCD_DATO
  3326 ;; This function is called by:
  3327 ;;		_main
  3328 ;; This function uses a non-reentrant model
  3329 ;;
  3330                           
  3331                           
  3332                           ;psect for function _LCD_CURSOR
  3333  05EC                     _LCD_CURSOR:	
  3334  05EC                     l2529:	
  3335                           ;incstack = 0
  3336                           ; Regs used in _LCD_CURSOR: [wreg+status,2+status,0+pclath+cstack]
  3337                           
  3338                           
  3339                           ;Lib_LCD.c: 63: void LCD_CURSOR(int a, int b);Lib_LCD.c: 64: {;Lib_LCD.c: 65:     int d;
      +                          ;Lib_LCD.c: 66:  if(a == 1)
  3340  05EC  0376               	decf	LCD_CURSOR@a,w
  3341  05ED  0477               	iorwf	LCD_CURSOR@a+1,w
  3342  05EE  1D03               	btfss	3,2
  3343  05EF  2DF1               	goto	u901
  3344  05F0  2DF2               	goto	u900
  3345  05F1                     u901:	
  3346  05F1  2E06               	goto	l2535
  3347  05F2                     u900:	
  3348  05F2                     l2531:	
  3349                           
  3350                           ;Lib_LCD.c: 67:  {;Lib_LCD.c: 68:         d = 0x80 + b - 1;
  3351  05F2  0878               	movf	LCD_CURSOR@b,w
  3352  05F3  3E7F               	addlw	127
  3353  05F4  1283               	bcf	3,5	;RP0=0, select bank0
  3354  05F5  1303               	bcf	3,6	;RP1=0, select bank0
  3355  05F6  00B6               	movwf	LCD_CURSOR@d
  3356  05F7  0879               	movf	LCD_CURSOR@b+1,w
  3357  05F8  1803               	skipnc
  3358  05F9  3E01               	addlw	1
  3359  05FA  3E00               	addlw	0
  3360  05FB  00B7               	movwf	LCD_CURSOR@d+1
  3361  05FC                     l2533:	
  3362                           
  3363                           ;Lib_LCD.c: 69:   LCD_DATO(d);
  3364  05FC  0837               	movf	LCD_CURSOR@d+1,w
  3365  05FD  00F3               	movwf	LCD_DATO@var+1
  3366  05FE  0836               	movf	LCD_CURSOR@d,w
  3367  05FF  00F2               	movwf	LCD_DATO@var
  3368  0600  120A  118A  2667  120A  118A  	fcall	_LCD_DATO
  3369                           
  3370                           ;Lib_LCD.c: 70:  }
  3371  0605  2E18               	goto	l207
  3372  0606                     l2535:	
  3373  0606  3002               	movlw	2
  3374  0607  0676               	xorwf	LCD_CURSOR@a,w
  3375  0608  0477               	iorwf	LCD_CURSOR@a+1,w
  3376  0609  1D03               	btfss	3,2
  3377  060A  2E0C               	goto	u911
  3378  060B  2E0D               	goto	u910
  3379  060C                     u911:	
  3380  060C  2E18               	goto	l207
  3381  060D                     u910:	
  3382  060D                     l2537:	
  3383                           
  3384                           ;Lib_LCD.c: 72:  {;Lib_LCD.c: 73:   d = 0xC0 + b - 1;
  3385  060D  0878               	movf	LCD_CURSOR@b,w
  3386  060E  3EBF               	addlw	191
  3387  060F  1283               	bcf	3,5	;RP0=0, select bank0
  3388  0610  1303               	bcf	3,6	;RP1=0, select bank0
  3389  0611  00B6               	movwf	LCD_CURSOR@d
  3390  0612  0879               	movf	LCD_CURSOR@b+1,w
  3391  0613  1803               	skipnc
  3392  0614  3E01               	addlw	1
  3393  0615  3E00               	addlw	0
  3394  0616  00B7               	movwf	LCD_CURSOR@d+1
  3395  0617  2DFC               	goto	l2533
  3396  0618                     l207:	
  3397  0618  0008               	return
  3398  0619                     __end_of_LCD_CURSOR:	
  3399                           
  3400                           	psect	text11
  3401  06AC                     __ptext11:	
  3402 ;; *************** function _LCD_CLEAR *****************
  3403 ;; Defined at:
  3404 ;;		line 56 in file "Lib_LCD.c"
  3405 ;; Parameters:    Size  Location     Type
  3406 ;;		None
  3407 ;; Auto vars:     Size  Location     Type
  3408 ;;		None
  3409 ;; Return value:  Size  Location     Type
  3410 ;;                  1    wreg      void 
  3411 ;; Registers used:
  3412 ;;		wreg, status,2, status,0, pclath, cstack
  3413 ;; Tracked objects:
  3414 ;;		On entry : 0/0
  3415 ;;		On exit  : 0/0
  3416 ;;		Unchanged: 0/0
  3417 ;; Data sizes:     COMMON   BANK0   BANK1   BANK3   BANK2
  3418 ;;      Params:         0       0       0       0       0
  3419 ;;      Locals:         0       0       0       0       0
  3420 ;;      Temps:          2       0       0       0       0
  3421 ;;      Totals:         2       0       0       0       0
  3422 ;;Total ram usage:        2 bytes
  3423 ;; Hardware stack levels used:    1
  3424 ;; Hardware stack levels required when called:    2
  3425 ;; This function calls:
  3426 ;;		_LCD_DATO
  3427 ;; This function is called by:
  3428 ;;		_main
  3429 ;; This function uses a non-reentrant model
  3430 ;;
  3431                           
  3432                           
  3433                           ;psect for function _LCD_CLEAR
  3434  06AC                     _LCD_CLEAR:	
  3435  06AC                     l2525:	
  3436                           ;incstack = 0
  3437                           ; Regs used in _LCD_CLEAR: [wreg+status,2+status,0+pclath+cstack]
  3438                           
  3439                           
  3440                           ;Lib_LCD.c: 57:     LCD_DATO(0x00);
  3441  06AC  3000               	movlw	0
  3442  06AD  00F2               	movwf	LCD_DATO@var
  3443  06AE  00F3               	movwf	LCD_DATO@var+1
  3444  06AF  120A  118A  2667  120A  118A  	fcall	_LCD_DATO
  3445                           
  3446                           ;Lib_LCD.c: 58:     LCD_DATO(0x01);
  3447  06B4  3001               	movlw	1
  3448  06B5  00F2               	movwf	LCD_DATO@var
  3449  06B6  3000               	movlw	0
  3450  06B7  00F3               	movwf	LCD_DATO@var+1
  3451  06B8  120A  118A  2667  120A  118A  	fcall	_LCD_DATO
  3452  06BD                     l2527:	
  3453                           
  3454                           ;Lib_LCD.c: 59:     _delay((unsigned long)((5)*(4000000/4000.0)));
  3455  06BD  3007               	movlw	7
  3456  06BE  00F7               	movwf	??_LCD_CLEAR+1
  3457  06BF  307D               	movlw	125
  3458  06C0  00F6               	movwf	??_LCD_CLEAR
  3459  06C1                     u1377:	
  3460  06C1  0BF6               	decfsz	??_LCD_CLEAR,f
  3461  06C2  2EC1               	goto	u1377
  3462  06C3  0BF7               	decfsz	??_LCD_CLEAR+1,f
  3463  06C4  2EC1               	goto	u1377
  3464  06C5                     l201:	
  3465  06C5  0008               	return
  3466  06C6                     __end_of_LCD_CLEAR:	
  3467                           
  3468                           	psect	text12
  3469  0667                     __ptext12:	
  3470 ;; *************** function _LCD_DATO *****************
  3471 ;; Defined at:
  3472 ;;		line 46 in file "Lib_LCD.c"
  3473 ;; Parameters:    Size  Location     Type
  3474 ;;  var             2    2[COMMON] int 
  3475 ;; Auto vars:     Size  Location     Type
  3476 ;;		None
  3477 ;; Return value:  Size  Location     Type
  3478 ;;                  1    wreg      void 
  3479 ;; Registers used:
  3480 ;;		wreg
  3481 ;; Tracked objects:
  3482 ;;		On entry : 0/0
  3483 ;;		On exit  : 0/0
  3484 ;;		Unchanged: 0/0
  3485 ;; Data sizes:     COMMON   BANK0   BANK1   BANK3   BANK2
  3486 ;;      Params:         2       0       0       0       0
  3487 ;;      Locals:         0       0       0       0       0
  3488 ;;      Temps:          2       0       0       0       0
  3489 ;;      Totals:         4       0       0       0       0
  3490 ;;Total ram usage:        4 bytes
  3491 ;; Hardware stack levels used:    1
  3492 ;; Hardware stack levels required when called:    1
  3493 ;; This function calls:
  3494 ;;		Nothing
  3495 ;; This function is called by:
  3496 ;;		_LCD_iniciar
  3497 ;;		_LCD_CLEAR
  3498 ;;		_LCD_CURSOR
  3499 ;; This function uses a non-reentrant model
  3500 ;;
  3501                           
  3502                           
  3503                           ;psect for function _LCD_DATO
  3504  0667                     _LCD_DATO:	
  3505  0667                     l2493:	
  3506                           ;incstack = 0
  3507                           ; Regs used in _LCD_DATO: [wreg]
  3508                           
  3509                           
  3510                           ;Lib_LCD.c: 47:     RA3 = 0;
  3511  0667  1283               	bcf	3,5	;RP0=0, select bank0
  3512  0668  1303               	bcf	3,6	;RP1=0, select bank0
  3513  0669  1185               	bcf	5,3	;volatile
  3514  066A                     l2495:	
  3515                           
  3516                           ;Lib_LCD.c: 48:     _delay((unsigned long)((5)*(4000000/4000.0)));
  3517  066A  3007               	movlw	7
  3518  066B  00F5               	movwf	??_LCD_DATO+1
  3519  066C  307D               	movlw	125
  3520  066D  00F4               	movwf	??_LCD_DATO
  3521  066E                     u1387:	
  3522  066E  0BF4               	decfsz	??_LCD_DATO,f
  3523  066F  2E6E               	goto	u1387
  3524  0670  0BF5               	decfsz	??_LCD_DATO+1,f
  3525  0671  2E6E               	goto	u1387
  3526  0672                     l2497:	
  3527                           
  3528                           ;Lib_LCD.c: 49:     RA4 = 1;
  3529  0672  1283               	bcf	3,5	;RP0=0, select bank0
  3530  0673  1303               	bcf	3,6	;RP1=0, select bank0
  3531  0674  1605               	bsf	5,4	;volatile
  3532                           
  3533                           ;Lib_LCD.c: 50:     PORTB = var;
  3534  0675  0872               	movf	LCD_DATO@var,w
  3535  0676  0086               	movwf	6	;volatile
  3536                           
  3537                           ;Lib_LCD.c: 51:     _delay((unsigned long)((5)*(4000000/4000.0)));
  3538  0677  3007               	movlw	7
  3539  0678  00F5               	movwf	??_LCD_DATO+1
  3540  0679  307D               	movlw	125
  3541  067A  00F4               	movwf	??_LCD_DATO
  3542  067B                     u1397:	
  3543  067B  0BF4               	decfsz	??_LCD_DATO,f
  3544  067C  2E7B               	goto	u1397
  3545  067D  0BF5               	decfsz	??_LCD_DATO+1,f
  3546  067E  2E7B               	goto	u1397
  3547  067F                     l2499:	
  3548                           
  3549                           ;Lib_LCD.c: 52:     RA4 = 0;
  3550  067F  1283               	bcf	3,5	;RP0=0, select bank0
  3551  0680  1303               	bcf	3,6	;RP1=0, select bank0
  3552  0681  1205               	bcf	5,4	;volatile
  3553                           
  3554                           ;Lib_LCD.c: 53:     _delay((unsigned long)((5)*(4000000/4000.0)));
  3555  0682  3007               	movlw	7
  3556  0683  00F5               	movwf	??_LCD_DATO+1
  3557  0684  307D               	movlw	125
  3558  0685  00F4               	movwf	??_LCD_DATO
  3559  0686                     u1407:	
  3560  0686  0BF4               	decfsz	??_LCD_DATO,f
  3561  0687  2E86               	goto	u1407
  3562  0688  0BF5               	decfsz	??_LCD_DATO+1,f
  3563  0689  2E86               	goto	u1407
  3564  068A                     l198:	
  3565  068A  0008               	return
  3566  068B                     __end_of_LCD_DATO:	
  3567                           
  3568                           	psect	text13
  3569  06D5                     __ptext13:	
  3570 ;; *************** function _ISR *****************
  3571 ;; Defined at:
  3572 ;;		line 80 in file "YL69_humedad.c"
  3573 ;; Parameters:    Size  Location     Type
  3574 ;;		None
  3575 ;; Auto vars:     Size  Location     Type
  3576 ;;		None
  3577 ;; Return value:  Size  Location     Type
  3578 ;;                  1    wreg      void 
  3579 ;; Registers used:
  3580 ;;		None
  3581 ;; Tracked objects:
  3582 ;;		On entry : 0/0
  3583 ;;		On exit  : 0/0
  3584 ;;		Unchanged: 0/0
  3585 ;; Data sizes:     COMMON   BANK0   BANK1   BANK3   BANK2
  3586 ;;      Params:         0       0       0       0       0
  3587 ;;      Locals:         0       0       0       0       0
  3588 ;;      Temps:          2       0       0       0       0
  3589 ;;      Totals:         2       0       0       0       0
  3590 ;;Total ram usage:        2 bytes
  3591 ;; Hardware stack levels used:    1
  3592 ;; This function calls:
  3593 ;;		Nothing
  3594 ;; This function is called by:
  3595 ;;		Interrupt level 1
  3596 ;; This function uses a non-reentrant model
  3597 ;;
  3598                           
  3599                           
  3600                           ;psect for function _ISR
  3601  06D5                     _ISR:	
  3602  06D5                     i1l1113:	
  3603                           
  3604                           ;YL69_humedad.c: 81:     if (ADIF) {
  3605  06D5  1283               	bcf	3,5	;RP0=0, select bank0
  3606  06D6  1303               	bcf	3,6	;RP1=0, select bank0
  3607  06D7  1F0C               	btfss	12,6	;volatile
  3608  06D8  2EDA               	goto	u14_21
  3609  06D9  2EDB               	goto	u14_20
  3610  06DA                     u14_21:	
  3611  06DA  2EDC               	goto	i1l104
  3612  06DB                     u14_20:	
  3613  06DB                     i1l1115:	
  3614                           
  3615                           ;YL69_humedad.c: 82:         PIR1bits.ADIF = 0;
  3616  06DB  130C               	bcf	12,6	;volatile
  3617  06DC                     i1l104:	
  3618  06DC  0871               	movf	??_ISR+1,w
  3619  06DD  008A               	movwf	10
  3620  06DE  0E70               	swapf	??_ISR^(0+4294967168),w
  3621  06DF  0083               	movwf	3
  3622  06E0  0EFE               	swapf	btemp,f
  3623  06E1  0E7E               	swapf	btemp,w
  3624  06E2  0009               	retfie
  3625  06E3                     __end_of_ISR:	
  3626  007E                     btemp	set	126	;btemp
  3627  007E                     wtemp0	set	126
  3628                           
  3629                           	psect	intentry
  3630  0004                     __pintentry:	
  3631                           ;incstack = 0
  3632                           ; Regs used in _ISR: []
  3633                           
  3634  0004                     interrupt_function:	
  3635  007E                     saved_w	set	btemp
  3636  0004  00FE               	movwf	btemp
  3637  0005  0E03               	swapf	3,w
  3638  0006  00F0               	movwf	??_ISR
  3639  0007  080A               	movf	10,w
  3640  0008  00F1               	movwf	??_ISR+1
  3641  0009  120A  118A  2ED5   	ljmp	_ISR


Data Sizes:
    Strings     80
    Constant    0
    Data        0
    BSS         24
    Persistent  0
    Stack       0

Auto Spaces:
    Space          Size  Autos    Used
    COMMON           14     10      12
    BANK0            80     17      39
    BANK1            80      0       0
    BANK3            96      0       0
    BANK2            96      0       0

Pointer List with Targets:

    _doprnt$2	PTR PTR void  size(1) Largest target is 1
		 -> sprintf@ap(COMMON[1]), 

    _doprnt$1	PTR const unsigned char  size(1) Largest target is 5
		 -> STR_17(CODE[5]), STR_16(CODE[3]), 

    _doprnt$0	PTR struct __prbuf size(1) Largest target is 3
		 -> sprintf@pb(COMMON[2]), 

    S901__prbuf$func	PTR FTN(unsigned char ,)void  size(1) Largest target is 1
		 -> Absolute function(), 

    pb.func	PTR FTN(unsigned char ,)void  size(1) Largest target is 1
		 -> Absolute function(), 

    S901__prbuf$ptr	PTR unsigned char  size(1) Largest target is 16
		 -> LCD_WRITE_Float@buffer2(BANK0[16]), LCD_WRITE_INT@buffer(BANK0[16]), 

    pb.ptr	PTR unsigned char  size(1) Largest target is 16
		 -> LCD_WRITE_Float@buffer2(BANK0[16]), LCD_WRITE_INT@buffer(BANK0[16]), 

    LCD_STRING@a	PTR unsigned char  size(2) Largest target is 17
		 -> LCD_WRITE_Float@buffer2(BANK0[16]), LCD_WRITE_INT@buffer(BANK0[16]), STR_15(CODE[5]), STR_14(CODE[5]), 
		 -> STR_13(CODE[5]), STR_12(CODE[5]), STR_11(CODE[5]), STR_10(CODE[5]), 
		 -> STR_9(CODE[5]), STR_8(CODE[5]), STR_7(CODE[5]), STR_6(CODE[5]), 
		 -> STR_5(CODE[5]), STR_4(CODE[5]), STR_3(CODE[5]), STR_2(CODE[17]), 
		 -> STR_1(CODE[17]), 

    sp__mapeo	PTR unsigned int  size(1) Largest target is 6
		 -> mapeo@result(BANK0[6]), 

    voltaje_map	PTR unsigned int  size(1) Largest target is 6
		 -> mapeo@result(BANK0[6]), NULL(NULL[0]), 


Critical Paths under _main in COMMON

    _main->_LCD_CURSOR
    _main->_mapeo
    _mapeo->___wmul
    _config_PORTS->_OSC_config
    _LCD_iniciar->_LCD_DATO
    _LCD_STRING->_LCD_CHAR
    _LCD_CURSOR->_LCD_DATO
    _LCD_CLEAR->_LCD_DATO

Critical Paths under _ISR in COMMON

    None.

Critical Paths under _main in BANK0

    _main->_mapeo

Critical Paths under _ISR in BANK0

    None.

Critical Paths under _main in BANK1

    None.

Critical Paths under _ISR in BANK1

    None.

Critical Paths under _main in BANK3

    None.

Critical Paths under _ISR in BANK3

    None.

Critical Paths under _main in BANK2

    None.

Critical Paths under _ISR in BANK2

    None.

Call Graph Tables:

 ---------------------------------------------------------------------------------
 (Depth) Function   	        Calls       Base Space   Used Autos Params    Refs
 ---------------------------------------------------------------------------------
 (0) _main                                                 4     4      0    9488
                                             13 BANK0      4     4      0
                           _LCD_CHAR
                          _LCD_CLEAR
                         _LCD_CURSOR
                         _LCD_STRING
                        _LCD_iniciar
                         _config_ADC
                       _config_PORTS
                              _mapeo
                       _uint_to_char
 ---------------------------------------------------------------------------------
 (1) _uint_to_char                                         4     4      0      62
                                              2 COMMON     4     4      0
 ---------------------------------------------------------------------------------
 (1) _mapeo                                               15    13      2    1201
                                              8 COMMON     2     0      2
                                              0 BANK0     13    13      0
                             ___wmul
 ---------------------------------------------------------------------------------
 (2) ___wmul                                               6     2      4     548
                                              2 COMMON     6     2      4
 ---------------------------------------------------------------------------------
 (1) _config_PORTS                                         0     0      0      98
                         _OSC_config
 ---------------------------------------------------------------------------------
 (2) _OSC_config                                           4     0      4      98
                                              2 COMMON     4     0      4
 ---------------------------------------------------------------------------------
 (1) _config_ADC                                           0     0      0       0
 ---------------------------------------------------------------------------------
 (1) _LCD_iniciar                                          2     2      0    1111
                                              6 COMMON     2     2      0
                           _LCD_DATO
 ---------------------------------------------------------------------------------
 (1) _LCD_STRING                                           7     5      2    1691
                                              4 COMMON     5     3      2
                                              0 BANK0      2     2      0
                           _LCD_CHAR
 ---------------------------------------------------------------------------------
 (2) _LCD_CHAR                                             2     2      0      31
                                              2 COMMON     2     2      0
 ---------------------------------------------------------------------------------
 (1) _LCD_CURSOR                                           6     2      4    4183
                                              6 COMMON     4     0      4
                                              0 BANK0      2     2      0
                           _LCD_DATO
 ---------------------------------------------------------------------------------
 (1) _LCD_CLEAR                                            2     2      0    1111
                                              6 COMMON     2     2      0
                           _LCD_DATO
 ---------------------------------------------------------------------------------
 (2) _LCD_DATO                                             4     2      2    1111
                                              2 COMMON     4     2      2
 ---------------------------------------------------------------------------------
 Estimated maximum stack depth 2
 ---------------------------------------------------------------------------------
 (Depth) Function   	        Calls       Base Space   Used Autos Params    Refs
 ---------------------------------------------------------------------------------
 (3) _ISR                                                  2     2      0       0
                                              0 COMMON     2     2      0
 ---------------------------------------------------------------------------------
 Estimated maximum stack depth 3
 ---------------------------------------------------------------------------------

 Call Graph Graphs:

 _main (ROOT)
   _LCD_CHAR
   _LCD_CLEAR
     _LCD_DATO
   _LCD_CURSOR
     _LCD_DATO
   _LCD_STRING
     _LCD_CHAR
   _LCD_iniciar
     _LCD_DATO
   _config_ADC
   _config_PORTS
     _OSC_config
   _mapeo
     ___wmul
   _uint_to_char

 _ISR (ROOT)

 Address spaces:
Name               Size   Autos  Total    Cost      Usage
BITCOMMON            E      0       0       0        0.0%
EEDATA             100      0       0       0        0.0%
NULL                 0      0       0       0        0.0%
CODE                 0      0       0       0        0.0%
COMMON               E      A       C       1       85.7%
BITSFR0              0      0       0       1        0.0%
SFR0                 0      0       0       1        0.0%
BITSFR1              0      0       0       2        0.0%
SFR1                 0      0       0       2        0.0%
STACK                0      0       0       2        0.0%
ABS                  0      0      33       3        0.0%
BITBANK0            50      0       0       4        0.0%
BITSFR3              0      0       0       4        0.0%
SFR3                 0      0       0       4        0.0%
BANK0               50     11      27       5       48.8%
BITSFR2              0      0       0       5        0.0%
SFR2                 0      0       0       5        0.0%
BITBANK1            50      0       0       6        0.0%
BANK1               50      0       0       7        0.0%
BITBANK3            60      0       0       8        0.0%
BANK3               60      0       0       9        0.0%
BITBANK2            60      0       0      10        0.0%
BANK2               60      0       0      11        0.0%
DATA                 0      0      33      12        0.0%


Microchip Technology PIC Macro Assembler V2.10 build 88905656 
Symbol Table                                                                                   Mon Mar 23 16:02:44 2020

            LCD_CURSOR@a 0076              LCD_CURSOR@b 0078              LCD_CURSOR@d 0036  
                      pc 0002              __CFG_CP$OFF 0000                       fsr 0004  
    ___wmul@multiplicand 0074                      l201 06C5                      l210 06D4  
                    l207 0618                      l216 05EB                      l145 0641  
                    l162 038F                      l148 06AB                      l324 064E  
                    l326 0666                      l182 0433                      l238 04C6  
                    l195 0545                      l198 068A                      _RA3 002B  
                    _RA4 002C             __CFG_CPD$OFF 0000                      u460 0648  
                    _ISR 06D5                      u461 0647                      u550 0397  
                    u560 03D2                      u561 03D1                      u490 0662  
                    u570 0402                      u491 0661                      u475 064F  
                    u571 0401                      u900 05F2                      u580 0432  
                    u901 05F1                      u485 0656                      u581 0431  
                    u565 03CE                      u910 060D                      u911 060C  
                    u575 03FE                      u920 05B5                      u585 042E  
                    u930 05D9                      u940 05EB                      u941 05EA  
                    u960 0106                      u961 0105                      u970 0115  
                    u971 0114                      u955 0078                      u980 011D  
                    u981 011C                      u990 013D                      u991 013C  
                    _dec 007A                      _cen 0034             _uint_to_char 0434  
                    fsr0 0004                      _uni 007B                      indf 0000  
            LCD_STRING@a 0074              LCD_STRING@n 0036             __CFG_LVP$OFF 0000  
                   ?_ISR 0070                     l3101 0339                     l3111 036B  
                   l3103 0343                     l3105 034D                     l3121 0348  
                   l3113 0375                     l3107 0357                     l3123 0352  
                   l3115 032A                     l2501 04C7                     l3109 0361  
                   l3125 035C                     l3117 0334                     l2511 04FB  
                   l2503 04D0                     l3127 0366                     l3119 033E  
                   l2521 0532                     l2513 0504                     l2505 04D9  
                   l3129 0370                     l1801 0633                     l2601 0108  
                   l2531 05F2                     l2523 0540                     l2515 0512  
                   l2507 04EA                     l1811 063D                     l1803 0636  
                   l2603 010F                     l2611 0117                     l2525 06AC  
                   l2533 05FC                     l2541 05A6                     l2517 0517  
                   l2509 04EE                     l1813 063E                     l1805 0637  
                   l1901 0445                     l2701 027E                     l2613 011D  
                   l2621 0137                     l2605 010F                     l2527 06BD  
                   l2535 0606                     l2543 05AB                     l2519 0529  
                   l1671 02E4                     l1815 063F                     l1807 0638  
                   l3095 0493                     l1911 045E                     l1903 044A  
                   l2711 02AC                     l2703 028B                     l2631 015A  
                   l2623 013D                     l2615 012A                     l2607 0115  
                   l2551 0023                     l2537 060D                     l2529 05EC  
                   l2545 05C7                     l3097 0325                     l1681 02FF  
                   l1673 02E5                     l1817 0640                     l1809 063A  
                   l1921 0477                     l1913 0463                     l1905 044F  
                   l2721 02D3                     l2713 02B5                     l2705 0294  
                   l2641 0185                     l2633 0163                     l2625 0142  
                   l2617 0133                     l2609 0116                     l2561 0048  
                   l2553 0028                     l2491 06D1                     l2547 05CF  
                   l1819 068B                     l3099 032F                     l1683 0306  
                   l1675 02EA                     l1691 0320                     l1771 0644  
                   l1923 047C                     l1915 0468                     l1907 0454  
                   l1931 04C5                     l2723 02DC                     l2715 02BC  
                   l2707 0299                     l2651 01AD                     l2643 018B  
                   l2635 0169                     l2627 0148                     l2619 0136  
                   l2571 0073                     l2563 0055                     l2555 002D  
                   l2493 0667                     l2485 06C7                     l1685 030D  
                   l1677 02F1                     l1773 0648                     l1925 0481  
                   l1917 046D                     l1909 0459                     l2725 02DF  
                   l2717 02C1                     l2709 029F                     l2661 01D5  
                   l2653 01B3                     l2645 0191                     l2637 016F  
                   l2629 014D                     l2581 00B4                     l2573 008E  
                   l2565 005E                     l2557 0032                     l2549 001E  
                   l2495 066A                     l2487 06CA                     l1687 0314  
                   l1679 02F8                     l1791 062C                     l1783 0619  
                   l1775 0655                     l1871 039C                     l1927 0486  
                   l1919 0472                     l2719 02C6                     l2671 0204  
                   l2663 01E2                     l2655 01C0                     l2647 019E  
                   l2639 017C                     l2591 00EA                     l2583 00BF  
                   l2575 009F                     l2567 0061                     l2559 003F  
                   l2497 0672                     l2489 06CC                     l1689 0319  
                   l1793 062F                     l1785 0626                     l1777 065C  
                   l1769 0642                     l1881 03F5                     l1873 03B6  
                   l1929 048B                     l2681 022F                     l2673 020D  
                   l2665 01EB                     l2657 01C9                     l2649 01A7  
                   l2593 00F2                     l2585 00CA                     l2577 00A6  
                   l2569 0068                     l2499 067F                     l1795 0630  
                   l1787 0629                     l1779 0662                     l1883 0402  
                   l1875 03C5                     l2691 0257                     l2683 0235  
                   l2675 0213                     l2667 01F1                     l2659 01CF  
                   l2595 00FA                     l2587 00D5                     l2579 00AD  
                   l1797 0631                     l1789 062A                     l1885 0416  
                   l1877 03D2                     l1869 0393                     l1893 0435  
                   l2693 025D                     l2685 023B                     l2677 0219  
                   l2669 01F7                     l2597 0100                     l2589 00E2  
                   l1799 0632                     l1887 0425                     l1879 03E6  
                   l1895 0436                     l2695 026A                     l2687 0248  
                   l2679 0226                     l2599 0106                     l1889 0432  
                   l1897 043B                     l2697 0273                     l2689 0251  
                   l1899 0440                     l2699 0278                     _ADIF 0066  
                   STR_1 0556                     STR_2 0556                     STR_3 0567  
                   STR_4 0567                     STR_5 0571                     STR_6 0576  
                   STR_7 057B                     STR_8 0580                     STR_9 0585  
         ??_config_PORTS 0076                     u1000 0142                     u1001 0141  
                   u1010 0148                     u1011 0147                     u1100 01D5  
                   u1020 014D                     u1101 01D4                     u1021 014C  
                   u1110 01F1                     u1030 0169                     u1111 01F0  
                   u1031 0168                     u1200 027E                     u1120 01F7  
                   u1040 016F                     u1201 027D                     u1121 01F6  
                   u1041 016E                     u1210 0299                     u1130 0213  
                   u1050 018B                     u1211 0298                     u1131 0212  
                   u1051 018A                     u1220 029F                     u1140 0219  
                   u1060 0191                     u1221 029E                     u1141 0218  
                   u1061 0190                     u1230 02BC                     u1150 0235  
                   u1070 01AD                     u1231 02BB                     u1151 0234  
                   u1071 01AC                     u1240 02C1                     u1160 023B  
                   u1080 01B3                     u1241 02C0                     u1161 023A  
                   u1081 01B2                     u1250 02C6                     u1170 0257  
                   u1090 01CF                     u1307 04F9                     u1251 02C5  
                   u1171 0256                     u1091 01CE                     u1180 025D  
                   u1317 0506                     u1181 025C                     u1190 0278  
                   u1407 0686                     u1327 0514                     u1191 0277  
                   u1337 0524                     u1347 0534                     u1267 010C  
                   u1357 0542                     u1277 04CB                     u1367 06CF  
                   u1287 04DD                     u1377 06C1                     u1297 04EC  
                   u1387 066E                     u1397 067B       __size_of_LCD_CLEAR 001A  
           ?_LCD_iniciar 0070             __CFG_WRT$OFF 0000                     _main 001E  
                   btemp 007E                     start 000C            __CFG_IESO$OFF 0000  
          __CFG_MCLRE$ON 0000              _voltaje_map 0035                    ??_ISR 0070  
       __end_of_LCD_CHAR 06D5         __end_of_LCD_DATO 068B                    ?_main 0070  
                  STR_10 058A                    STR_11 058F                    STR_12 0594  
                  STR_13 0599                    STR_14 056C                    STR_15 056C  
                  STR_16 05A3                    STR_17 059E            __CFG_WDTE$OFF 0000  
     uint_to_char@numChr 0075                    i1l104 06DC       uint_to_char@numero 0074  
                  u14_20 06DB                    u14_21 06DA                    _PORTA 0005  
                  _PORTB 0006                    _PORTC 0007                    _PORTD 0008  
                  _PORTE 0009                    _TRISA 0085                    _TRISB 0086  
                  _TRISC 0087                    _TRISD 0088                    _TRISE 0089  
    __size_of_LCD_CURSOR 002D           __CFG_FCMEN$OFF 0000      __size_of_LCD_STRING 0046  
                  _mapeo 0390           __CFG_BOREN$OFF 0000              ?_OSC_config 0072  
                  pclath 000A                    status 0003              mapeo@limPIC 0078  
                  wtemp0 007E              mapeo@result 003B          __initialization 000F  
           __end_of_main 02E4        __end_of_LCD_CLEAR 06C6                   ??_main 0043  
                 ?_mapeo 0078                   _ADRESH 001E                   _ADRESL 009E  
                 i1l1113 06D5                   i1l1115 06DB                   _ESTADO 0033  
         __CFG_PWRTE$OFF 0000                   ___wmul 0642                   _decena 002F  
   __end_of_config_PORTS 0642      __size_of_OSC_config 00AC                   _unidad 002E  
                 saved_w 007E                LCD_CHAR@a 0073                ?_LCD_CHAR 0070  
              ?_LCD_DATO 0072  __end_of__initialization 001A     __size_of_LCD_iniciar 007F  
           ??_LCD_CURSOR 007A             ??_LCD_STRING 0076           __pcstackCOMMON 0070  
          __end_of_mapeo 0434       __end_of_LCD_CURSOR 0619                  ??_mapeo 0036  
     __end_of_LCD_STRING 05EC               __pbssBANK0 0020               ??_LCD_CHAR 0072  
             ??_LCD_DATO 0074               __pmaintext 001E                  ?___wmul 0072  
             __pintentry 0004     OSC_config@frecuencia 0072                  _ESTADO2 0032  
                _ESTADO3 0031               _config_ADC 068B               __stringtab 0546  
           ??_OSC_config 0076    __size_of_config_PORTS 0029          __size_of___wmul 0025  
              _ANSELbits 0188                  _centena 0030                  __ptext1 0434  
                __ptext2 0390                  __ptext3 0642                  __ptext4 0619  
                __ptext5 02E4                  __ptext6 068B                  __ptext7 04C7  
                __ptext8 05A6                  __ptext9 06C6       __end_of_OSC_config 0390  
           __size_of_ISR 000E                _LCD_CLEAR 06AC                  clrloop0 06E4  
   end_of_initialization 001A             _config_PORTS 0619                _PORTCbits 0007  
              _PORTEbits 0009               ?_LCD_CLEAR 0070              ?_config_ADC 0070  
              _TRISAbits 0085        __size_of_LCD_CHAR 000F        __size_of_LCD_DATO 0024  
             mapeo@F1404 0020           __end_of___wmul 0667            ?_uint_to_char 0070  
    start_initialization 000F               mapeo@valor 003A              __end_of_ISR 06E3  
              _Humedad_H 002C                _Humedad_L 002A            ??_LCD_iniciar 0076  
    __size_of_config_ADC 0021                 ??___wmul 0076           ??_uint_to_char 0072  
            ??_LCD_CLEAR 0076              __pbssCOMMON 007A                ___latbits 0002  
          __pcstackBANK0 0036   __CFG_FOSC$INTRC_CLKOUT 0000      __end_of_LCD_iniciar 0546  
              __pstrings 0546           __size_of_mapeo 00A4                 _LCD_CHAR 06C6  
               _LCD_DATO 0667        interrupt_function 0004           ___wmul@product 0076  
              clear_ram0 06E3                 _PIE1bits 008C                 _PIR1bits 000C  
            _LCD_Humedad 0026               _ADCON0bits 001F              __stringbase 0555  
             _ADCON1bits 009F        ___wmul@multiplier 0072             ??_config_ADC 0072  
           _Sens_Humedad 0028              _LCD_iniciar 04C7     __end_of_uint_to_char 04C7  
     __end_of_config_ADC 06AC       __end_of__stringtab 0556                 __ptext10 05EC  
               __ptext11 06AC                 __ptext12 0667                 __ptext13 06D5  
      __CFG_BOR4V$BOR40V 0000            __size_of_main 02C6               _LCD_CURSOR 05EC  
             _LCD_STRING 05A6               _INTCONbits 000B                 intlevel1 0000  
              stringcode 0550               _OSCCONbits 008F           mapeo@dividendo 0041  
               stringdir 0550                 stringtab 0546           mapeo@limFisico 0079  
  __size_of_uint_to_char 0093               _OSC_config 02E4            ?_config_PORTS 0070  
            LCD_DATO@var 0072              ?_LCD_CURSOR 0076              ?_LCD_STRING 0074  
