

Microchip MPLAB XC8 Assembler V2.05 build -831301201 
                                                                                               Sun Mar 22 22:17:47 2020

Microchip MPLAB XC8 C Compiler v2.05 (Free license) build 20181220022703 Og1 
     1                           	processor	16F887
     2                           	opt	pw 120
     3                           	opt	flic
     4                           	psect	idataCOMMON,global,class=CODE,delta=2
     5                           	psect	idataBANK0,global,class=CODE,delta=2
     6                           	psect	cinit,global,class=CODE,merge=1,delta=2
     7                           	psect	bssCOMMON,global,class=COMMON,space=1,delta=1
     8                           	psect	dataCOMMON,global,class=COMMON,space=1,delta=1
     9                           	psect	dataBANK0,global,class=BANK0,space=1,delta=1
    10                           	psect	cstackCOMMON,global,class=COMMON,space=1,delta=1
    11                           	psect	cstackBANK0,global,class=BANK0,space=1,delta=1
    12                           	psect	maintext,global,class=CODE,split=1,delta=2
    13                           	psect	text1,local,class=CODE,merge=1,delta=2
    14                           	psect	text2,local,class=CODE,merge=1,delta=2
    15                           	psect	text3,local,class=CODE,merge=1,delta=2
    16                           	psect	text4,local,class=CODE,merge=1,delta=2
    17                           	psect	text5,local,class=CODE,merge=1,delta=2
    18                           	psect	intentry,global,class=CODE,delta=2
    19                           	dabs	1,0x7E,2
    20  0000                     
    21                           ; Version 2.05
    22                           ; Generated 20/12/2018 GMT
    23                           ; 
    24                           ; Copyright © 2018, Microchip Technology Inc. and its subsidiaries ("Microchip")
    25                           ; All rights reserved.
    26                           ; 
    27                           ; This software is developed by Microchip Technology Inc. and its subsidiaries ("Microch
      +                          ip").
    28                           ; 
    29                           ; Redistribution and use in source and binary forms, with or without modification, are
    30                           ; permitted provided that the following conditions are met:
    31                           ; 
    32                           ;     1. Redistributions of source code must retain the above copyright notice, this lis
      +                          t of
    33                           ;        conditions and the following disclaimer.
    34                           ; 
    35                           ;     2. Redistributions in binary form must reproduce the above copyright notice, this 
      +                          list
    36                           ;        of conditions and the following disclaimer in the documentation and/or other
    37                           ;        materials provided with the distribution.
    38                           ; 
    39                           ;     3. Microchip's name may not be used to endorse or promote products derived from th
      +                          is
    40                           ;        software without specific prior written permission.
    41                           ; 
    42                           ; THIS SOFTWARE IS PROVIDED BY MICROCHIP "AS IS" AND ANY EXPRESS OR IMPLIED WARRANTIES,
    43                           ; INCLUDING, BUT NOT LIMITED TO, THE IMPLIED WARRANTIES OF MERCHANTABILITY AND FITNESS F
      +                          OR
    44                           ; PURPOSE ARE DISCLAIMED.  IN NO EVENT SHALL MICROCHIP BE LIABLE FOR ANY DIRECT, INDIREC
      +                          T,
    45                           ; INCIDENTAL, SPECIAL, EXEMPLARY, OR CONSEQUENTIAL DAMAGES (INCLUDING BUT NOT LIMITED TO
    46                           ; PROCUREMENT OF SUBSTITUTE GOODS OR SERVICES; LOSS OF USE, DATA OR PROFITS; OR BUSINESS
    47                           ; INTERRUPTION) HOWSOEVER CAUSED AND ON ANY THEORY OF LIABILITY, WHETHER IN CONTRACT, ST
      +                          RICT
    48                           ; LIABILITY, OR TORT (INCLUDING NEGLIGENCE OR OTHERWISE) ARISING IN ANY WAY OUT OF THE U
      +                          SE OF
    49                           ; THIS SOFTWARE, EVEN IF ADVISED OF THE POSSIBILITY OF SUCH DAMAGE.
    50                           ; 
    51                           ; 
    52                           ; Code-generator required, PIC16F887 Definitions
    53                           ; 
    54                           ; SFR Addresses
    55  0000                     	;# 
    56  0001                     	;# 
    57  0002                     	;# 
    58  0003                     	;# 
    59  0004                     	;# 
    60  0005                     	;# 
    61  0006                     	;# 
    62  0007                     	;# 
    63  0008                     	;# 
    64  0009                     	;# 
    65  000A                     	;# 
    66  000B                     	;# 
    67  000C                     	;# 
    68  000D                     	;# 
    69  000E                     	;# 
    70  000E                     	;# 
    71  000F                     	;# 
    72  0010                     	;# 
    73  0011                     	;# 
    74  0012                     	;# 
    75  0013                     	;# 
    76  0014                     	;# 
    77  0015                     	;# 
    78  0015                     	;# 
    79  0016                     	;# 
    80  0017                     	;# 
    81  0018                     	;# 
    82  0019                     	;# 
    83  001A                     	;# 
    84  001B                     	;# 
    85  001B                     	;# 
    86  001C                     	;# 
    87  001D                     	;# 
    88  001E                     	;# 
    89  001F                     	;# 
    90  0081                     	;# 
    91  0085                     	;# 
    92  0086                     	;# 
    93  0087                     	;# 
    94  0088                     	;# 
    95  0089                     	;# 
    96  008C                     	;# 
    97  008D                     	;# 
    98  008E                     	;# 
    99  008F                     	;# 
   100  0090                     	;# 
   101  0091                     	;# 
   102  0092                     	;# 
   103  0093                     	;# 
   104  0093                     	;# 
   105  0093                     	;# 
   106  0094                     	;# 
   107  0095                     	;# 
   108  0096                     	;# 
   109  0097                     	;# 
   110  0098                     	;# 
   111  0099                     	;# 
   112  009A                     	;# 
   113  009B                     	;# 
   114  009C                     	;# 
   115  009D                     	;# 
   116  009E                     	;# 
   117  009F                     	;# 
   118  0105                     	;# 
   119  0107                     	;# 
   120  0108                     	;# 
   121  0109                     	;# 
   122  010C                     	;# 
   123  010C                     	;# 
   124  010D                     	;# 
   125  010E                     	;# 
   126  010F                     	;# 
   127  0185                     	;# 
   128  0187                     	;# 
   129  0188                     	;# 
   130  0189                     	;# 
   131  018C                     	;# 
   132  018D                     	;# 
   133  0000                     	;# 
   134  0001                     	;# 
   135  0002                     	;# 
   136  0003                     	;# 
   137  0004                     	;# 
   138  0005                     	;# 
   139  0006                     	;# 
   140  0007                     	;# 
   141  0008                     	;# 
   142  0009                     	;# 
   143  000A                     	;# 
   144  000B                     	;# 
   145  000C                     	;# 
   146  000D                     	;# 
   147  000E                     	;# 
   148  000E                     	;# 
   149  000F                     	;# 
   150  0010                     	;# 
   151  0011                     	;# 
   152  0012                     	;# 
   153  0013                     	;# 
   154  0014                     	;# 
   155  0015                     	;# 
   156  0015                     	;# 
   157  0016                     	;# 
   158  0017                     	;# 
   159  0018                     	;# 
   160  0019                     	;# 
   161  001A                     	;# 
   162  001B                     	;# 
   163  001B                     	;# 
   164  001C                     	;# 
   165  001D                     	;# 
   166  001E                     	;# 
   167  001F                     	;# 
   168  0081                     	;# 
   169  0085                     	;# 
   170  0086                     	;# 
   171  0087                     	;# 
   172  0088                     	;# 
   173  0089                     	;# 
   174  008C                     	;# 
   175  008D                     	;# 
   176  008E                     	;# 
   177  008F                     	;# 
   178  0090                     	;# 
   179  0091                     	;# 
   180  0092                     	;# 
   181  0093                     	;# 
   182  0093                     	;# 
   183  0093                     	;# 
   184  0094                     	;# 
   185  0095                     	;# 
   186  0096                     	;# 
   187  0097                     	;# 
   188  0098                     	;# 
   189  0099                     	;# 
   190  009A                     	;# 
   191  009B                     	;# 
   192  009C                     	;# 
   193  009D                     	;# 
   194  009E                     	;# 
   195  009F                     	;# 
   196  0105                     	;# 
   197  0107                     	;# 
   198  0108                     	;# 
   199  0109                     	;# 
   200  010C                     	;# 
   201  010C                     	;# 
   202  010D                     	;# 
   203  010E                     	;# 
   204  010F                     	;# 
   205  0185                     	;# 
   206  0187                     	;# 
   207  0188                     	;# 
   208  0189                     	;# 
   209  018C                     	;# 
   210  018D                     	;# 
   211  0000                     	;# 
   212  0001                     	;# 
   213  0002                     	;# 
   214  0003                     	;# 
   215  0004                     	;# 
   216  0005                     	;# 
   217  0006                     	;# 
   218  0007                     	;# 
   219  0008                     	;# 
   220  0009                     	;# 
   221  000A                     	;# 
   222  000B                     	;# 
   223  000C                     	;# 
   224  000D                     	;# 
   225  000E                     	;# 
   226  000E                     	;# 
   227  000F                     	;# 
   228  0010                     	;# 
   229  0011                     	;# 
   230  0012                     	;# 
   231  0013                     	;# 
   232  0014                     	;# 
   233  0015                     	;# 
   234  0015                     	;# 
   235  0016                     	;# 
   236  0017                     	;# 
   237  0018                     	;# 
   238  0019                     	;# 
   239  001A                     	;# 
   240  001B                     	;# 
   241  001B                     	;# 
   242  001C                     	;# 
   243  001D                     	;# 
   244  001E                     	;# 
   245  001F                     	;# 
   246  0081                     	;# 
   247  0085                     	;# 
   248  0086                     	;# 
   249  0087                     	;# 
   250  0088                     	;# 
   251  0089                     	;# 
   252  008C                     	;# 
   253  008D                     	;# 
   254  008E                     	;# 
   255  008F                     	;# 
   256  0090                     	;# 
   257  0091                     	;# 
   258  0092                     	;# 
   259  0093                     	;# 
   260  0093                     	;# 
   261  0093                     	;# 
   262  0094                     	;# 
   263  0095                     	;# 
   264  0096                     	;# 
   265  0097                     	;# 
   266  0098                     	;# 
   267  0099                     	;# 
   268  009A                     	;# 
   269  009B                     	;# 
   270  009C                     	;# 
   271  009D                     	;# 
   272  009E                     	;# 
   273  009F                     	;# 
   274  0105                     	;# 
   275  0107                     	;# 
   276  0108                     	;# 
   277  0109                     	;# 
   278  010C                     	;# 
   279  010C                     	;# 
   280  010D                     	;# 
   281  010E                     	;# 
   282  010F                     	;# 
   283  0185                     	;# 
   284  0187                     	;# 
   285  0188                     	;# 
   286  0189                     	;# 
   287  018C                     	;# 
   288  018D                     	;# 
   289  0000                     	;# 
   290  0001                     	;# 
   291  0002                     	;# 
   292  0003                     	;# 
   293  0004                     	;# 
   294  0005                     	;# 
   295  0006                     	;# 
   296  0007                     	;# 
   297  0008                     	;# 
   298  0009                     	;# 
   299  000A                     	;# 
   300  000B                     	;# 
   301  000C                     	;# 
   302  000D                     	;# 
   303  000E                     	;# 
   304  000E                     	;# 
   305  000F                     	;# 
   306  0010                     	;# 
   307  0011                     	;# 
   308  0012                     	;# 
   309  0013                     	;# 
   310  0014                     	;# 
   311  0015                     	;# 
   312  0015                     	;# 
   313  0016                     	;# 
   314  0017                     	;# 
   315  0018                     	;# 
   316  0019                     	;# 
   317  001A                     	;# 
   318  001B                     	;# 
   319  001B                     	;# 
   320  001C                     	;# 
   321  001D                     	;# 
   322  001E                     	;# 
   323  001F                     	;# 
   324  0081                     	;# 
   325  0085                     	;# 
   326  0086                     	;# 
   327  0087                     	;# 
   328  0088                     	;# 
   329  0089                     	;# 
   330  008C                     	;# 
   331  008D                     	;# 
   332  008E                     	;# 
   333  008F                     	;# 
   334  0090                     	;# 
   335  0091                     	;# 
   336  0092                     	;# 
   337  0093                     	;# 
   338  0093                     	;# 
   339  0093                     	;# 
   340  0094                     	;# 
   341  0095                     	;# 
   342  0096                     	;# 
   343  0097                     	;# 
   344  0098                     	;# 
   345  0099                     	;# 
   346  009A                     	;# 
   347  009B                     	;# 
   348  009C                     	;# 
   349  009D                     	;# 
   350  009E                     	;# 
   351  009F                     	;# 
   352  0105                     	;# 
   353  0107                     	;# 
   354  0108                     	;# 
   355  0109                     	;# 
   356  010C                     	;# 
   357  010C                     	;# 
   358  010D                     	;# 
   359  010E                     	;# 
   360  010F                     	;# 
   361  0185                     	;# 
   362  0187                     	;# 
   363  0188                     	;# 
   364  0189                     	;# 
   365  018C                     	;# 
   366  018D                     	;# 
   367  0000                     	;# 
   368  0001                     	;# 
   369  0002                     	;# 
   370  0003                     	;# 
   371  0004                     	;# 
   372  0005                     	;# 
   373  0006                     	;# 
   374  0007                     	;# 
   375  0008                     	;# 
   376  0009                     	;# 
   377  000A                     	;# 
   378  000B                     	;# 
   379  000C                     	;# 
   380  000D                     	;# 
   381  000E                     	;# 
   382  000E                     	;# 
   383  000F                     	;# 
   384  0010                     	;# 
   385  0011                     	;# 
   386  0012                     	;# 
   387  0013                     	;# 
   388  0014                     	;# 
   389  0015                     	;# 
   390  0015                     	;# 
   391  0016                     	;# 
   392  0017                     	;# 
   393  0018                     	;# 
   394  0019                     	;# 
   395  001A                     	;# 
   396  001B                     	;# 
   397  001B                     	;# 
   398  001C                     	;# 
   399  001D                     	;# 
   400  001E                     	;# 
   401  001F                     	;# 
   402  0081                     	;# 
   403  0085                     	;# 
   404  0086                     	;# 
   405  0087                     	;# 
   406  0088                     	;# 
   407  0089                     	;# 
   408  008C                     	;# 
   409  008D                     	;# 
   410  008E                     	;# 
   411  008F                     	;# 
   412  0090                     	;# 
   413  0091                     	;# 
   414  0092                     	;# 
   415  0093                     	;# 
   416  0093                     	;# 
   417  0093                     	;# 
   418  0094                     	;# 
   419  0095                     	;# 
   420  0096                     	;# 
   421  0097                     	;# 
   422  0098                     	;# 
   423  0099                     	;# 
   424  009A                     	;# 
   425  009B                     	;# 
   426  009C                     	;# 
   427  009D                     	;# 
   428  009E                     	;# 
   429  009F                     	;# 
   430  0105                     	;# 
   431  0107                     	;# 
   432  0108                     	;# 
   433  0109                     	;# 
   434  010C                     	;# 
   435  010C                     	;# 
   436  010D                     	;# 
   437  010E                     	;# 
   438  010F                     	;# 
   439  0185                     	;# 
   440  0187                     	;# 
   441  0188                     	;# 
   442  0189                     	;# 
   443  018C                     	;# 
   444  018D                     	;# 
   445                           
   446                           	psect	idataCOMMON
   447  018C                     __pidataCOMMON:	
   448                           
   449                           ;initializer for _registro
   450  018C  3417               	retlw	23
   451  018D  3414               	retlw	20
   452                           
   453                           	psect	idataBANK0
   454  0188                     __pidataBANK0:	
   455                           
   456                           ;initializer for _distancia_2
   457  0188  341E               	retlw	30
   458  0189  3400               	retlw	0
   459                           
   460                           ;initializer for _distancia_1
   461  018A  3414               	retlw	20
   462  018B  3400               	retlw	0
   463  0015                     _CCPR1L	set	21
   464  0017                     _CCP1CONbits	set	23
   465  0012                     _T2CONbits	set	18
   466  001B                     _CCPR2L	set	27
   467  001D                     _CCP2CONbits	set	29
   468  0014                     _SSPCON	set	20
   469  0010                     _T1CONbits	set	16
   470  0005                     _PORTAbits	set	5
   471  000F                     _TMR1H	set	15
   472  000E                     _TMR1L	set	14
   473  0010                     _T1CON	set	16
   474  0008                     _PORTD	set	8
   475  0006                     _PORTB	set	6
   476  0013                     _SSPBUF	set	19
   477  0014                     _SSPCONbits	set	20
   478  000C                     _PIR1bits	set	12
   479  0045                     _RD5	set	69
   480  0044                     _RD4	set	68
   481  002F                     _RA7	set	47
   482  002E                     _RA6	set	46
   483  0043                     _RD3	set	67
   484  0042                     _RD2	set	66
   485  0041                     _RD1	set	65
   486  0040                     _RD0	set	64
   487  0063                     _SSPIF	set	99
   488  005E                     _PEIE	set	94
   489  005F                     _GIE	set	95
   490  0092                     _PR2	set	146
   491  0091                     _SSPCON2bits	set	145
   492  0087                     _TRISCbits	set	135
   493  0094                     _SSPSTAT	set	148
   494  0093                     _SSPADD	set	147
   495  0091                     _SSPCON2	set	145
   496  008F                     _OSCCONbits	set	143
   497  0088                     _TRISD	set	136
   498  0086                     _TRISB	set	134
   499  0085                     _TRISA	set	133
   500  0094                     _SSPSTATbits	set	148
   501  0463                     _SSPIE	set	1123
   502  043C                     _TRISC4	set	1084
   503  043B                     _TRISC3	set	1083
   504  04A0                     _BF	set	1184
   505  0189                     _ANSELH	set	393
   506  0188                     _ANSEL	set	392
   507                           
   508                           ; #config settings
   509  0000                     
   510                           	psect	cinit
   511  0011                     start_initialization:	
   512  0011                     __initialization:	
   513                           
   514                           ; Initialize objects allocated to BANK0
   515  0011  120A  118A  2188  120A  118A  	fcall	__pidataBANK0	;fetch initializer
   516  0016  00A0               	movwf	__pdataBANK0& (0+127)
   517  0017  120A  118A  2189  120A  118A  	fcall	__pidataBANK0+1	;fetch initializer
   518  001C  00A1               	movwf	(__pdataBANK0+1)& (0+127)
   519  001D  120A  118A  218A  120A  118A  	fcall	__pidataBANK0+2	;fetch initializer
   520  0022  00A2               	movwf	(__pdataBANK0+2)& (0+127)
   521  0023  120A  118A  218B  120A  118A  	fcall	__pidataBANK0+3	;fetch initializer
   522  0028  00A3               	movwf	(__pdataBANK0+3)& (0+127)
   523                           
   524                           ; Initialize objects allocated to COMMON
   525  0029  120A  118A  218C  120A  118A  	fcall	__pidataCOMMON	;fetch initializer
   526  002E  00F8               	movwf	__pdataCOMMON& (0+127)
   527  002F  120A  118A  218D   	fcall	__pidataCOMMON+1	;fetch initializer
   528  0032  00F9               	movwf	(__pdataCOMMON+1)& (0+127)
   529                           
   530                           ; Clear objects allocated to COMMON
   531  0033  01F0               	clrf	__pbssCOMMON& (0+127)
   532  0034  01F1               	clrf	(__pbssCOMMON+1)& (0+127)
   533  0035  01F2               	clrf	(__pbssCOMMON+2)& (0+127)
   534  0036  01F3               	clrf	(__pbssCOMMON+3)& (0+127)
   535  0037                     end_of_initialization:	
   536                           ;End of C runtime variable initialization code
   537                           
   538  0037                     __end_of__initialization:	
   539  0037  0183               	clrf	3
   540  0038  120A  118A  28F9   	ljmp	_main	;jump to C main() function
   541                           
   542                           	psect	bssCOMMON
   543  0070                     __pbssCOMMON:	
   544  0070                     _instr:	
   545  0070                     	ds	1
   546  0071                     _ind_reg:	
   547  0071                     	ds	1
   548  0072                     _z:	
   549  0072                     	ds	1
   550  0073                     _enviar:	
   551  0073                     	ds	1
   552                           
   553                           	psect	dataCOMMON
   554  0078                     __pdataCOMMON:	
   555  0078                     _registro:	
   556  0078                     	ds	2
   557                           
   558                           	psect	dataBANK0
   559  0020                     __pdataBANK0:	
   560  0020                     _distancia_2:	
   561  0020                     	ds	2
   562  0022                     _distancia_1:	
   563  0022                     	ds	2
   564                           
   565                           	psect	cstackCOMMON
   566  0074                     __pcstackCOMMON:	
   567  0074                     ?_oscillator:	
   568  0074                     ?_init_PWM_1:	
   569                           ; 1 bytes @ 0x0
   570                           
   571  0074                     ?_init_PWM_2:	
   572                           ; 1 bytes @ 0x0
   573                           
   574  0074                     ?_I2C_Slave_Init:	
   575                           ; 1 bytes @ 0x0
   576                           
   577  0074                     ?_ISR:	
   578                           ; 1 bytes @ 0x0
   579                           
   580  0074                     ??_ISR:	
   581                           ; 1 bytes @ 0x0
   582                           
   583  0074                     ?_main:	
   584                           ; 1 bytes @ 0x0
   585                           
   586                           
   587                           ; 1 bytes @ 0x0
   588  0074                     	ds	4
   589  0078                     ??_init_PWM_1:	
   590  0078                     ??_init_PWM_2:	
   591                           ; 1 bytes @ 0x4
   592                           
   593  0078                     ??_I2C_Slave_Init:	
   594                           ; 1 bytes @ 0x4
   595                           
   596                           
   597                           	psect	cstackBANK0
   598  0024                     __pcstackBANK0:	
   599                           ; 1 bytes @ 0x4
   600                           
   601  0024                     ??_oscillator:	
   602  0024                     I2C_Slave_Init@address:	
   603                           ; 1 bytes @ 0x0
   604                           
   605                           
   606                           ; 1 bytes @ 0x0
   607  0024                     	ds	2
   608  0026                     oscillator@a:	
   609                           
   610                           ; 1 bytes @ 0x2
   611  0026                     	ds	1
   612  0027                     ??_main:	
   613                           
   614                           ; 1 bytes @ 0x3
   615  0027                     	ds	1
   616                           
   617                           	psect	maintext
   618  00F9                     __pmaintext:	
   619 ;;
   620 ;;Main: autosize = 0, tempsize = 1, incstack = 0, save=0
   621 ;;
   622 ;; *************** function _main *****************
   623 ;; Defined at:
   624 ;;		line 77 in file "newmain.c"
   625 ;; Parameters:    Size  Location     Type
   626 ;;		None
   627 ;; Auto vars:     Size  Location     Type
   628 ;;		None
   629 ;; Return value:  Size  Location     Type
   630 ;;                  1    wreg      void 
   631 ;; Registers used:
   632 ;;		wreg, fsr0l, fsr0h, status,2, status,0, pclath, cstack
   633 ;; Tracked objects:
   634 ;;		On entry : B00/0
   635 ;;		On exit  : 0/0
   636 ;;		Unchanged: 0/0
   637 ;; Data sizes:     COMMON   BANK0   BANK1   BANK3   BANK2
   638 ;;      Params:         0       0       0       0       0
   639 ;;      Locals:         0       0       0       0       0
   640 ;;      Temps:          0       1       0       0       0
   641 ;;      Totals:         0       1       0       0       0
   642 ;;Total ram usage:        1 bytes
   643 ;; Hardware stack levels required when called:    2
   644 ;; This function calls:
   645 ;;		_I2C_Slave_Init
   646 ;;		_init_PWM_1
   647 ;;		_init_PWM_2
   648 ;;		_oscillator
   649 ;; This function is called by:
   650 ;;		Startup code after reset
   651 ;; This function uses a non-reentrant model
   652 ;;
   653                           
   654                           
   655                           ;psect for function _main
   656  00F9                     _main:	
   657                           
   658                           ;newmain.c: 78:     oscillator(7);
   659                           
   660                           ;incstack = 0
   661                           ; Regs used in _main: [wreg-fsr0h+status,2+status,0+pclath+cstack]
   662  00F9  3007               	movlw	7
   663  00FA  120A  118A  20A4  120A  118A  	fcall	_oscillator
   664                           
   665                           ;newmain.c: 79:     TRISA = 0b00010010;
   666  00FF  3012               	movlw	18
   667  0100  1683               	bsf	3,5	;RP0=1, select bank1
   668  0101  1303               	bcf	3,6	;RP1=0, select bank1
   669  0102  0085               	movwf	5	;volatile
   670                           
   671                           ;newmain.c: 80:     ANSEL = 0;
   672  0103  1683               	bsf	3,5	;RP0=1, select bank3
   673  0104  1703               	bsf	3,6	;RP1=1, select bank3
   674  0105  0188               	clrf	8	;volatile
   675                           
   676                           ;newmain.c: 81:     PORTB = 0x00;
   677  0106  1283               	bcf	3,5	;RP0=0, select bank0
   678  0107  1303               	bcf	3,6	;RP1=0, select bank0
   679  0108  0186               	clrf	6	;volatile
   680                           
   681                           ;newmain.c: 82:     TRISB = 0x00;
   682  0109  1683               	bsf	3,5	;RP0=1, select bank1
   683  010A  1303               	bcf	3,6	;RP1=0, select bank1
   684  010B  0186               	clrf	6	;volatile
   685                           
   686                           ;newmain.c: 83:     ANSELH = 0x00;
   687  010C  1683               	bsf	3,5	;RP0=1, select bank3
   688  010D  1703               	bsf	3,6	;RP1=1, select bank3
   689  010E  0189               	clrf	9	;volatile
   690                           
   691                           ;newmain.c: 84:     PORTD = 0x00;
   692  010F  1283               	bcf	3,5	;RP0=0, select bank0
   693  0110  1303               	bcf	3,6	;RP1=0, select bank0
   694  0111  0188               	clrf	8	;volatile
   695                           
   696                           ;newmain.c: 85:     TRISD = 0x00;
   697  0112  1683               	bsf	3,5	;RP0=1, select bank1
   698  0113  1303               	bcf	3,6	;RP1=0, select bank1
   699  0114  0188               	clrf	8	;volatile
   700                           
   701                           ;newmain.c: 87:     init_PWM_1();
   702  0115  120A  118A  216D  120A  118A  	fcall	_init_PWM_1
   703                           
   704                           ;newmain.c: 88:     init_PWM_2();
   705  011A  120A  118A  2152  120A  118A  	fcall	_init_PWM_2
   706                           
   707                           ;newmain.c: 91:     T1CON = 0x10;
   708  011F  3010               	movlw	16
   709  0120  1283               	bcf	3,5	;RP0=0, select bank0
   710  0121  1303               	bcf	3,6	;RP1=0, select bank0
   711  0122  0090               	movwf	16	;volatile
   712                           
   713                           ;newmain.c: 92:     I2C_Slave_Init(0x30);
   714  0123  3030               	movlw	48
   715  0124  120A  118A  2136  120A  118A  	fcall	_I2C_Slave_Init
   716  0129                     l1356:	
   717                           
   718                           ;newmain.c: 98:         PORTB = instr;
   719  0129  0870               	movf	_instr,w
   720  012A  1283               	bcf	3,5	;RP0=0, select bank0
   721  012B  1303               	bcf	3,6	;RP1=0, select bank0
   722  012C  0086               	movwf	6	;volatile
   723                           
   724                           ;newmain.c: 99:         registro[0] = distancia_1;
   725  012D  3014               	movlw	20
   726  012E  00A7               	movwf	??_main
   727  012F  0827               	movf	??_main,w
   728  0130  00F8               	movwf	_registro
   729                           
   730                           ;newmain.c: 100:         registro[1] = distancia_2;
   731  0131  301E               	movlw	30
   732  0132  00A7               	movwf	??_main
   733  0133  0827               	movf	??_main,w
   734  0134  00F9               	movwf	_registro+1
   735  0135  2929               	goto	l1356
   736  0136                     __end_of_main:	
   737                           
   738                           	psect	text1
   739  00A4                     __ptext1:	
   740 ;; *************** function _oscillator *****************
   741 ;; Defined at:
   742 ;;		line 138 in file "funciones.c"
   743 ;; Parameters:    Size  Location     Type
   744 ;;  a               1    wreg     unsigned char 
   745 ;; Auto vars:     Size  Location     Type
   746 ;;  a               1    2[BANK0 ] unsigned char 
   747 ;; Return value:  Size  Location     Type
   748 ;;                  1    wreg      void 
   749 ;; Registers used:
   750 ;;		wreg, fsr0l, fsr0h, status,2, status,0
   751 ;; Tracked objects:
   752 ;;		On entry : 0/0
   753 ;;		On exit  : 0/0
   754 ;;		Unchanged: 0/0
   755 ;; Data sizes:     COMMON   BANK0   BANK1   BANK3   BANK2
   756 ;;      Params:         0       0       0       0       0
   757 ;;      Locals:         0       1       0       0       0
   758 ;;      Temps:          0       2       0       0       0
   759 ;;      Totals:         0       3       0       0       0
   760 ;;Total ram usage:        3 bytes
   761 ;; Hardware stack levels used:    1
   762 ;; Hardware stack levels required when called:    1
   763 ;; This function calls:
   764 ;;		Nothing
   765 ;; This function is called by:
   766 ;;		_main
   767 ;; This function uses a non-reentrant model
   768 ;;
   769                           
   770                           
   771                           ;psect for function _oscillator
   772  00A4                     _oscillator:	
   773                           
   774                           ;incstack = 0
   775                           ; Regs used in _oscillator: [wreg-fsr0h+status,2+status,0]
   776                           ;oscillator@a stored from wreg
   777  00A4  1283               	bcf	3,5	;RP0=0, select bank0
   778  00A5  1303               	bcf	3,6	;RP1=0, select bank0
   779  00A6  00A6               	movwf	oscillator@a
   780                           
   781                           ;funciones.c: 139:     switch(a){
   782  00A7  28D6               	goto	l1310
   783  00A8                     l110:	
   784                           ;funciones.c: 140:         case 0:
   785                           
   786                           
   787                           ;funciones.c: 141:             OSCCONbits.IRCF2 = 0;
   788  00A8  1683               	bsf	3,5	;RP0=1, select bank1
   789  00A9  1303               	bcf	3,6	;RP1=0, select bank1
   790  00AA  130F               	bcf	15,6	;volatile
   791                           
   792                           ;funciones.c: 142:             OSCCONbits.IRCF1 = 0;
   793  00AB  128F               	bcf	15,5	;volatile
   794                           
   795                           ;funciones.c: 143:             OSCCONbits.IRCF0 = 0;
   796  00AC  120F               	bcf	15,4	;volatile
   797  00AD                     l111:	
   798                           ;funciones.c: 144:         case 1:
   799                           
   800                           
   801                           ;funciones.c: 145:             OSCCONbits.IRCF2 = 0;
   802  00AD  1683               	bsf	3,5	;RP0=1, select bank1
   803  00AE  1303               	bcf	3,6	;RP1=0, select bank1
   804  00AF  130F               	bcf	15,6	;volatile
   805                           
   806                           ;funciones.c: 146:             OSCCONbits.IRCF1 = 0;
   807  00B0  128F               	bcf	15,5	;volatile
   808                           
   809                           ;funciones.c: 147:             OSCCONbits.IRCF0 = 1;
   810  00B1  160F               	bsf	15,4	;volatile
   811  00B2                     l112:	
   812                           ;funciones.c: 148:         case 2:
   813                           
   814                           
   815                           ;funciones.c: 149:             OSCCONbits.IRCF2 = 0;
   816  00B2  1683               	bsf	3,5	;RP0=1, select bank1
   817  00B3  1303               	bcf	3,6	;RP1=0, select bank1
   818  00B4  130F               	bcf	15,6	;volatile
   819                           
   820                           ;funciones.c: 150:             OSCCONbits.IRCF1 = 1;
   821  00B5  168F               	bsf	15,5	;volatile
   822                           
   823                           ;funciones.c: 151:             OSCCONbits.IRCF0 = 0;
   824  00B6  120F               	bcf	15,4	;volatile
   825  00B7                     l113:	
   826                           ;funciones.c: 152:         case 3:
   827                           
   828                           
   829                           ;funciones.c: 153:             OSCCONbits.IRCF2 = 0;
   830  00B7  1683               	bsf	3,5	;RP0=1, select bank1
   831  00B8  1303               	bcf	3,6	;RP1=0, select bank1
   832  00B9  130F               	bcf	15,6	;volatile
   833                           
   834                           ;funciones.c: 154:             OSCCONbits.IRCF1 = 1;
   835  00BA  168F               	bsf	15,5	;volatile
   836                           
   837                           ;funciones.c: 155:             OSCCONbits.IRCF0 = 1;
   838  00BB  160F               	bsf	15,4	;volatile
   839  00BC                     l114:	
   840                           ;funciones.c: 156:         case 4:
   841                           
   842                           
   843                           ;funciones.c: 157:             OSCCONbits.IRCF2 = 1;
   844  00BC  1683               	bsf	3,5	;RP0=1, select bank1
   845  00BD  1303               	bcf	3,6	;RP1=0, select bank1
   846  00BE  170F               	bsf	15,6	;volatile
   847                           
   848                           ;funciones.c: 158:             OSCCONbits.IRCF1 = 0;
   849  00BF  128F               	bcf	15,5	;volatile
   850                           
   851                           ;funciones.c: 159:             OSCCONbits.IRCF0 = 0;
   852  00C0  120F               	bcf	15,4	;volatile
   853  00C1                     l115:	
   854                           ;funciones.c: 160:         case 5:
   855                           
   856                           
   857                           ;funciones.c: 161:             OSCCONbits.IRCF2 = 1;
   858  00C1  1683               	bsf	3,5	;RP0=1, select bank1
   859  00C2  1303               	bcf	3,6	;RP1=0, select bank1
   860  00C3  170F               	bsf	15,6	;volatile
   861                           
   862                           ;funciones.c: 162:             OSCCONbits.IRCF1 = 0;
   863  00C4  128F               	bcf	15,5	;volatile
   864                           
   865                           ;funciones.c: 163:             OSCCONbits.IRCF0 = 1;
   866  00C5  160F               	bsf	15,4	;volatile
   867  00C6                     l116:	
   868                           ;funciones.c: 164:         case 6:
   869                           
   870                           
   871                           ;funciones.c: 165:             OSCCONbits.IRCF2 = 1;
   872  00C6  1683               	bsf	3,5	;RP0=1, select bank1
   873  00C7  1303               	bcf	3,6	;RP1=0, select bank1
   874  00C8  170F               	bsf	15,6	;volatile
   875                           
   876                           ;funciones.c: 166:             OSCCONbits.IRCF1 = 1;
   877  00C9  168F               	bsf	15,5	;volatile
   878                           
   879                           ;funciones.c: 167:             OSCCONbits.IRCF0 = 0;
   880  00CA  120F               	bcf	15,4	;volatile
   881  00CB                     l117:	
   882                           ;funciones.c: 168:         case 7:
   883                           
   884                           
   885                           ;funciones.c: 169:             OSCCONbits.IRCF2 = 1;
   886  00CB  1683               	bsf	3,5	;RP0=1, select bank1
   887  00CC  1303               	bcf	3,6	;RP1=0, select bank1
   888  00CD  170F               	bsf	15,6	;volatile
   889                           
   890                           ;funciones.c: 170:             OSCCONbits.IRCF1 = 1;
   891  00CE  168F               	bsf	15,5	;volatile
   892                           
   893                           ;funciones.c: 171:             OSCCONbits.IRCF0 = 1;
   894  00CF  160F               	bsf	15,4	;volatile
   895  00D0                     l118:	
   896                           ;funciones.c: 172:         default:
   897                           
   898                           
   899                           ;funciones.c: 173:             OSCCONbits.IRCF2 = 1;
   900  00D0  1683               	bsf	3,5	;RP0=1, select bank1
   901  00D1  1303               	bcf	3,6	;RP1=0, select bank1
   902  00D2  170F               	bsf	15,6	;volatile
   903                           
   904                           ;funciones.c: 174:             OSCCONbits.IRCF1 = 1;
   905  00D3  168F               	bsf	15,5	;volatile
   906                           
   907                           ;funciones.c: 175:             OSCCONbits.IRCF0 = 0;
   908  00D4  120F               	bcf	15,4	;volatile
   909                           
   910                           ;funciones.c: 176:     }
   911  00D5  0008               	return
   912  00D6                     l1310:	
   913  00D6  0826               	movf	oscillator@a,w
   914  00D7  00A4               	movwf	??_oscillator
   915  00D8  01A5               	clrf	??_oscillator+1
   916                           
   917                           ; Switch on 2 bytes has been partitioned into a top level switch of size 1, and 1 sub-sw
      +                          itches
   918                           ; Switch size 1, requested type "simple"
   919                           ; Number of cases is 1, Range of values is 0 to 0
   920                           ; switch strategies available:
   921                           ; Name         Instructions Cycles
   922                           ; simple_byte            4     3 (average)
   923                           ; direct_byte           11     8 (fixed)
   924                           ; jumptable            260     6 (fixed)
   925                           ;	Chosen strategy is simple_byte
   926  00D9  0825               	movf	??_oscillator+1,w
   927  00DA  3A00               	xorlw	0	; case 0
   928  00DB  1903               	skipnz
   929  00DC  28DE               	goto	l1392
   930  00DD  28D0               	goto	l118
   931  00DE                     l1392:	
   932                           
   933                           ; Switch size 1, requested type "simple"
   934                           ; Number of cases is 8, Range of values is 0 to 7
   935                           ; switch strategies available:
   936                           ; Name         Instructions Cycles
   937                           ; simple_byte           25    13 (average)
   938                           ; direct_byte           32     8 (fixed)
   939                           ; jumptable            260     6 (fixed)
   940                           ;	Chosen strategy is simple_byte
   941  00DE  0824               	movf	??_oscillator,w
   942  00DF  3A00               	xorlw	0	; case 0
   943  00E0  1903               	skipnz
   944  00E1  28A8               	goto	l110
   945  00E2  3A01               	xorlw	1	; case 1
   946  00E3  1903               	skipnz
   947  00E4  28AD               	goto	l111
   948  00E5  3A03               	xorlw	3	; case 2
   949  00E6  1903               	skipnz
   950  00E7  28B2               	goto	l112
   951  00E8  3A01               	xorlw	1	; case 3
   952  00E9  1903               	skipnz
   953  00EA  28B7               	goto	l113
   954  00EB  3A07               	xorlw	7	; case 4
   955  00EC  1903               	skipnz
   956  00ED  28BC               	goto	l114
   957  00EE  3A01               	xorlw	1	; case 5
   958  00EF  1903               	skipnz
   959  00F0  28C1               	goto	l115
   960  00F1  3A03               	xorlw	3	; case 6
   961  00F2  1903               	skipnz
   962  00F3  28C6               	goto	l116
   963  00F4  3A01               	xorlw	1	; case 7
   964  00F5  1903               	skipnz
   965  00F6  28CB               	goto	l117
   966  00F7  28D0               	goto	l118
   967  00F8  0008               	return
   968  00F9                     __end_of_oscillator:	
   969                           
   970                           	psect	text2
   971  0152                     __ptext2:	
   972 ;; *************** function _init_PWM_2 *****************
   973 ;; Defined at:
   974 ;;		line 26 in file "PWM.c"
   975 ;; Parameters:    Size  Location     Type
   976 ;;		None
   977 ;; Auto vars:     Size  Location     Type
   978 ;;		None
   979 ;; Return value:  Size  Location     Type
   980 ;;                  1    wreg      void 
   981 ;; Registers used:
   982 ;;		wreg
   983 ;; Tracked objects:
   984 ;;		On entry : 0/0
   985 ;;		On exit  : 0/0
   986 ;;		Unchanged: 0/0
   987 ;; Data sizes:     COMMON   BANK0   BANK1   BANK3   BANK2
   988 ;;      Params:         0       0       0       0       0
   989 ;;      Locals:         0       0       0       0       0
   990 ;;      Temps:          0       0       0       0       0
   991 ;;      Totals:         0       0       0       0       0
   992 ;;Total ram usage:        0 bytes
   993 ;; Hardware stack levels used:    1
   994 ;; Hardware stack levels required when called:    1
   995 ;; This function calls:
   996 ;;		Nothing
   997 ;; This function is called by:
   998 ;;		_main
   999 ;; This function uses a non-reentrant model
  1000 ;;
  1001                           
  1002                           
  1003                           ;psect for function _init_PWM_2
  1004  0152                     _init_PWM_2:	
  1005                           
  1006                           ;PWM.c: 27:     TRISCbits.TRISC1 = 1;
  1007                           
  1008                           ;incstack = 0
  1009                           ; Regs used in _init_PWM_2: [wreg]
  1010  0152  1683               	bsf	3,5	;RP0=1, select bank1
  1011  0153  1303               	bcf	3,6	;RP1=0, select bank1
  1012  0154  1487               	bsf	7,1	;volatile
  1013                           
  1014                           ;PWM.c: 29:     PR2 = 255;
  1015  0155  30FF               	movlw	255
  1016  0156  0092               	movwf	18	;volatile
  1017                           
  1018                           ;PWM.c: 31:     CCP2CONbits.CCP2M3 = 1;
  1019  0157  1283               	bcf	3,5	;RP0=0, select bank0
  1020  0158  1303               	bcf	3,6	;RP1=0, select bank0
  1021  0159  159D               	bsf	29,3	;volatile
  1022                           
  1023                           ;PWM.c: 32:     CCP2CONbits.CCP2M2 = 1;
  1024  015A  151D               	bsf	29,2	;volatile
  1025                           
  1026                           ;PWM.c: 33:     CCP2CONbits.CCP2M1 = 1;
  1027  015B  149D               	bsf	29,1	;volatile
  1028                           
  1029                           ;PWM.c: 34:     CCP2CONbits.CCP2M0 = 1;
  1030  015C  141D               	bsf	29,0	;volatile
  1031                           
  1032                           ;PWM.c: 37:     CCPR2L = 0b10011001;
  1033  015D  3099               	movlw	153
  1034  015E  009B               	movwf	27	;volatile
  1035                           
  1036                           ;PWM.c: 38:     CCP2CONbits.DC2B0 = 0;
  1037  015F  121D               	bcf	29,4	;volatile
  1038                           
  1039                           ;PWM.c: 39:     CCP2CONbits.DC2B1 = 0;
  1040  0160  129D               	bcf	29,5	;volatile
  1041                           
  1042                           ;PWM.c: 41:     PIR1bits.TMR2IF = 0;
  1043  0161  108C               	bcf	12,1	;volatile
  1044                           
  1045                           ;PWM.c: 42:     T2CONbits.T2CKPS1 = 1;
  1046  0162  1492               	bsf	18,1	;volatile
  1047                           
  1048                           ;PWM.c: 43:     T2CONbits.T2CKPS0 = 1;
  1049  0163  1412               	bsf	18,0	;volatile
  1050                           
  1051                           ;PWM.c: 45:     T2CONbits.TMR2ON = 1;
  1052  0164  1512               	bsf	18,2	;volatile
  1053  0165                     l214:	
  1054                           ;PWM.c: 49:     }
  1055                           
  1056                           ;PWM.c: 47:     while(PIR1bits.TMR2IF == 1){
  1057                           
  1058                           
  1059                           ;PWM.c: 47:     while(PIR1bits.TMR2IF == 1){
  1060  0165  1C8C               	btfss	12,1	;volatile
  1061  0166  2969               	goto	l216
  1062                           
  1063                           ;PWM.c: 48:         PIR1bits.TMR2IF = 0;
  1064  0167  108C               	bcf	12,1	;volatile
  1065  0168  2965               	goto	l214
  1066  0169                     l216:	
  1067                           
  1068                           ;PWM.c: 51:     TRISCbits.TRISC1 = 0;
  1069  0169  1683               	bsf	3,5	;RP0=1, select bank1
  1070  016A  1303               	bcf	3,6	;RP1=0, select bank1
  1071  016B  1087               	bcf	7,1	;volatile
  1072  016C  0008               	return
  1073  016D                     __end_of_init_PWM_2:	
  1074                           
  1075                           	psect	text3
  1076  016D                     __ptext3:	
  1077 ;; *************** function _init_PWM_1 *****************
  1078 ;; Defined at:
  1079 ;;		line 54 in file "PWM.c"
  1080 ;; Parameters:    Size  Location     Type
  1081 ;;		None
  1082 ;; Auto vars:     Size  Location     Type
  1083 ;;		None
  1084 ;; Return value:  Size  Location     Type
  1085 ;;                  1    wreg      void 
  1086 ;; Registers used:
  1087 ;;		wreg
  1088 ;; Tracked objects:
  1089 ;;		On entry : 0/0
  1090 ;;		On exit  : 0/0
  1091 ;;		Unchanged: 0/0
  1092 ;; Data sizes:     COMMON   BANK0   BANK1   BANK3   BANK2
  1093 ;;      Params:         0       0       0       0       0
  1094 ;;      Locals:         0       0       0       0       0
  1095 ;;      Temps:          0       0       0       0       0
  1096 ;;      Totals:         0       0       0       0       0
  1097 ;;Total ram usage:        0 bytes
  1098 ;; Hardware stack levels used:    1
  1099 ;; Hardware stack levels required when called:    1
  1100 ;; This function calls:
  1101 ;;		Nothing
  1102 ;; This function is called by:
  1103 ;;		_main
  1104 ;; This function uses a non-reentrant model
  1105 ;;
  1106                           
  1107                           
  1108                           ;psect for function _init_PWM_1
  1109  016D                     _init_PWM_1:	
  1110                           
  1111                           ;PWM.c: 55:     TRISCbits.TRISC2 = 1;
  1112                           
  1113                           ;incstack = 0
  1114                           ; Regs used in _init_PWM_1: [wreg]
  1115  016D  1683               	bsf	3,5	;RP0=1, select bank1
  1116  016E  1303               	bcf	3,6	;RP1=0, select bank1
  1117  016F  1507               	bsf	7,2	;volatile
  1118                           
  1119                           ;PWM.c: 59:     CCP1CONbits.CCP1M3 = 1;
  1120  0170  1283               	bcf	3,5	;RP0=0, select bank0
  1121  0171  1303               	bcf	3,6	;RP1=0, select bank0
  1122  0172  1597               	bsf	23,3	;volatile
  1123                           
  1124                           ;PWM.c: 60:     CCP1CONbits.CCP1M2 = 1;
  1125  0173  1517               	bsf	23,2	;volatile
  1126                           
  1127                           ;PWM.c: 61:     CCP1CONbits.CCP1M1 = 0;
  1128  0174  1097               	bcf	23,1	;volatile
  1129                           
  1130                           ;PWM.c: 62:     CCP1CONbits.CCP1M0 = 0;
  1131  0175  1017               	bcf	23,0	;volatile
  1132                           
  1133                           ;PWM.c: 64:     CCP1CONbits.P1M1 = 0;
  1134  0176  1397               	bcf	23,7	;volatile
  1135                           
  1136                           ;PWM.c: 65:     CCP1CONbits.P1M0 = 0;
  1137  0177  1317               	bcf	23,6	;volatile
  1138                           
  1139                           ;PWM.c: 68:     CCPR1L = 0b10011001;
  1140  0178  3099               	movlw	153
  1141  0179  0095               	movwf	21	;volatile
  1142                           
  1143                           ;PWM.c: 69:     CCP1CONbits.DC1B0 = 0;
  1144  017A  1217               	bcf	23,4	;volatile
  1145                           
  1146                           ;PWM.c: 70:     CCP1CONbits.DC1B1 = 0;
  1147  017B  1297               	bcf	23,5	;volatile
  1148                           
  1149                           ;PWM.c: 72:     PIR1bits.TMR2IF = 0;
  1150  017C  108C               	bcf	12,1	;volatile
  1151                           
  1152                           ;PWM.c: 73:     T2CONbits.T2CKPS1 = 1;
  1153  017D  1492               	bsf	18,1	;volatile
  1154                           
  1155                           ;PWM.c: 74:     T2CONbits.T2CKPS0 = 1;
  1156  017E  1412               	bsf	18,0	;volatile
  1157                           
  1158                           ;PWM.c: 76:     T2CONbits.TMR2ON = 1;
  1159  017F  1512               	bsf	18,2	;volatile
  1160  0180                     l220:	
  1161                           ;PWM.c: 80:     }
  1162                           
  1163                           ;PWM.c: 78:     while(PIR1bits.TMR2IF == 1){
  1164                           
  1165                           
  1166                           ;PWM.c: 78:     while(PIR1bits.TMR2IF == 1){
  1167  0180  1C8C               	btfss	12,1	;volatile
  1168  0181  2984               	goto	l222
  1169                           
  1170                           ;PWM.c: 79:         PIR1bits.TMR2IF = 0;
  1171  0182  108C               	bcf	12,1	;volatile
  1172  0183  2980               	goto	l220
  1173  0184                     l222:	
  1174                           
  1175                           ;PWM.c: 82:     TRISCbits.TRISC2 = 0;
  1176  0184  1683               	bsf	3,5	;RP0=1, select bank1
  1177  0185  1303               	bcf	3,6	;RP1=0, select bank1
  1178  0186  1107               	bcf	7,2	;volatile
  1179  0187  0008               	return
  1180  0188                     __end_of_init_PWM_1:	
  1181                           
  1182                           	psect	text4
  1183  0136                     __ptext4:	
  1184 ;; *************** function _I2C_Slave_Init *****************
  1185 ;; Defined at:
  1186 ;;		line 93 in file "I2C.c"
  1187 ;; Parameters:    Size  Location     Type
  1188 ;;  address         1    wreg     unsigned char 
  1189 ;; Auto vars:     Size  Location     Type
  1190 ;;  address         1    0[BANK0 ] unsigned char 
  1191 ;; Return value:  Size  Location     Type
  1192 ;;                  1    wreg      void 
  1193 ;; Registers used:
  1194 ;;		wreg
  1195 ;; Tracked objects:
  1196 ;;		On entry : 0/0
  1197 ;;		On exit  : 0/0
  1198 ;;		Unchanged: 0/0
  1199 ;; Data sizes:     COMMON   BANK0   BANK1   BANK3   BANK2
  1200 ;;      Params:         0       0       0       0       0
  1201 ;;      Locals:         0       1       0       0       0
  1202 ;;      Temps:          0       0       0       0       0
  1203 ;;      Totals:         0       1       0       0       0
  1204 ;;Total ram usage:        1 bytes
  1205 ;; Hardware stack levels used:    1
  1206 ;; Hardware stack levels required when called:    1
  1207 ;; This function calls:
  1208 ;;		Nothing
  1209 ;; This function is called by:
  1210 ;;		_main
  1211 ;; This function uses a non-reentrant model
  1212 ;;
  1213                           
  1214                           
  1215                           ;psect for function _I2C_Slave_Init
  1216  0136                     _I2C_Slave_Init:	
  1217                           
  1218                           ;incstack = 0
  1219                           ; Regs used in _I2C_Slave_Init: [wreg]
  1220                           ;I2C_Slave_Init@address stored from wreg
  1221  0136  1283               	bcf	3,5	;RP0=0, select bank0
  1222  0137  1303               	bcf	3,6	;RP1=0, select bank0
  1223  0138  00A4               	movwf	I2C_Slave_Init@address
  1224                           
  1225                           ;I2C.c: 93: void I2C_Slave_Init(uint8_t address);I2C.c: 94: {;I2C.c: 95:     SSPADD = ad
      +                          dress;
  1226  0139  0824               	movf	I2C_Slave_Init@address,w
  1227  013A  1683               	bsf	3,5	;RP0=1, select bank1
  1228  013B  1303               	bcf	3,6	;RP1=0, select bank1
  1229  013C  0093               	movwf	19	;volatile
  1230                           
  1231                           ;I2C.c: 96:     SSPCON = 0x36;
  1232  013D  3036               	movlw	54
  1233  013E  1283               	bcf	3,5	;RP0=0, select bank0
  1234  013F  1303               	bcf	3,6	;RP1=0, select bank0
  1235  0140  0094               	movwf	20	;volatile
  1236                           
  1237                           ;I2C.c: 97:     SSPSTAT = 0x80;
  1238  0141  3080               	movlw	128
  1239  0142  1683               	bsf	3,5	;RP0=1, select bank1
  1240  0143  1303               	bcf	3,6	;RP1=0, select bank1
  1241  0144  0094               	movwf	20	;volatile
  1242                           
  1243                           ;I2C.c: 98:     SSPCON2 = 0x01;
  1244  0145  3001               	movlw	1
  1245  0146  0091               	movwf	17	;volatile
  1246                           
  1247                           ;I2C.c: 99:     TRISC3 = 1;
  1248  0147  1587               	bsf	7,3	;volatile
  1249                           
  1250                           ;I2C.c: 100:     TRISC4 = 1;
  1251  0148  1607               	bsf	7,4	;volatile
  1252                           
  1253                           ;I2C.c: 101:     GIE = 1;
  1254  0149  178B               	bsf	11,7	;volatile
  1255                           
  1256                           ;I2C.c: 102:     PEIE = 1;
  1257  014A  170B               	bsf	11,6	;volatile
  1258                           
  1259                           ;I2C.c: 103:     SSPIF = 0;
  1260  014B  1283               	bcf	3,5	;RP0=0, select bank0
  1261  014C  1303               	bcf	3,6	;RP1=0, select bank0
  1262  014D  118C               	bcf	12,3	;volatile
  1263                           
  1264                           ;I2C.c: 104:     SSPIE = 1;
  1265  014E  1683               	bsf	3,5	;RP0=1, select bank1
  1266  014F  1303               	bcf	3,6	;RP1=0, select bank1
  1267  0150  158C               	bsf	12,3	;volatile
  1268  0151  0008               	return
  1269  0152                     __end_of_I2C_Slave_Init:	
  1270                           
  1271                           	psect	text5
  1272  003B                     __ptext5:	
  1273 ;; *************** function _ISR *****************
  1274 ;; Defined at:
  1275 ;;		line 39 in file "newmain.c"
  1276 ;; Parameters:    Size  Location     Type
  1277 ;;		None
  1278 ;; Auto vars:     Size  Location     Type
  1279 ;;		None
  1280 ;; Return value:  Size  Location     Type
  1281 ;;                  1    wreg      void 
  1282 ;; Registers used:
  1283 ;;		wreg, fsr0l, fsr0h, status,2, status,0
  1284 ;; Tracked objects:
  1285 ;;		On entry : 0/0
  1286 ;;		On exit  : 0/0
  1287 ;;		Unchanged: 0/0
  1288 ;; Data sizes:     COMMON   BANK0   BANK1   BANK3   BANK2
  1289 ;;      Params:         0       0       0       0       0
  1290 ;;      Locals:         0       0       0       0       0
  1291 ;;      Temps:          4       0       0       0       0
  1292 ;;      Totals:         4       0       0       0       0
  1293 ;;Total ram usage:        4 bytes
  1294 ;; Hardware stack levels used:    1
  1295 ;; This function calls:
  1296 ;;		Nothing
  1297 ;; This function is called by:
  1298 ;;		Interrupt level 1
  1299 ;; This function uses a non-reentrant model
  1300 ;;
  1301                           
  1302                           
  1303                           ;psect for function _ISR
  1304  003B                     _ISR:	
  1305                           
  1306                           ;newmain.c: 40:     if(PIR1bits.SSPIF == 1){
  1307  003B  1283               	bcf	3,5	;RP0=0, select bank0
  1308  003C  1303               	bcf	3,6	;RP1=0, select bank0
  1309  003D  1D8C               	btfss	12,3	;volatile
  1310  003E  289B               	goto	i1l68
  1311                           
  1312                           ;newmain.c: 42:         SSPCONbits.CKP = 0;
  1313  003F  1214               	bcf	20,4	;volatile
  1314                           
  1315                           ;newmain.c: 44:         if ((SSPCONbits.SSPOV) || (SSPCONbits.WCOL)){
  1316  0040  1B14               	btfsc	20,6	;volatile
  1317  0041  2844               	goto	i1l932
  1318  0042  1F94               	btfss	20,7	;volatile
  1319  0043  284B               	goto	i1l940
  1320  0044                     i1l932:	
  1321                           
  1322                           ;newmain.c: 45:             z = SSPBUF;
  1323  0044  0813               	movf	19,w	;volatile
  1324  0045  00F4               	movwf	??_ISR
  1325  0046  0874               	movf	??_ISR,w
  1326  0047  00F2               	movwf	_z
  1327                           
  1328                           ;newmain.c: 46:             SSPCONbits.SSPOV = 0;
  1329  0048  1314               	bcf	20,6	;volatile
  1330                           
  1331                           ;newmain.c: 47:             SSPCONbits.WCOL = 0;
  1332  0049  1394               	bcf	20,7	;volatile
  1333                           
  1334                           ;newmain.c: 48:             SSPCONbits.CKP = 1;
  1335  004A  1614               	bsf	20,4	;volatile
  1336  004B                     i1l940:	
  1337                           
  1338                           ;newmain.c: 51:         if(!SSPSTATbits.D_nA && !SSPSTATbits.R_nW) {
  1339  004B  1683               	bsf	3,5	;RP0=1, select bank1
  1340  004C  1303               	bcf	3,6	;RP1=0, select bank1
  1341  004D  1E94               	btfss	20,5	;volatile
  1342  004E  1914               	btfsc	20,2	;volatile
  1343  004F  2874               	goto	i1l59
  1344                           
  1345                           ;newmain.c: 52:             _delay((unsigned long)((20)*(8000000/4000000.0)));
  1346  0050  300D               	movlw	13
  1347  0051  00F4               	movwf	??_ISR
  1348  0052                     u22_27:	
  1349  0052  0BF4               	decfsz	??_ISR,f
  1350  0053  2852               	goto	u22_27
  1351                           
  1352                           ;newmain.c: 53:             z = SSPBUF;
  1353  0054  1283               	bcf	3,5	;RP0=0, select bank0
  1354  0055  1303               	bcf	3,6	;RP1=0, select bank0
  1355  0056  0813               	movf	19,w	;volatile
  1356  0057  00F4               	movwf	??_ISR
  1357  0058  0874               	movf	??_ISR,w
  1358  0059  00F2               	movwf	_z
  1359                           
  1360                           ;newmain.c: 54:             _delay((unsigned long)((20)*(8000000/4000000.0)));
  1361  005A  300D               	movlw	13
  1362  005B  00F4               	movwf	??_ISR
  1363  005C                     u23_27:	
  1364  005C  0BF4               	decfsz	??_ISR,f
  1365  005D  285C               	goto	u23_27
  1366                           
  1367                           ;newmain.c: 55:             PIR1bits.SSPIF = 0;
  1368  005E  1283               	bcf	3,5	;RP0=0, select bank0
  1369  005F  1303               	bcf	3,6	;RP1=0, select bank0
  1370  0060  118C               	bcf	12,3	;volatile
  1371                           
  1372                           ;newmain.c: 56:             SSPCONbits.CKP = 1;
  1373  0061  1614               	bsf	20,4	;volatile
  1374  0062                     i1l60:	
  1375                           ;newmain.c: 57:             while(!SSPSTATbits.BF);
  1376                           
  1377  0062  1683               	bsf	3,5	;RP0=1, select bank1
  1378  0063  1303               	bcf	3,6	;RP1=0, select bank1
  1379  0064  1C14               	btfss	20,0	;volatile
  1380  0065  2862               	goto	i1l60
  1381                           
  1382                           ;newmain.c: 58:             instr = SSPBUF;
  1383  0066  1283               	bcf	3,5	;RP0=0, select bank0
  1384  0067  1303               	bcf	3,6	;RP1=0, select bank0
  1385  0068  0813               	movf	19,w	;volatile
  1386  0069  00F4               	movwf	??_ISR
  1387  006A  0874               	movf	??_ISR,w
  1388  006B  00F0               	movwf	_instr
  1389                           
  1390                           ;newmain.c: 59:             _delay((unsigned long)((500)*(8000000/4000000.0)));
  1391  006C  30C7               	movlw	199
  1392  006D  00F4               	movwf	??_ISR
  1393  006E                     u24_27:	
  1394  006E  286F               	nop2
  1395  006F  0BF4               	decfsz	??_ISR,f
  1396  0070  286E               	goto	u24_27
  1397  0071  2872               	nop2
  1398  0072  2873               	nop2
  1399                           
  1400                           ;newmain.c: 60:         }
  1401  0073  2898               	goto	i1l966
  1402  0074                     i1l59:	
  1403                           ;newmain.c: 61:         else if(!SSPSTATbits.D_nA && SSPSTATbits.R_nW){
  1404                           
  1405  0074  1E94               	btfss	20,5	;volatile
  1406  0075  1D14               	btfss	20,2	;volatile
  1407  0076  2898               	goto	i1l966
  1408                           
  1409                           ;newmain.c: 62:             z = SSPBUF;
  1410  0077  1283               	bcf	3,5	;RP0=0, select bank0
  1411  0078  1303               	bcf	3,6	;RP1=0, select bank0
  1412  0079  0813               	movf	19,w	;volatile
  1413  007A  00F4               	movwf	??_ISR
  1414  007B  0874               	movf	??_ISR,w
  1415  007C  00F2               	movwf	_z
  1416                           
  1417                           ;newmain.c: 63:             BF = 0;
  1418  007D  1683               	bsf	3,5	;RP0=1, select bank1
  1419  007E  1303               	bcf	3,6	;RP1=0, select bank1
  1420  007F  1014               	bcf	20,0	;volatile
  1421                           
  1422                           ;newmain.c: 64:             SSPBUF = registro[ind_reg & 0b00000001];
  1423  0080  0871               	movf	_ind_reg,w
  1424  0081  3901               	andlw	1
  1425  0082  3E78               	addlw	(low (_registro| 0))& (0+255)
  1426  0083  0084               	movwf	4
  1427  0084  0800               	movf	0,w
  1428  0085  1283               	bcf	3,5	;RP0=0, select bank0
  1429  0086  1303               	bcf	3,6	;RP1=0, select bank0
  1430  0087  0093               	movwf	19	;volatile
  1431                           
  1432                           ;newmain.c: 65:             SSPCONbits.CKP = 1;
  1433  0088  1614               	bsf	20,4	;volatile
  1434                           
  1435                           ;newmain.c: 66:             _delay((unsigned long)((500)*(8000000/4000000.0)));
  1436  0089  30C7               	movlw	199
  1437  008A  00F4               	movwf	??_ISR
  1438  008B                     u25_27:	
  1439  008B  288C               	nop2
  1440  008C  0BF4               	decfsz	??_ISR,f
  1441  008D  288B               	goto	u25_27
  1442  008E  288F               	nop2
  1443  008F  2890               	nop2
  1444  0090                     i1l65:	
  1445                           ;newmain.c: 67:             while(SSPSTATbits.BF);
  1446                           
  1447  0090  1683               	bsf	3,5	;RP0=1, select bank1
  1448  0091  1303               	bcf	3,6	;RP1=0, select bank1
  1449  0092  1814               	btfsc	20,0	;volatile
  1450  0093  2890               	goto	i1l65
  1451                           
  1452                           ;newmain.c: 68:             ind_reg ++;
  1453  0094  3001               	movlw	1
  1454  0095  00F4               	movwf	??_ISR
  1455  0096  0874               	movf	??_ISR,w
  1456  0097  07F1               	addwf	_ind_reg,f
  1457  0098                     i1l966:	
  1458                           
  1459                           ;newmain.c: 71:         PIR1bits.SSPIF = 0;
  1460  0098  1283               	bcf	3,5	;RP0=0, select bank0
  1461  0099  1303               	bcf	3,6	;RP1=0, select bank0
  1462  009A  118C               	bcf	12,3	;volatile
  1463  009B                     i1l68:	
  1464  009B  0877               	movf	??_ISR+3,w
  1465  009C  008A               	movwf	10
  1466  009D  0876               	movf	??_ISR+2,w
  1467  009E  0084               	movwf	4
  1468  009F  0E75               	swapf	(??_ISR+1)^(0+4294967168),w
  1469  00A0  0083               	movwf	3
  1470  00A1  0EFE               	swapf	126,f
  1471  00A2  0E7E               	swapf	126,w
  1472  00A3  0009               	retfie
  1473  00A4                     __end_of_ISR:	
  1474  007E                     btemp	set	126	;btemp
  1475  007E                     wtemp0	set	126
  1476                           
  1477                           	psect	intentry
  1478  0004                     __pintentry:	
  1479                           ;incstack = 0
  1480                           ; Regs used in _ISR: [wreg-fsr0h+status,2+status,0]
  1481                           
  1482  0004                     interrupt_function:	
  1483  007E                     saved_w	set	btemp
  1484  0004  00FE               	movwf	btemp
  1485  0005  0E03               	swapf	3,w
  1486  0006  00F5               	movwf	??_ISR+1
  1487  0007  0804               	movf	4,w
  1488  0008  00F6               	movwf	??_ISR+2
  1489  0009  080A               	movf	10,w
  1490  000A  00F7               	movwf	??_ISR+3
  1491  000B  120A  118A  283B   	ljmp	_ISR


Data Sizes:
    Strings     0
    Constant    0
    Data        6
    BSS         4
    Persistent  0
    Stack       0

Auto Spaces:
    Space          Size  Autos    Used
    COMMON           14      4      10
    BANK0            80      4       8
    BANK1            80      0       0
    BANK3            96      0       0
    BANK2            96      0       0

Pointer List with Targets:

    None.

Critical Paths under _main in COMMON

    None.

Critical Paths under _ISR in COMMON

    None.

Critical Paths under _main in BANK0

    _main->_oscillator

Critical Paths under _ISR in BANK0

    None.

Critical Paths under _main in BANK1

    None.

Critical Paths under _ISR in BANK1

    None.

Critical Paths under _main in BANK3

    None.

Critical Paths under _ISR in BANK3

    None.

Critical Paths under _main in BANK2

    None.

Critical Paths under _ISR in BANK2

    None.

Call Graph Tables:

 ---------------------------------------------------------------------------------
 (Depth) Function   	        Calls       Base Space   Used Autos Params    Refs
 ---------------------------------------------------------------------------------
 (0) _main                                                 1     1      0      62
                                              3 BANK0      1     1      0
                     _I2C_Slave_Init
                         _init_PWM_1
                         _init_PWM_2
                         _oscillator
 ---------------------------------------------------------------------------------
 (1) _oscillator                                           3     3      0      31
                                              0 BANK0      3     3      0
 ---------------------------------------------------------------------------------
 (1) _init_PWM_2                                           0     0      0       0
 ---------------------------------------------------------------------------------
 (1) _init_PWM_1                                           0     0      0       0
 ---------------------------------------------------------------------------------
 (1) _I2C_Slave_Init                                       1     1      0      31
                                              0 BANK0      1     1      0
 ---------------------------------------------------------------------------------
 Estimated maximum stack depth 1
 ---------------------------------------------------------------------------------
 (Depth) Function   	        Calls       Base Space   Used Autos Params    Refs
 ---------------------------------------------------------------------------------
 (2) _ISR                                                  4     4      0       0
                                              0 COMMON     4     4      0
 ---------------------------------------------------------------------------------
 Estimated maximum stack depth 2
 ---------------------------------------------------------------------------------

 Call Graph Graphs:

 _main (ROOT)
   _I2C_Slave_Init
   _init_PWM_1
   _init_PWM_2
   _oscillator

 _ISR (ROOT)

 Address spaces:
Name               Size   Autos  Total    Cost      Usage
BANK3               60      0       0       9        0.0%
BITBANK3            60      0       0       8        0.0%
SFR3                 0      0       0       4        0.0%
BITSFR3              0      0       0       4        0.0%
BANK2               60      0       0      11        0.0%
BITBANK2            60      0       0      10        0.0%
SFR2                 0      0       0       5        0.0%
BITSFR2              0      0       0       5        0.0%
BANK1               50      0       0       7        0.0%
BITBANK1            50      0       0       6        0.0%
SFR1                 0      0       0       2        0.0%
BITSFR1              0      0       0       2        0.0%
BANK0               50      4       8       5       10.0%
BITBANK0            50      0       0       4        0.0%
SFR0                 0      0       0       1        0.0%
BITSFR0              0      0       0       1        0.0%
COMMON               E      4       A       1       71.4%
BITCOMMON            E      0       0       0        0.0%
CODE                 0      0       0       0        0.0%
DATA                 0      0      12      12        0.0%
ABS                  0      0      12       3        0.0%
NULL                 0      0       0       0        0.0%
STACK                0      0       0       2        0.0%
EEDATA             100      0       0       0        0.0%


Microchip Technology PIC Macro Assembler V2.05 build -831301201 
Symbol Table                                                                                   Sun Mar 22 22:17:47 2020

                       _z 0072               __CFG_CP$OFF 0000               _SSPSTATbits 0094  
                      _BF 04A0                       l110 00A8                       l111 00AD  
                     l112 00B2                       l113 00B7                       l114 00BC  
                     l115 00C1                       l220 0180                       l116 00C6  
                     l117 00CB                       l222 0184                       l214 0165  
                     l118 00D0                       l216 0169                       _GIE 005F  
                     _RD0 0040                       _RA6 002E                       _RD1 0041  
                     _RA7 002F                       _RD2 0042                       _RD3 0043  
                     _RD4 0044                       _RD5 0045                       _PR2 0092  
            __CFG_CPD$OFF 0000                       _ISR 003B                       fsr0 0004  
                     indf 0000              __CFG_LVP$OFF 0000                      ?_ISR 0074  
                    l1310 00D6                      l1356 0129                      l1392 00DE  
                    _PEIE 005E                      i1l60 0062                      i1l65 0090  
                    i1l59 0074                      i1l68 009B              __CFG_WRT$OFF 0000  
                    _main 00F9                      btemp 007E                      start 000E  
           __CFG_IESO$OFF 0000                     ??_ISR 0074                     ?_main 0074  
           __CFG_WDTE$OFF 0000                     _ANSEL 0188                     _T1CON 0010  
                   i1l940 004B                     i1l932 0044                     i1l966 0098  
                   u22_27 0052                     u23_27 005C                     u24_27 006E  
                   _TMR1H 000F                     _TMR1L 000E                     u25_27 008B  
                   _PORTB 0006                     _PORTD 0008                     _TRISA 0085  
                   _TRISB 0086                     _TRISD 0088                     _SSPIE 0463  
                   _SSPIF 0063            __CFG_FCMEN$OFF 0000                     _instr 0070  
          __CFG_BOREN$OFF 0000                     pclath 000A                     status 0003  
                   wtemp0 007E            __CFG_MCLRE$OFF 0000           __initialization 0011  
            __end_of_main 0136                    ??_main 0027                    _CCPR1L 0015  
                  _CCPR2L 001B                    _ANSELH 0189                    _SSPADD 0093  
                  _TRISC3 043B                    _TRISC4 043C                    _SSPBUF 0013  
                  _SSPCON 0014            __CFG_PWRTE$OFF 0000                    _enviar 0073  
            __pdataCOMMON 0078                    saved_w 007E   __end_of__initialization 0037  
          __pcstackCOMMON 0074              __pidataBANK0 0188   __size_of_I2C_Slave_Init 001C  
   I2C_Slave_Init@address 0024                __pmaintext 00F9                __pintentry 0004  
                 _SSPCON2 0091                   _SSPSTAT 0094                _init_PWM_1 016D  
              _init_PWM_2 0152                   __ptext1 00A4                   __ptext2 0152  
                 __ptext3 016D                   __ptext4 0136                   __ptext5 003B  
            __size_of_ISR 0069                   _ind_reg 0071                 _T1CONbits 0010  
               _T2CONbits 0012               oscillator@a 0026      end_of_initialization 0037  
              _oscillator 00A4            _I2C_Slave_Init 0136                 _PORTAbits 0005  
               _TRISCbits 0087               _CCP1CONbits 0017               _CCP2CONbits 001D  
  __end_of_I2C_Slave_Init 0152               ?_init_PWM_1 0074               ?_init_PWM_2 0074  
           __pidataCOMMON 018C       start_initialization 0011               __end_of_ISR 00A4  
__CFG_FOSC$INTRC_NOCLKOUT 0000           ?_I2C_Slave_Init 0074               ?_oscillator 0074  
             __pdataBANK0 0020               __pbssCOMMON 0070                 ___latbits 0002  
           __pcstackBANK0 0024       __size_of_init_PWM_1 001B       __size_of_init_PWM_2 001B  
     __size_of_oscillator 0055         interrupt_function 0004                  _PIR1bits 000C  
             _distancia_1 0022               _distancia_2 0020              ??_init_PWM_1 0078  
            ??_init_PWM_2 0078         __CFG_BOR4V$BOR40V 0000        __end_of_init_PWM_1 0188  
      __end_of_init_PWM_2 016D          ??_I2C_Slave_Init 0078             __size_of_main 003D  
                _registro 0078              ??_oscillator 0024        __end_of_oscillator 00F9  
                intlevel1 0000                _OSCCONbits 008F               _SSPCON2bits 0091  
              _SSPCONbits 0014  
