

Microchip MPLAB XC8 Assembler V2.10 build 88905656 
                                                                                               Tue May 05 00:56:21 2020

Microchip MPLAB XC8 C Compiler v2.10 (Free license) build 20190730164152 Og1 
     1                           	processor	16F887
     2                           	opt	pw 120
     3                           	opt	flic
     4                           	psect	cinit,global,class=CODE,merge=1,delta=2
     5                           	psect	bssCOMMON,global,class=COMMON,space=1,delta=1
     6                           	psect	bssBANK0,global,class=BANK0,space=1,delta=1
     7                           	psect	cstackCOMMON,global,class=COMMON,space=1,delta=1
     8                           	psect	cstackBANK0,global,class=BANK0,space=1,delta=1
     9                           	psect	maintext,global,class=CODE,split=1,delta=2
    10                           	psect	text1,local,class=CODE,merge=1,delta=2
    11                           	psect	text2,local,class=CODE,merge=1,delta=2
    12                           	psect	text3,local,class=CODE,merge=1,delta=2
    13                           	psect	text4,local,class=CODE,merge=1,delta=2
    14                           	psect	text5,local,class=CODE,merge=1,delta=2
    15                           	psect	text6,local,class=CODE,merge=1,delta=2
    16                           	psect	text7,local,class=CODE,merge=1,delta=2
    17                           	psect	text8,local,class=CODE,merge=1,delta=2
    18                           	psect	text9,local,class=CODE,merge=1,delta=2
    19                           	psect	text10,local,class=CODE,merge=1,delta=2
    20                           	psect	text11,local,class=CODE,merge=1,delta=2
    21                           	psect	intentry,global,class=CODE,delta=2
    22                           	dabs	1,0x7E,2
    23  0000                     
    24                           ; Version 2.10
    25                           ; Generated 31/07/2019 GMT
    26                           ; 
    27                           ; Copyright © 2019, Microchip Technology Inc. and its subsidiaries ("Microchip")
    28                           ; All rights reserved.
    29                           ; 
    30                           ; This software is developed by Microchip Technology Inc. and its subsidiaries ("Microch
      +                          ip").
    31                           ; 
    32                           ; Redistribution and use in source and binary forms, with or without modification, are
    33                           ; permitted provided that the following conditions are met:
    34                           ; 
    35                           ;     1. Redistributions of source code must retain the above copyright notice, this lis
      +                          t of
    36                           ;        conditions and the following disclaimer.
    37                           ; 
    38                           ;     2. Redistributions in binary form must reproduce the above copyright notice, this 
      +                          list
    39                           ;        of conditions and the following disclaimer in the documentation and/or other
    40                           ;        materials provided with the distribution.
    41                           ; 
    42                           ;     3. Microchip's name may not be used to endorse or promote products derived from th
      +                          is
    43                           ;        software without specific prior written permission.
    44                           ; 
    45                           ; THIS SOFTWARE IS PROVIDED BY MICROCHIP "AS IS" AND ANY EXPRESS OR IMPLIED WARRANTIES,
    46                           ; INCLUDING, BUT NOT LIMITED TO, THE IMPLIED WARRANTIES OF MERCHANTABILITY AND FITNESS F
      +                          OR
    47                           ; PURPOSE ARE DISCLAIMED.  IN NO EVENT SHALL MICROCHIP BE LIABLE FOR ANY DIRECT, INDIREC
      +                          T,
    48                           ; INCIDENTAL, SPECIAL, EXEMPLARY, OR CONSEQUENTIAL DAMAGES (INCLUDING BUT NOT LIMITED TO
    49                           ; PROCUREMENT OF SUBSTITUTE GOODS OR SERVICES; LOSS OF USE, DATA OR PROFITS; OR BUSINESS
    50                           ; INTERRUPTION) HOWSOEVER CAUSED AND ON ANY THEORY OF LIABILITY, WHETHER IN CONTRACT, ST
      +                          RICT
    51                           ; LIABILITY, OR TORT (INCLUDING NEGLIGENCE OR OTHERWISE) ARISING IN ANY WAY OUT OF THE U
      +                          SE OF
    52                           ; THIS SOFTWARE, EVEN IF ADVISED OF THE POSSIBILITY OF SUCH DAMAGE.
    53                           ; 
    54                           ; 
    55                           ; Code-generator required, PIC16F887 Definitions
    56                           ; 
    57                           ; SFR Addresses
    58  0000                     	;# 
    59  0001                     	;# 
    60  0002                     	;# 
    61  0003                     	;# 
    62  0004                     	;# 
    63  0005                     	;# 
    64  0006                     	;# 
    65  0007                     	;# 
    66  0008                     	;# 
    67  0009                     	;# 
    68  000A                     	;# 
    69  000B                     	;# 
    70  000C                     	;# 
    71  000D                     	;# 
    72  000E                     	;# 
    73  000E                     	;# 
    74  000F                     	;# 
    75  0010                     	;# 
    76  0011                     	;# 
    77  0012                     	;# 
    78  0013                     	;# 
    79  0014                     	;# 
    80  0015                     	;# 
    81  0015                     	;# 
    82  0016                     	;# 
    83  0017                     	;# 
    84  0018                     	;# 
    85  0019                     	;# 
    86  001A                     	;# 
    87  001B                     	;# 
    88  001B                     	;# 
    89  001C                     	;# 
    90  001D                     	;# 
    91  001E                     	;# 
    92  001F                     	;# 
    93  0081                     	;# 
    94  0085                     	;# 
    95  0086                     	;# 
    96  0087                     	;# 
    97  0088                     	;# 
    98  0089                     	;# 
    99  008C                     	;# 
   100  008D                     	;# 
   101  008E                     	;# 
   102  008F                     	;# 
   103  0090                     	;# 
   104  0091                     	;# 
   105  0092                     	;# 
   106  0093                     	;# 
   107  0093                     	;# 
   108  0093                     	;# 
   109  0094                     	;# 
   110  0095                     	;# 
   111  0096                     	;# 
   112  0097                     	;# 
   113  0098                     	;# 
   114  0099                     	;# 
   115  009A                     	;# 
   116  009B                     	;# 
   117  009C                     	;# 
   118  009D                     	;# 
   119  009E                     	;# 
   120  009F                     	;# 
   121  0105                     	;# 
   122  0107                     	;# 
   123  0108                     	;# 
   124  0109                     	;# 
   125  010C                     	;# 
   126  010C                     	;# 
   127  010D                     	;# 
   128  010E                     	;# 
   129  010F                     	;# 
   130  0185                     	;# 
   131  0187                     	;# 
   132  0188                     	;# 
   133  0189                     	;# 
   134  018C                     	;# 
   135  018D                     	;# 
   136  0000                     	;# 
   137  0001                     	;# 
   138  0002                     	;# 
   139  0003                     	;# 
   140  0004                     	;# 
   141  0005                     	;# 
   142  0006                     	;# 
   143  0007                     	;# 
   144  0008                     	;# 
   145  0009                     	;# 
   146  000A                     	;# 
   147  000B                     	;# 
   148  000C                     	;# 
   149  000D                     	;# 
   150  000E                     	;# 
   151  000E                     	;# 
   152  000F                     	;# 
   153  0010                     	;# 
   154  0011                     	;# 
   155  0012                     	;# 
   156  0013                     	;# 
   157  0014                     	;# 
   158  0015                     	;# 
   159  0015                     	;# 
   160  0016                     	;# 
   161  0017                     	;# 
   162  0018                     	;# 
   163  0019                     	;# 
   164  001A                     	;# 
   165  001B                     	;# 
   166  001B                     	;# 
   167  001C                     	;# 
   168  001D                     	;# 
   169  001E                     	;# 
   170  001F                     	;# 
   171  0081                     	;# 
   172  0085                     	;# 
   173  0086                     	;# 
   174  0087                     	;# 
   175  0088                     	;# 
   176  0089                     	;# 
   177  008C                     	;# 
   178  008D                     	;# 
   179  008E                     	;# 
   180  008F                     	;# 
   181  0090                     	;# 
   182  0091                     	;# 
   183  0092                     	;# 
   184  0093                     	;# 
   185  0093                     	;# 
   186  0093                     	;# 
   187  0094                     	;# 
   188  0095                     	;# 
   189  0096                     	;# 
   190  0097                     	;# 
   191  0098                     	;# 
   192  0099                     	;# 
   193  009A                     	;# 
   194  009B                     	;# 
   195  009C                     	;# 
   196  009D                     	;# 
   197  009E                     	;# 
   198  009F                     	;# 
   199  0105                     	;# 
   200  0107                     	;# 
   201  0108                     	;# 
   202  0109                     	;# 
   203  010C                     	;# 
   204  010C                     	;# 
   205  010D                     	;# 
   206  010E                     	;# 
   207  010F                     	;# 
   208  0185                     	;# 
   209  0187                     	;# 
   210  0188                     	;# 
   211  0189                     	;# 
   212  018C                     	;# 
   213  018D                     	;# 
   214  0000                     	;# 
   215  0001                     	;# 
   216  0002                     	;# 
   217  0003                     	;# 
   218  0004                     	;# 
   219  0005                     	;# 
   220  0006                     	;# 
   221  0007                     	;# 
   222  0008                     	;# 
   223  0009                     	;# 
   224  000A                     	;# 
   225  000B                     	;# 
   226  000C                     	;# 
   227  000D                     	;# 
   228  000E                     	;# 
   229  000E                     	;# 
   230  000F                     	;# 
   231  0010                     	;# 
   232  0011                     	;# 
   233  0012                     	;# 
   234  0013                     	;# 
   235  0014                     	;# 
   236  0015                     	;# 
   237  0015                     	;# 
   238  0016                     	;# 
   239  0017                     	;# 
   240  0018                     	;# 
   241  0019                     	;# 
   242  001A                     	;# 
   243  001B                     	;# 
   244  001B                     	;# 
   245  001C                     	;# 
   246  001D                     	;# 
   247  001E                     	;# 
   248  001F                     	;# 
   249  0081                     	;# 
   250  0085                     	;# 
   251  0086                     	;# 
   252  0087                     	;# 
   253  0088                     	;# 
   254  0089                     	;# 
   255  008C                     	;# 
   256  008D                     	;# 
   257  008E                     	;# 
   258  008F                     	;# 
   259  0090                     	;# 
   260  0091                     	;# 
   261  0092                     	;# 
   262  0093                     	;# 
   263  0093                     	;# 
   264  0093                     	;# 
   265  0094                     	;# 
   266  0095                     	;# 
   267  0096                     	;# 
   268  0097                     	;# 
   269  0098                     	;# 
   270  0099                     	;# 
   271  009A                     	;# 
   272  009B                     	;# 
   273  009C                     	;# 
   274  009D                     	;# 
   275  009E                     	;# 
   276  009F                     	;# 
   277  0105                     	;# 
   278  0107                     	;# 
   279  0108                     	;# 
   280  0109                     	;# 
   281  010C                     	;# 
   282  010C                     	;# 
   283  010D                     	;# 
   284  010E                     	;# 
   285  010F                     	;# 
   286  0185                     	;# 
   287  0187                     	;# 
   288  0188                     	;# 
   289  0189                     	;# 
   290  018C                     	;# 
   291  018D                     	;# 
   292  0000                     	;# 
   293  0001                     	;# 
   294  0002                     	;# 
   295  0003                     	;# 
   296  0004                     	;# 
   297  0005                     	;# 
   298  0006                     	;# 
   299  0007                     	;# 
   300  0008                     	;# 
   301  0009                     	;# 
   302  000A                     	;# 
   303  000B                     	;# 
   304  000C                     	;# 
   305  000D                     	;# 
   306  000E                     	;# 
   307  000E                     	;# 
   308  000F                     	;# 
   309  0010                     	;# 
   310  0011                     	;# 
   311  0012                     	;# 
   312  0013                     	;# 
   313  0014                     	;# 
   314  0015                     	;# 
   315  0015                     	;# 
   316  0016                     	;# 
   317  0017                     	;# 
   318  0018                     	;# 
   319  0019                     	;# 
   320  001A                     	;# 
   321  001B                     	;# 
   322  001B                     	;# 
   323  001C                     	;# 
   324  001D                     	;# 
   325  001E                     	;# 
   326  001F                     	;# 
   327  0081                     	;# 
   328  0085                     	;# 
   329  0086                     	;# 
   330  0087                     	;# 
   331  0088                     	;# 
   332  0089                     	;# 
   333  008C                     	;# 
   334  008D                     	;# 
   335  008E                     	;# 
   336  008F                     	;# 
   337  0090                     	;# 
   338  0091                     	;# 
   339  0092                     	;# 
   340  0093                     	;# 
   341  0093                     	;# 
   342  0093                     	;# 
   343  0094                     	;# 
   344  0095                     	;# 
   345  0096                     	;# 
   346  0097                     	;# 
   347  0098                     	;# 
   348  0099                     	;# 
   349  009A                     	;# 
   350  009B                     	;# 
   351  009C                     	;# 
   352  009D                     	;# 
   353  009E                     	;# 
   354  009F                     	;# 
   355  0105                     	;# 
   356  0107                     	;# 
   357  0108                     	;# 
   358  0109                     	;# 
   359  010C                     	;# 
   360  010C                     	;# 
   361  010D                     	;# 
   362  010E                     	;# 
   363  010F                     	;# 
   364  0185                     	;# 
   365  0187                     	;# 
   366  0188                     	;# 
   367  0189                     	;# 
   368  018C                     	;# 
   369  018D                     	;# 
   370  0000                     	;# 
   371  0001                     	;# 
   372  0002                     	;# 
   373  0003                     	;# 
   374  0004                     	;# 
   375  0005                     	;# 
   376  0006                     	;# 
   377  0007                     	;# 
   378  0008                     	;# 
   379  0009                     	;# 
   380  000A                     	;# 
   381  000B                     	;# 
   382  000C                     	;# 
   383  000D                     	;# 
   384  000E                     	;# 
   385  000E                     	;# 
   386  000F                     	;# 
   387  0010                     	;# 
   388  0011                     	;# 
   389  0012                     	;# 
   390  0013                     	;# 
   391  0014                     	;# 
   392  0015                     	;# 
   393  0015                     	;# 
   394  0016                     	;# 
   395  0017                     	;# 
   396  0018                     	;# 
   397  0019                     	;# 
   398  001A                     	;# 
   399  001B                     	;# 
   400  001B                     	;# 
   401  001C                     	;# 
   402  001D                     	;# 
   403  001E                     	;# 
   404  001F                     	;# 
   405  0081                     	;# 
   406  0085                     	;# 
   407  0086                     	;# 
   408  0087                     	;# 
   409  0088                     	;# 
   410  0089                     	;# 
   411  008C                     	;# 
   412  008D                     	;# 
   413  008E                     	;# 
   414  008F                     	;# 
   415  0090                     	;# 
   416  0091                     	;# 
   417  0092                     	;# 
   418  0093                     	;# 
   419  0093                     	;# 
   420  0093                     	;# 
   421  0094                     	;# 
   422  0095                     	;# 
   423  0096                     	;# 
   424  0097                     	;# 
   425  0098                     	;# 
   426  0099                     	;# 
   427  009A                     	;# 
   428  009B                     	;# 
   429  009C                     	;# 
   430  009D                     	;# 
   431  009E                     	;# 
   432  009F                     	;# 
   433  0105                     	;# 
   434  0107                     	;# 
   435  0108                     	;# 
   436  0109                     	;# 
   437  010C                     	;# 
   438  010C                     	;# 
   439  010D                     	;# 
   440  010E                     	;# 
   441  010F                     	;# 
   442  0185                     	;# 
   443  0187                     	;# 
   444  0188                     	;# 
   445  0189                     	;# 
   446  018C                     	;# 
   447  018D                     	;# 
   448  0000                     	;# 
   449  0001                     	;# 
   450  0002                     	;# 
   451  0003                     	;# 
   452  0004                     	;# 
   453  0005                     	;# 
   454  0006                     	;# 
   455  0007                     	;# 
   456  0008                     	;# 
   457  0009                     	;# 
   458  000A                     	;# 
   459  000B                     	;# 
   460  000C                     	;# 
   461  000D                     	;# 
   462  000E                     	;# 
   463  000E                     	;# 
   464  000F                     	;# 
   465  0010                     	;# 
   466  0011                     	;# 
   467  0012                     	;# 
   468  0013                     	;# 
   469  0014                     	;# 
   470  0015                     	;# 
   471  0015                     	;# 
   472  0016                     	;# 
   473  0017                     	;# 
   474  0018                     	;# 
   475  0019                     	;# 
   476  001A                     	;# 
   477  001B                     	;# 
   478  001B                     	;# 
   479  001C                     	;# 
   480  001D                     	;# 
   481  001E                     	;# 
   482  001F                     	;# 
   483  0081                     	;# 
   484  0085                     	;# 
   485  0086                     	;# 
   486  0087                     	;# 
   487  0088                     	;# 
   488  0089                     	;# 
   489  008C                     	;# 
   490  008D                     	;# 
   491  008E                     	;# 
   492  008F                     	;# 
   493  0090                     	;# 
   494  0091                     	;# 
   495  0092                     	;# 
   496  0093                     	;# 
   497  0093                     	;# 
   498  0093                     	;# 
   499  0094                     	;# 
   500  0095                     	;# 
   501  0096                     	;# 
   502  0097                     	;# 
   503  0098                     	;# 
   504  0099                     	;# 
   505  009A                     	;# 
   506  009B                     	;# 
   507  009C                     	;# 
   508  009D                     	;# 
   509  009E                     	;# 
   510  009F                     	;# 
   511  0105                     	;# 
   512  0107                     	;# 
   513  0108                     	;# 
   514  0109                     	;# 
   515  010C                     	;# 
   516  010C                     	;# 
   517  010D                     	;# 
   518  010E                     	;# 
   519  010F                     	;# 
   520  0185                     	;# 
   521  0187                     	;# 
   522  0188                     	;# 
   523  0189                     	;# 
   524  018C                     	;# 
   525  018D                     	;# 
   526  0015                     _CCPR1L	set	21
   527  0017                     _CCP1CONbits	set	23
   528  0012                     _T2CONbits	set	18
   529  001B                     _CCPR2L	set	27
   530  001D                     _CCP2CONbits	set	29
   531  0014                     _SSPCON	set	20
   532  000B                     _INTCONbits	set	11
   533  0009                     _PORTE	set	9
   534  0008                     _PORTD	set	8
   535  0005                     _PORTA	set	5
   536  0009                     _PORTEbits	set	9
   537  001F                     _ADCON0bits	set	31
   538  0013                     _SSPBUF	set	19
   539  0014                     _SSPCONbits	set	20
   540  000C                     _PIR1bits	set	12
   541  0006                     _PORTB	set	6
   542  001E                     _ADRESH	set	30
   543  002C                     _RA4	set	44
   544  002B                     _RA3	set	43
   545  0063                     _SSPIF	set	99
   546  005E                     _PEIE	set	94
   547  005F                     _GIE	set	95
   548  0066                     _ADIF	set	102
   549  0092                     _PR2	set	146
   550  0093                     _SSPADD	set	147
   551  0091                     _SSPCON2bits	set	145
   552  0087                     _TRISCbits	set	135
   553  0094                     _SSPSTAT	set	148
   554  0091                     _SSPCON2	set	145
   555  008C                     _PIE1bits	set	140
   556  009F                     _ADCON1bits	set	159
   557  008F                     _OSCCONbits	set	143
   558  0089                     _TRISE	set	137
   559  0088                     _TRISD	set	136
   560  0086                     _TRISB	set	134
   561  0085                     _TRISA	set	133
   562  0094                     _SSPSTATbits	set	148
   563  0463                     _SSPIE	set	1123
   564  043C                     _TRISC4	set	1084
   565  043B                     _TRISC3	set	1083
   566  04A0                     _BF	set	1184
   567  0189                     _ANSELH	set	393
   568  0188                     _ANSEL	set	392
   569                           
   570                           ; #config settings
   571  0000                     
   572                           	psect	cinit
   573  000F                     start_initialization:	
   574  000F                     __initialization:	
   575                           
   576                           ; Clear objects allocated to COMMON
   577  000F  01F7               	clrf	__pbssCOMMON& (0+127)
   578  0010  01F8               	clrf	(__pbssCOMMON+1)& (0+127)
   579  0011  01F9               	clrf	(__pbssCOMMON+2)& (0+127)
   580                           
   581                           ; Clear objects allocated to BANK0
   582  0012  1283               	bcf	3,5	;RP0=0, select bank0
   583  0013  1303               	bcf	3,6	;RP1=0, select bank0
   584  0014  01A4               	clrf	__pbssBANK0& (0+127)
   585  0015  01A5               	clrf	(__pbssBANK0+1)& (0+127)
   586  0016  01A6               	clrf	(__pbssBANK0+2)& (0+127)
   587  0017                     end_of_initialization:	
   588                           ;End of C runtime variable initialization code
   589                           
   590  0017                     __end_of__initialization:	
   591  0017  0183               	clrf	3
   592  0018  120A  118A  2BD9   	ljmp	_main	;jump to C main() function
   593                           
   594                           	psect	bssCOMMON
   595  0077                     __pbssCOMMON:	
   596  0077                     _i:	
   597  0077                     	ds	2
   598  0079                     _Humedad_H:	
   599  0079                     	ds	1
   600                           
   601                           	psect	bssBANK0
   602  0024                     __pbssBANK0:	
   603  0024                     _indicador:	
   604  0024                     	ds	1
   605  0025                     _recibir:	
   606  0025                     	ds	1
   607  0026                     _z:	
   608  0026                     	ds	1
   609                           
   610                           	psect	cstackCOMMON
   611  0070                     __pcstackCOMMON:	
   612  0070                     ?_config_PORTS:	
   613  0070                     ?_init_PWM_1:	
   614                           ; 1 bytes @ 0x0
   615                           
   616  0070                     ?_init_PWM_2:	
   617                           ; 1 bytes @ 0x0
   618                           
   619  0070                     ?_config_ADC:	
   620                           ; 1 bytes @ 0x0
   621                           
   622  0070                     ?_I2C_Slave_Init:	
   623                           ; 1 bytes @ 0x0
   624                           
   625  0070                     ?_Servo1_grados:	
   626                           ; 1 bytes @ 0x0
   627                           
   628  0070                     ?_Servo2_grados:	
   629                           ; 1 bytes @ 0x0
   630                           
   631  0070                     ?_ISR:	
   632                           ; 1 bytes @ 0x0
   633                           
   634  0070                     ??_ISR:	
   635                           ; 1 bytes @ 0x0
   636                           
   637  0070                     ?_main:	
   638                           ; 1 bytes @ 0x0
   639                           
   640                           
   641                           ; 1 bytes @ 0x0
   642  0070                     	ds	3
   643  0073                     ?_OSC_config:	
   644  0073                     ??_init_PWM_1:	
   645                           ; 1 bytes @ 0x3
   646                           
   647  0073                     ??_init_PWM_2:	
   648                           ; 1 bytes @ 0x3
   649                           
   650  0073                     ??_config_ADC:	
   651                           ; 1 bytes @ 0x3
   652                           
   653  0073                     ??_I2C_Slave_Init:	
   654                           ; 1 bytes @ 0x3
   655                           
   656  0073                     ??_Servo1_grados:	
   657                           ; 1 bytes @ 0x3
   658                           
   659  0073                     ??_Servo2_grados:	
   660                           ; 1 bytes @ 0x3
   661                           
   662  0073                     ?_Stepper_CCW:	
   663                           ; 1 bytes @ 0x3
   664                           
   665  0073                     ?_Stepper_CW:	
   666                           ; 1 bytes @ 0x3
   667                           
   668  0073                     I2C_Slave_Init@address:	
   669                           ; 1 bytes @ 0x3
   670                           
   671  0073                     Stepper_CW@Step_grados_cw:	
   672                           ; 1 bytes @ 0x3
   673                           
   674  0073                     Stepper_CCW@Step_grados_ccw:	
   675                           ; 2 bytes @ 0x3
   676                           
   677  0073                     OSC_config@frecuencia:	
   678                           ; 2 bytes @ 0x3
   679                           
   680                           
   681                           ; 4 bytes @ 0x3
   682  0073                     	ds	2
   683  0075                     ??_Stepper_CCW:	
   684  0075                     ??_Stepper_CW:	
   685                           ; 1 bytes @ 0x5
   686                           
   687  0075                     Servo1_grados@Servo1_grados:	
   688                           ; 1 bytes @ 0x5
   689                           
   690  0075                     Servo2_grados@Servo2_grados:	
   691                           ; 1 bytes @ 0x5
   692                           
   693                           
   694                           ; 1 bytes @ 0x5
   695  0075                     	ds	2
   696  0077                     ??_OSC_config:	
   697  0077                     ??_config_PORTS:	
   698                           ; 1 bytes @ 0x7
   699                           
   700                           
   701                           	psect	cstackBANK0
   702  0020                     __pcstackBANK0:	
   703                           ; 1 bytes @ 0x7
   704                           
   705  0020                     ??_main:	
   706                           
   707                           ; 1 bytes @ 0x0
   708  0020                     	ds	2
   709  0022                     main@i:	
   710                           
   711                           ; 2 bytes @ 0x2
   712  0022                     	ds	2
   713                           
   714                           	psect	maintext
   715  03D9                     __pmaintext:	
   716 ;;
   717 ;;Main: autosize = 0, tempsize = 2, incstack = 0, save=0
   718 ;;
   719 ;; *************** function _main *****************
   720 ;; Defined at:
   721 ;;		line 101 in file "Slave_Lou.c"
   722 ;; Parameters:    Size  Location     Type
   723 ;;		None
   724 ;; Auto vars:     Size  Location     Type
   725 ;;  i               2    2[BANK0 ] int 
   726 ;; Return value:  Size  Location     Type
   727 ;;                  1    wreg      void 
   728 ;; Registers used:
   729 ;;		wreg, fsr0l, fsr0h, status,2, status,0, btemp+1, pclath, cstack
   730 ;; Tracked objects:
   731 ;;		On entry : B00/0
   732 ;;		On exit  : 0/0
   733 ;;		Unchanged: 0/0
   734 ;; Data sizes:     COMMON   BANK0   BANK1   BANK3   BANK2
   735 ;;      Params:         0       0       0       0       0
   736 ;;      Locals:         0       2       0       0       0
   737 ;;      Temps:          0       2       0       0       0
   738 ;;      Totals:         0       4       0       0       0
   739 ;;Total ram usage:        4 bytes
   740 ;; Hardware stack levels required when called:    3
   741 ;; This function calls:
   742 ;;		_I2C_Slave_Init
   743 ;;		_OSC_config
   744 ;;		_Servo1_grados
   745 ;;		_Servo2_grados
   746 ;;		_Stepper_CCW
   747 ;;		_Stepper_CW
   748 ;;		_config_ADC
   749 ;;		_config_PORTS
   750 ;;		_init_PWM_1
   751 ;;		_init_PWM_2
   752 ;; This function is called by:
   753 ;;		Startup code after reset
   754 ;; This function uses a non-reentrant model
   755 ;;
   756                           
   757                           
   758                           ;psect for function _main
   759  03D9                     _main:	
   760  03D9                     l3345:	
   761                           ;incstack = 0
   762                           ; Regs used in _main: [wreg-fsr0h+status,2+status,0+btemp+1+pclath+cstack]
   763                           
   764                           
   765                           ;Slave_Lou.c: 102:     OSC_config(1000000);
   766  03D9  3000               	movlw	0
   767  03DA  00F6               	movwf	OSC_config@frecuencia+3
   768  03DB  300F               	movlw	15
   769  03DC  00F5               	movwf	OSC_config@frecuencia+2
   770  03DD  3042               	movlw	66
   771  03DE  00F4               	movwf	OSC_config@frecuencia+1
   772  03DF  3040               	movlw	64
   773  03E0  00F3               	movwf	OSC_config@frecuencia
   774  03E1  120A  118A  248B  120A  118A  	fcall	_OSC_config
   775                           
   776                           ;Slave_Lou.c: 103:     config_PORTS();
   777  03E6  120A  118A  2659  120A  118A  	fcall	_config_PORTS
   778  03EB                     l3347:	
   779                           
   780                           ;Slave_Lou.c: 104:     init_PWM_1();
   781  03EB  120A  118A  26A7  120A  118A  	fcall	_init_PWM_1
   782  03F0                     l3349:	
   783                           
   784                           ;Slave_Lou.c: 105:     init_PWM_2();
   785  03F0  120A  118A  2688  120A  118A  	fcall	_init_PWM_2
   786  03F5                     l3351:	
   787                           
   788                           ;Slave_Lou.c: 106:     config_ADC();
   789  03F5  120A  118A  26DE  120A  118A  	fcall	_config_ADC
   790  03FA                     l3353:	
   791                           
   792                           ;Slave_Lou.c: 107:     I2C_Slave_Init(0x20);
   793  03FA  3020               	movlw	32
   794  03FB  120A  118A  26C4  120A  118A  	fcall	_I2C_Slave_Init
   795  0400                     l3355:	
   796                           
   797                           ;Slave_Lou.c: 110:         ADCON0bits.GO = 1;
   798  0400  1283               	bcf	3,5	;RP0=0, select bank0
   799  0401  1303               	bcf	3,6	;RP1=0, select bank0
   800  0402  149F               	bsf	31,1	;volatile
   801  0403                     l102:	
   802                           ;Slave_Lou.c: 112:         }
   803                           
   804                           
   805                           ;Slave_Lou.c: 111:         while(ADCON0bits.GO == 1){
   806  0403  189F               	btfsc	31,1	;volatile
   807  0404  2C06               	goto	u811
   808  0405  2C07               	goto	u810
   809  0406                     u811:	
   810  0406  2C03               	goto	l102
   811  0407                     u810:	
   812  0407                     l3357:	
   813                           
   814                           ;Slave_Lou.c: 114:         Servo1_grados(0);
   815  0407  3000               	movlw	0
   816  0408  120A  118A  2604  120A  118A  	fcall	_Servo1_grados
   817                           
   818                           ;Slave_Lou.c: 115:         Servo2_grados(0);
   819  040D  3000               	movlw	0
   820  040E  120A  118A  25AF  120A  118A  	fcall	_Servo2_grados
   821  0413                     l3359:	
   822                           
   823                           ;Slave_Lou.c: 117:         if(PORTEbits.RE0 == 1){
   824  0413  1283               	bcf	3,5	;RP0=0, select bank0
   825  0414  1303               	bcf	3,6	;RP1=0, select bank0
   826  0415  1C09               	btfss	9,0	;volatile
   827  0416  2C18               	goto	u821
   828  0417  2C19               	goto	u820
   829  0418                     u821:	
   830  0418  2C00               	goto	l3355
   831  0419                     u820:	
   832  0419                     l3361:	
   833                           
   834                           ;Slave_Lou.c: 118:             Stepper_CCW(90);
   835  0419  305A               	movlw	90
   836  041A  00F3               	movwf	Stepper_CCW@Step_grados_ccw
   837  041B  3000               	movlw	0
   838  041C  00F4               	movwf	Stepper_CCW@Step_grados_ccw+1
   839  041D  120A  118A  21FA  120A  118A  	fcall	_Stepper_CCW
   840  0422                     l3363:	
   841                           
   842                           ;Slave_Lou.c: 119:             _delay((unsigned long)((10)*(1000000/4000.0)));
   843  0422  3004               	movlw	4
   844  0423  1283               	bcf	3,5	;RP0=0, select bank0
   845  0424  1303               	bcf	3,6	;RP1=0, select bank0
   846  0425  00A1               	movwf	??_main+1
   847  0426  303D               	movlw	61
   848  0427  00A0               	movwf	??_main
   849  0428                     u867:	
   850  0428  0BA0               	decfsz	??_main,f
   851  0429  2C28               	goto	u867
   852  042A  0BA1               	decfsz	??_main+1,f
   853  042B  2C28               	goto	u867
   854  042C                     l3365:	
   855                           
   856                           ;Slave_Lou.c: 120:             for (int i = 0; i<60; i++){
   857  042C  1283               	bcf	3,5	;RP0=0, select bank0
   858  042D  1303               	bcf	3,6	;RP1=0, select bank0
   859  042E  01A2               	clrf	main@i
   860  042F  01A3               	clrf	main@i+1
   861  0430                     l3371:	
   862                           
   863                           ;Slave_Lou.c: 121:                 Servo1_grados(45);
   864  0430  302D               	movlw	45
   865  0431  120A  118A  2604  120A  118A  	fcall	_Servo1_grados
   866  0436                     l3373:	
   867                           
   868                           ;Slave_Lou.c: 122:                 _delay((unsigned long)((10)*(1000000/4000.0)));
   869  0436  3004               	movlw	4
   870  0437  1283               	bcf	3,5	;RP0=0, select bank0
   871  0438  1303               	bcf	3,6	;RP1=0, select bank0
   872  0439  00A1               	movwf	??_main+1
   873  043A  303D               	movlw	61
   874  043B  00A0               	movwf	??_main
   875  043C                     u877:	
   876  043C  0BA0               	decfsz	??_main,f
   877  043D  2C3C               	goto	u877
   878  043E  0BA1               	decfsz	??_main+1,f
   879  043F  2C3C               	goto	u877
   880  0440                     l3375:	
   881                           
   882                           ;Slave_Lou.c: 123:                 Servo2_grados(180);
   883  0440  30B4               	movlw	180
   884  0441  120A  118A  25AF  120A  118A  	fcall	_Servo2_grados
   885  0446                     l3377:	
   886                           
   887                           ;Slave_Lou.c: 124:                 ADCON0bits.GO = 1;
   888  0446  1283               	bcf	3,5	;RP0=0, select bank0
   889  0447  1303               	bcf	3,6	;RP1=0, select bank0
   890  0448  149F               	bsf	31,1	;volatile
   891  0449                     l108:	
   892                           ;Slave_Lou.c: 126:                 }
   893                           
   894                           
   895                           ;Slave_Lou.c: 125:                 while(ADCON0bits.GO == 1){
   896  0449  189F               	btfsc	31,1	;volatile
   897  044A  2C4C               	goto	u831
   898  044B  2C4D               	goto	u830
   899  044C                     u831:	
   900  044C  2C49               	goto	l108
   901  044D                     u830:	
   902  044D                     l3379:	
   903                           
   904                           ;Slave_Lou.c: 127:             }
   905  044D  3001               	movlw	1
   906  044E  07A2               	addwf	main@i,f
   907  044F  1803               	skipnc
   908  0450  0AA3               	incf	main@i+1,f
   909  0451  3000               	movlw	0
   910  0452  07A3               	addwf	main@i+1,f
   911  0453                     l3381:	
   912  0453  0823               	movf	main@i+1,w
   913  0454  3A80               	xorlw	128
   914  0455  00FF               	movwf	btemp+1
   915  0456  3080               	movlw	128
   916  0457  027F               	subwf	btemp+1,w
   917  0458  1D03               	skipz
   918  0459  2C5C               	goto	u845
   919  045A  303C               	movlw	60
   920  045B  0222               	subwf	main@i,w
   921  045C                     u845:	
   922  045C  1C03               	skipc
   923  045D  2C5F               	goto	u841
   924  045E  2C60               	goto	u840
   925  045F                     u841:	
   926  045F  2C30               	goto	l3371
   927  0460                     u840:	
   928  0460                     l3383:	
   929                           
   930                           ;Slave_Lou.c: 128:             _delay((unsigned long)((500)*(1000000/4000.0)));
   931  0460  30A3               	movlw	163
   932  0461  1283               	bcf	3,5	;RP0=0, select bank0
   933  0462  1303               	bcf	3,6	;RP1=0, select bank0
   934  0463  00A1               	movwf	??_main+1
   935  0464  3054               	movlw	84
   936  0465  00A0               	movwf	??_main
   937  0466                     u887:	
   938  0466  0BA0               	decfsz	??_main,f
   939  0467  2C66               	goto	u887
   940  0468  0BA1               	decfsz	??_main+1,f
   941  0469  2C66               	goto	u887
   942  046A  0000               	nop
   943  046B                     l3385:	
   944                           
   945                           ;Slave_Lou.c: 129:             Stepper_CW(180);
   946  046B  30B4               	movlw	180
   947  046C  00F3               	movwf	Stepper_CW@Step_grados_cw
   948  046D  3000               	movlw	0
   949  046E  00F4               	movwf	Stepper_CW@Step_grados_cw+1
   950  046F  120A  118A  201B  120A  118A  	fcall	_Stepper_CW
   951  0474                     l3387:	
   952                           
   953                           ;Slave_Lou.c: 130:             Servo1_grados(0);
   954  0474  3000               	movlw	0
   955  0475  120A  118A  2604  120A  118A  	fcall	_Servo1_grados
   956  047A                     l3389:	
   957                           
   958                           ;Slave_Lou.c: 131:             Servo2_grados(0);
   959  047A  3000               	movlw	0
   960  047B  120A  118A  25AF  120A  118A  	fcall	_Servo2_grados
   961  0480                     l3391:	
   962                           
   963                           ;Slave_Lou.c: 132:             indicador = 0;
   964  0480  1283               	bcf	3,5	;RP0=0, select bank0
   965  0481  1303               	bcf	3,6	;RP1=0, select bank0
   966  0482  01A4               	clrf	_indicador
   967  0483                     l111:	
   968                           ;Slave_Lou.c: 133:             while(PORTEbits.RE0 == 1);
   969                           
   970  0483  1809               	btfsc	9,0	;volatile
   971  0484  2C86               	goto	u851
   972  0485  2C87               	goto	u850
   973  0486                     u851:	
   974  0486  2C83               	goto	l111
   975  0487                     u850:	
   976  0487  2C00               	goto	l3355
   977  0488  120A  118A  280C   	ljmp	start
   978  048B                     __end_of_main:	
   979                           
   980                           	psect	text1
   981  0688                     __ptext1:	
   982 ;; *************** function _init_PWM_2 *****************
   983 ;; Defined at:
   984 ;;		line 42 in file "PWMs.c"
   985 ;; Parameters:    Size  Location     Type
   986 ;;		None
   987 ;; Auto vars:     Size  Location     Type
   988 ;;		None
   989 ;; Return value:  Size  Location     Type
   990 ;;                  1    wreg      void 
   991 ;; Registers used:
   992 ;;		wreg
   993 ;; Tracked objects:
   994 ;;		On entry : 0/0
   995 ;;		On exit  : 0/0
   996 ;;		Unchanged: 0/0
   997 ;; Data sizes:     COMMON   BANK0   BANK1   BANK3   BANK2
   998 ;;      Params:         0       0       0       0       0
   999 ;;      Locals:         0       0       0       0       0
  1000 ;;      Temps:          0       0       0       0       0
  1001 ;;      Totals:         0       0       0       0       0
  1002 ;;Total ram usage:        0 bytes
  1003 ;; Hardware stack levels used:    1
  1004 ;; Hardware stack levels required when called:    1
  1005 ;; This function calls:
  1006 ;;		Nothing
  1007 ;; This function is called by:
  1008 ;;		_main
  1009 ;; This function uses a non-reentrant model
  1010 ;;
  1011                           
  1012                           
  1013                           ;psect for function _init_PWM_2
  1014  0688                     _init_PWM_2:	
  1015  0688                     l3101:	
  1016                           ;incstack = 0
  1017                           ; Regs used in _init_PWM_2: [wreg]
  1018                           
  1019                           
  1020                           ;PWMs.c: 43:     TRISCbits.TRISC2 = 1;
  1021  0688  1683               	bsf	3,5	;RP0=1, select bank1
  1022  0689  1303               	bcf	3,6	;RP1=0, select bank1
  1023  068A  1507               	bsf	7,2	;volatile
  1024  068B                     l3103:	
  1025                           
  1026                           ;PWMs.c: 45:     PR2 = 200;
  1027  068B  30C8               	movlw	200
  1028  068C  0092               	movwf	18	;volatile
  1029  068D                     l3105:	
  1030                           
  1031                           ;PWMs.c: 47:     CCP1CONbits.CCP1M3 = 1;
  1032  068D  1283               	bcf	3,5	;RP0=0, select bank0
  1033  068E  1303               	bcf	3,6	;RP1=0, select bank0
  1034  068F  1597               	bsf	23,3	;volatile
  1035  0690                     l3107:	
  1036                           
  1037                           ;PWMs.c: 48:     CCP1CONbits.CCP1M2 = 1;
  1038  0690  1517               	bsf	23,2	;volatile
  1039  0691                     l3109:	
  1040                           
  1041                           ;PWMs.c: 49:     CCP1CONbits.CCP1M1 = 0;
  1042  0691  1097               	bcf	23,1	;volatile
  1043  0692                     l3111:	
  1044                           
  1045                           ;PWMs.c: 50:     CCP1CONbits.CCP1M0 = 0;
  1046  0692  1017               	bcf	23,0	;volatile
  1047  0693                     l3113:	
  1048                           
  1049                           ;PWMs.c: 52:     CCP1CONbits.P1M1 = 0;
  1050  0693  1397               	bcf	23,7	;volatile
  1051  0694                     l3115:	
  1052                           
  1053                           ;PWMs.c: 53:     CCP1CONbits.P1M0 = 0;
  1054  0694  1317               	bcf	23,6	;volatile
  1055                           
  1056                           ;PWMs.c: 56:     CCPR2L = 0b00011011;
  1057  0695  301B               	movlw	27
  1058  0696  009B               	movwf	27	;volatile
  1059  0697                     l3117:	
  1060                           
  1061                           ;PWMs.c: 57:     CCP1CONbits.DC1B0 = 1;
  1062  0697  1617               	bsf	23,4	;volatile
  1063  0698                     l3119:	
  1064                           
  1065                           ;PWMs.c: 58:     CCP1CONbits.DC1B1 = 1;
  1066  0698  1697               	bsf	23,5	;volatile
  1067  0699                     l3121:	
  1068                           
  1069                           ;PWMs.c: 60:     PIR1bits.TMR2IF = 0;
  1070  0699  108C               	bcf	12,1	;volatile
  1071  069A                     l3123:	
  1072                           
  1073                           ;PWMs.c: 61:     T2CONbits.T2CKPS1 = 1;
  1074  069A  1492               	bsf	18,1	;volatile
  1075  069B                     l3125:	
  1076                           
  1077                           ;PWMs.c: 62:     T2CONbits.T2CKPS0 = 1;
  1078  069B  1412               	bsf	18,0	;volatile
  1079  069C                     l3127:	
  1080                           
  1081                           ;PWMs.c: 64:     T2CONbits.TMR2ON = 1;
  1082  069C  1512               	bsf	18,2	;volatile
  1083                           
  1084                           ;PWMs.c: 66:     while(PIR1bits.TMR2IF == 1){
  1085  069D  2E9F               	goto	l268
  1086  069E                     l269:	
  1087                           
  1088                           ;PWMs.c: 67:         PIR1bits.TMR2IF = 0;
  1089  069E  108C               	bcf	12,1	;volatile
  1090  069F                     l268:	
  1091                           ;PWMs.c: 68:     }
  1092                           
  1093                           
  1094                           ;PWMs.c: 66:     while(PIR1bits.TMR2IF == 1){
  1095  069F  188C               	btfsc	12,1	;volatile
  1096  06A0  2EA2               	goto	u681
  1097  06A1  2EA3               	goto	u680
  1098  06A2                     u681:	
  1099  06A2  2E9E               	goto	l269
  1100  06A3                     u680:	
  1101  06A3                     l270:	
  1102                           
  1103                           ;PWMs.c: 70:     TRISCbits.TRISC2 = 0;
  1104  06A3  1683               	bsf	3,5	;RP0=1, select bank1
  1105  06A4  1303               	bcf	3,6	;RP1=0, select bank1
  1106  06A5  1107               	bcf	7,2	;volatile
  1107  06A6                     l271:	
  1108  06A6  0008               	return
  1109  06A7                     __end_of_init_PWM_2:	
  1110                           
  1111                           	psect	text2
  1112  06A7                     __ptext2:	
  1113 ;; *************** function _init_PWM_1 *****************
  1114 ;; Defined at:
  1115 ;;		line 14 in file "PWMs.c"
  1116 ;; Parameters:    Size  Location     Type
  1117 ;;		None
  1118 ;; Auto vars:     Size  Location     Type
  1119 ;;		None
  1120 ;; Return value:  Size  Location     Type
  1121 ;;                  1    wreg      void 
  1122 ;; Registers used:
  1123 ;;		wreg
  1124 ;; Tracked objects:
  1125 ;;		On entry : 0/0
  1126 ;;		On exit  : 0/0
  1127 ;;		Unchanged: 0/0
  1128 ;; Data sizes:     COMMON   BANK0   BANK1   BANK3   BANK2
  1129 ;;      Params:         0       0       0       0       0
  1130 ;;      Locals:         0       0       0       0       0
  1131 ;;      Temps:          0       0       0       0       0
  1132 ;;      Totals:         0       0       0       0       0
  1133 ;;Total ram usage:        0 bytes
  1134 ;; Hardware stack levels used:    1
  1135 ;; Hardware stack levels required when called:    1
  1136 ;; This function calls:
  1137 ;;		Nothing
  1138 ;; This function is called by:
  1139 ;;		_main
  1140 ;; This function uses a non-reentrant model
  1141 ;;
  1142                           
  1143                           
  1144                           ;psect for function _init_PWM_1
  1145  06A7                     _init_PWM_1:	
  1146  06A7                     l3077:	
  1147                           ;incstack = 0
  1148                           ; Regs used in _init_PWM_1: [wreg]
  1149                           
  1150                           
  1151                           ;PWMs.c: 15:     TRISCbits.TRISC1 = 1;
  1152  06A7  1683               	bsf	3,5	;RP0=1, select bank1
  1153  06A8  1303               	bcf	3,6	;RP1=0, select bank1
  1154  06A9  1487               	bsf	7,1	;volatile
  1155  06AA                     l3079:	
  1156                           
  1157                           ;PWMs.c: 17:     PR2 = 200;
  1158  06AA  30C8               	movlw	200
  1159  06AB  0092               	movwf	18	;volatile
  1160  06AC                     l3081:	
  1161                           
  1162                           ;PWMs.c: 19:     CCP2CONbits.CCP2M3 = 1;
  1163  06AC  1283               	bcf	3,5	;RP0=0, select bank0
  1164  06AD  1303               	bcf	3,6	;RP1=0, select bank0
  1165  06AE  159D               	bsf	29,3	;volatile
  1166  06AF                     l3083:	
  1167                           
  1168                           ;PWMs.c: 20:     CCP2CONbits.CCP2M2 = 1;
  1169  06AF  151D               	bsf	29,2	;volatile
  1170  06B0                     l3085:	
  1171                           
  1172                           ;PWMs.c: 21:     CCP2CONbits.CCP2M1 = 1;
  1173  06B0  149D               	bsf	29,1	;volatile
  1174  06B1                     l3087:	
  1175                           
  1176                           ;PWMs.c: 22:     CCP2CONbits.CCP2M0 = 1;
  1177  06B1  141D               	bsf	29,0	;volatile
  1178                           
  1179                           ;PWMs.c: 25:     CCPR2L = 0b00011011;
  1180  06B2  301B               	movlw	27
  1181  06B3  009B               	movwf	27	;volatile
  1182  06B4                     l3089:	
  1183                           
  1184                           ;PWMs.c: 26:     CCP2CONbits.DC2B0 = 1;
  1185  06B4  161D               	bsf	29,4	;volatile
  1186  06B5                     l3091:	
  1187                           
  1188                           ;PWMs.c: 27:     CCP2CONbits.DC2B1 = 1;
  1189  06B5  169D               	bsf	29,5	;volatile
  1190  06B6                     l3093:	
  1191                           
  1192                           ;PWMs.c: 29:     PIR1bits.TMR2IF = 0;
  1193  06B6  108C               	bcf	12,1	;volatile
  1194  06B7                     l3095:	
  1195                           
  1196                           ;PWMs.c: 30:     T2CONbits.T2CKPS1 = 1;
  1197  06B7  1492               	bsf	18,1	;volatile
  1198  06B8                     l3097:	
  1199                           
  1200                           ;PWMs.c: 31:     T2CONbits.T2CKPS0 = 1;
  1201  06B8  1412               	bsf	18,0	;volatile
  1202  06B9                     l3099:	
  1203                           
  1204                           ;PWMs.c: 33:     T2CONbits.TMR2ON = 1;
  1205  06B9  1512               	bsf	18,2	;volatile
  1206                           
  1207                           ;PWMs.c: 35:     while(PIR1bits.TMR2IF == 1){
  1208  06BA  2EBC               	goto	l262
  1209  06BB                     l263:	
  1210                           
  1211                           ;PWMs.c: 36:         PIR1bits.TMR2IF = 0;
  1212  06BB  108C               	bcf	12,1	;volatile
  1213  06BC                     l262:	
  1214                           ;PWMs.c: 37:     }
  1215                           
  1216                           
  1217                           ;PWMs.c: 35:     while(PIR1bits.TMR2IF == 1){
  1218  06BC  188C               	btfsc	12,1	;volatile
  1219  06BD  2EBF               	goto	u671
  1220  06BE  2EC0               	goto	u670
  1221  06BF                     u671:	
  1222  06BF  2EBB               	goto	l263
  1223  06C0                     u670:	
  1224  06C0                     l264:	
  1225                           
  1226                           ;PWMs.c: 39:     TRISCbits.TRISC1 = 0;
  1227  06C0  1683               	bsf	3,5	;RP0=1, select bank1
  1228  06C1  1303               	bcf	3,6	;RP1=0, select bank1
  1229  06C2  1087               	bcf	7,1	;volatile
  1230  06C3                     l265:	
  1231  06C3  0008               	return
  1232  06C4                     __end_of_init_PWM_1:	
  1233                           
  1234                           	psect	text3
  1235  0659                     __ptext3:	
  1236 ;; *************** function _config_PORTS *****************
  1237 ;; Defined at:
  1238 ;;		line 141 in file "Slave_Lou.c"
  1239 ;; Parameters:    Size  Location     Type
  1240 ;;		None
  1241 ;; Auto vars:     Size  Location     Type
  1242 ;;		None
  1243 ;; Return value:  Size  Location     Type
  1244 ;;                  1    wreg      void 
  1245 ;; Registers used:
  1246 ;;		wreg, fsr0l, fsr0h, status,2, status,0, pclath, cstack
  1247 ;; Tracked objects:
  1248 ;;		On entry : 0/0
  1249 ;;		On exit  : 0/0
  1250 ;;		Unchanged: 0/0
  1251 ;; Data sizes:     COMMON   BANK0   BANK1   BANK3   BANK2
  1252 ;;      Params:         0       0       0       0       0
  1253 ;;      Locals:         0       0       0       0       0
  1254 ;;      Temps:          0       0       0       0       0
  1255 ;;      Totals:         0       0       0       0       0
  1256 ;;Total ram usage:        0 bytes
  1257 ;; Hardware stack levels used:    1
  1258 ;; Hardware stack levels required when called:    2
  1259 ;; This function calls:
  1260 ;;		_OSC_config
  1261 ;; This function is called by:
  1262 ;;		_main
  1263 ;; This function uses a non-reentrant model
  1264 ;;
  1265                           
  1266                           
  1267                           ;psect for function _config_PORTS
  1268  0659                     _config_PORTS:	
  1269  0659                     l3055:	
  1270                           ;incstack = 0
  1271                           ; Regs used in _config_PORTS: [wreg-fsr0h+status,2+status,0+pclath+cstack]
  1272                           
  1273                           
  1274                           ;Slave_Lou.c: 142:     OSC_config(1000000);
  1275  0659  3000               	movlw	0
  1276  065A  00F6               	movwf	OSC_config@frecuencia+3
  1277  065B  300F               	movlw	15
  1278  065C  00F5               	movwf	OSC_config@frecuencia+2
  1279  065D  3042               	movlw	66
  1280  065E  00F4               	movwf	OSC_config@frecuencia+1
  1281  065F  3040               	movlw	64
  1282  0660  00F3               	movwf	OSC_config@frecuencia
  1283  0661  120A  118A  248B  120A  118A  	fcall	_OSC_config
  1284  0666                     l3057:	
  1285                           
  1286                           ;Slave_Lou.c: 144:     PORTA = 0;
  1287  0666  1283               	bcf	3,5	;RP0=0, select bank0
  1288  0667  1303               	bcf	3,6	;RP1=0, select bank0
  1289  0668  0185               	clrf	5	;volatile
  1290  0669                     l3059:	
  1291                           
  1292                           ;Slave_Lou.c: 145:     TRISA = 0b00000001;
  1293  0669  3001               	movlw	1
  1294  066A  1683               	bsf	3,5	;RP0=1, select bank1
  1295  066B  1303               	bcf	3,6	;RP1=0, select bank1
  1296  066C  0085               	movwf	5	;volatile
  1297  066D                     l3061:	
  1298                           
  1299                           ;Slave_Lou.c: 146:     ANSEL = 0b00000001;
  1300  066D  3001               	movlw	1
  1301  066E  1683               	bsf	3,5	;RP0=1, select bank3
  1302  066F  1703               	bsf	3,6	;RP1=1, select bank3
  1303  0670  0088               	movwf	8	;volatile
  1304  0671                     l3063:	
  1305                           
  1306                           ;Slave_Lou.c: 148:     PORTB = 0;
  1307  0671  1283               	bcf	3,5	;RP0=0, select bank0
  1308  0672  1303               	bcf	3,6	;RP1=0, select bank0
  1309  0673  0186               	clrf	6	;volatile
  1310  0674                     l3065:	
  1311                           
  1312                           ;Slave_Lou.c: 149:     TRISB = 0x00;
  1313  0674  1683               	bsf	3,5	;RP0=1, select bank1
  1314  0675  1303               	bcf	3,6	;RP1=0, select bank1
  1315  0676  0186               	clrf	6	;volatile
  1316  0677                     l3067:	
  1317                           
  1318                           ;Slave_Lou.c: 150:     ANSELH = 0;
  1319  0677  1683               	bsf	3,5	;RP0=1, select bank3
  1320  0678  1703               	bsf	3,6	;RP1=1, select bank3
  1321  0679  0189               	clrf	9	;volatile
  1322  067A                     l3069:	
  1323                           
  1324                           ;Slave_Lou.c: 152:     PORTD = 0;
  1325  067A  1283               	bcf	3,5	;RP0=0, select bank0
  1326  067B  1303               	bcf	3,6	;RP1=0, select bank0
  1327  067C  0188               	clrf	8	;volatile
  1328  067D                     l3071:	
  1329                           
  1330                           ;Slave_Lou.c: 153:     TRISD = 0x00;
  1331  067D  1683               	bsf	3,5	;RP0=1, select bank1
  1332  067E  1303               	bcf	3,6	;RP1=0, select bank1
  1333  067F  0188               	clrf	8	;volatile
  1334  0680                     l3073:	
  1335                           
  1336                           ;Slave_Lou.c: 155:     PORTE = 0;
  1337  0680  1283               	bcf	3,5	;RP0=0, select bank0
  1338  0681  1303               	bcf	3,6	;RP1=0, select bank0
  1339  0682  0189               	clrf	9	;volatile
  1340  0683                     l3075:	
  1341                           
  1342                           ;Slave_Lou.c: 156:     TRISE = 0b1111;
  1343  0683  300F               	movlw	15
  1344  0684  1683               	bsf	3,5	;RP0=1, select bank1
  1345  0685  1303               	bcf	3,6	;RP1=0, select bank1
  1346  0686  0089               	movwf	9	;volatile
  1347  0687                     l119:	
  1348  0687  0008               	return
  1349  0688                     __end_of_config_PORTS:	
  1350                           
  1351                           	psect	text4
  1352  048B                     __ptext4:	
  1353 ;; *************** function _OSC_config *****************
  1354 ;; Defined at:
  1355 ;;		line 160 in file "Slave_Lou.c"
  1356 ;; Parameters:    Size  Location     Type
  1357 ;;  frecuencia      4    3[COMMON] unsigned long 
  1358 ;; Auto vars:     Size  Location     Type
  1359 ;;		None
  1360 ;; Return value:  Size  Location     Type
  1361 ;;                  1    wreg      void 
  1362 ;; Registers used:
  1363 ;;		wreg, fsr0l, fsr0h, status,2, status,0
  1364 ;; Tracked objects:
  1365 ;;		On entry : 0/0
  1366 ;;		On exit  : 0/0
  1367 ;;		Unchanged: 0/0
  1368 ;; Data sizes:     COMMON   BANK0   BANK1   BANK3   BANK2
  1369 ;;      Params:         4       0       0       0       0
  1370 ;;      Locals:         0       0       0       0       0
  1371 ;;      Temps:          0       0       0       0       0
  1372 ;;      Totals:         4       0       0       0       0
  1373 ;;Total ram usage:        4 bytes
  1374 ;; Hardware stack levels used:    1
  1375 ;; Hardware stack levels required when called:    1
  1376 ;; This function calls:
  1377 ;;		Nothing
  1378 ;; This function is called by:
  1379 ;;		_main
  1380 ;;		_config_PORTS
  1381 ;; This function uses a non-reentrant model
  1382 ;;
  1383                           
  1384                           
  1385                           ;psect for function _OSC_config
  1386  048B                     _OSC_config:	
  1387  048B                     l2965:	
  1388                           ;incstack = 0
  1389                           ; Regs used in _OSC_config: [wreg-fsr0h+status,2+status,0]
  1390                           
  1391                           
  1392                           ;Slave_Lou.c: 161:     switch(frecuencia){
  1393  048B  2CC7               	goto	l2985
  1394  048C                     l2967:	
  1395                           
  1396                           ;Slave_Lou.c: 163:             OSCCONbits.IRCF = 0b111;
  1397  048C  3070               	movlw	112
  1398  048D  1683               	bsf	3,5	;RP0=1, select bank1
  1399  048E  1303               	bcf	3,6	;RP1=0, select bank1
  1400  048F  048F               	iorwf	15,f	;volatile
  1401                           
  1402                           ;Slave_Lou.c: 164:             break;
  1403  0490  2D36               	goto	l133
  1404  0491                     l2969:	
  1405                           
  1406                           ;Slave_Lou.c: 166:             OSCCONbits.IRCF = 0b110;
  1407  0491  1683               	bsf	3,5	;RP0=1, select bank1
  1408  0492  1303               	bcf	3,6	;RP1=0, select bank1
  1409  0493  080F               	movf	15,w	;volatile
  1410  0494  398F               	andlw	-113
  1411  0495  3860               	iorlw	96
  1412  0496  008F               	movwf	15	;volatile
  1413                           
  1414                           ;Slave_Lou.c: 167:             break;
  1415  0497  2D36               	goto	l133
  1416  0498                     l2971:	
  1417                           
  1418                           ;Slave_Lou.c: 169:             OSCCONbits.IRCF = 0b101;
  1419  0498  1683               	bsf	3,5	;RP0=1, select bank1
  1420  0499  1303               	bcf	3,6	;RP1=0, select bank1
  1421  049A  080F               	movf	15,w	;volatile
  1422  049B  398F               	andlw	-113
  1423  049C  3850               	iorlw	80
  1424  049D  008F               	movwf	15	;volatile
  1425                           
  1426                           ;Slave_Lou.c: 170:             break;
  1427  049E  2D36               	goto	l133
  1428  049F                     l2973:	
  1429                           
  1430                           ;Slave_Lou.c: 172:             OSCCONbits.IRCF = 0b100;
  1431  049F  1683               	bsf	3,5	;RP0=1, select bank1
  1432  04A0  1303               	bcf	3,6	;RP1=0, select bank1
  1433  04A1  080F               	movf	15,w	;volatile
  1434  04A2  398F               	andlw	-113
  1435  04A3  3840               	iorlw	64
  1436  04A4  008F               	movwf	15	;volatile
  1437                           
  1438                           ;Slave_Lou.c: 173:             break;
  1439  04A5  2D36               	goto	l133
  1440  04A6                     l2975:	
  1441                           
  1442                           ;Slave_Lou.c: 175:             OSCCONbits.IRCF = 0b011;
  1443  04A6  1683               	bsf	3,5	;RP0=1, select bank1
  1444  04A7  1303               	bcf	3,6	;RP1=0, select bank1
  1445  04A8  080F               	movf	15,w	;volatile
  1446  04A9  398F               	andlw	-113
  1447  04AA  3830               	iorlw	48
  1448  04AB  008F               	movwf	15	;volatile
  1449                           
  1450                           ;Slave_Lou.c: 176:             break;
  1451  04AC  2D36               	goto	l133
  1452  04AD                     l2977:	
  1453                           
  1454                           ;Slave_Lou.c: 178:             OSCCONbits.IRCF = 0b010;
  1455  04AD  1683               	bsf	3,5	;RP0=1, select bank1
  1456  04AE  1303               	bcf	3,6	;RP1=0, select bank1
  1457  04AF  080F               	movf	15,w	;volatile
  1458  04B0  398F               	andlw	-113
  1459  04B1  3820               	iorlw	32
  1460  04B2  008F               	movwf	15	;volatile
  1461                           
  1462                           ;Slave_Lou.c: 179:             break;
  1463  04B3  2D36               	goto	l133
  1464  04B4                     l2979:	
  1465                           
  1466                           ;Slave_Lou.c: 181:             OSCCONbits.IRCF = 0b001;
  1467  04B4  1683               	bsf	3,5	;RP0=1, select bank1
  1468  04B5  1303               	bcf	3,6	;RP1=0, select bank1
  1469  04B6  080F               	movf	15,w	;volatile
  1470  04B7  398F               	andlw	-113
  1471  04B8  3810               	iorlw	16
  1472  04B9  008F               	movwf	15	;volatile
  1473                           
  1474                           ;Slave_Lou.c: 182:             break;
  1475  04BA  2D36               	goto	l133
  1476  04BB                     l2981:	
  1477                           
  1478                           ;Slave_Lou.c: 184:             OSCCONbits.IRCF = 0b000;
  1479  04BB  308F               	movlw	-113
  1480  04BC  1683               	bsf	3,5	;RP0=1, select bank1
  1481  04BD  1303               	bcf	3,6	;RP1=0, select bank1
  1482  04BE  058F               	andwf	15,f	;volatile
  1483                           
  1484                           ;Slave_Lou.c: 185:             break;
  1485  04BF  2D36               	goto	l133
  1486  04C0                     l2983:	
  1487                           
  1488                           ;Slave_Lou.c: 187:             OSCCONbits.IRCF = 0b110;
  1489  04C0  1683               	bsf	3,5	;RP0=1, select bank1
  1490  04C1  1303               	bcf	3,6	;RP1=0, select bank1
  1491  04C2  080F               	movf	15,w	;volatile
  1492  04C3  398F               	andlw	-113
  1493  04C4  3860               	iorlw	96
  1494  04C5  008F               	movwf	15	;volatile
  1495                           
  1496                           ;Slave_Lou.c: 188:     }
  1497  04C6  2D36               	goto	l133
  1498  04C7                     l2985:	
  1499                           
  1500                           ; Switch on 2 bytes has been partitioned into a top level switch of size 1, and 9 sub-sw
      +                          itches
  1501                           ; Switch size 1, requested type "simple"
  1502                           ; Number of cases is 1, Range of values is 0 to 0
  1503                           ; switch strategies available:
  1504                           ; Name         Instructions Cycles
  1505                           ; simple_byte            4     3 (average)
  1506                           ; direct_byte           11     8 (fixed)
  1507                           ; jumptable            260     6 (fixed)
  1508                           ;	Chosen strategy is simple_byte
  1509  04C7  0876               	movf	OSC_config@frecuencia+3,w
  1510  04C8  3A00               	xorlw	0	; case 0
  1511  04C9  1903               	skipnz
  1512  04CA  2D1C               	goto	l3869
  1513  04CB  2CC0               	goto	l2983
  1514  04CC                     l3853:	
  1515                           
  1516                           ; Switch on 2 bytes has been partitioned into a top level switch of size 1, and 1 sub-sw
      +                          itches
  1517                           ; Switch size 1, requested type "simple"
  1518                           ; Number of cases is 1, Range of values is 125 to 125
  1519                           ; switch strategies available:
  1520                           ; Name         Instructions Cycles
  1521                           ; simple_byte            4     3 (average)
  1522                           ; direct_byte           14    11 (fixed)
  1523                           ; jumptable            263     9 (fixed)
  1524                           ;	Chosen strategy is simple_byte
  1525  04CC  0874               	movf	OSC_config@frecuencia+1,w
  1526  04CD  3A7D               	xorlw	125	; case 125
  1527  04CE  1903               	skipnz
  1528  04CF  2CD1               	goto	l3871
  1529  04D0  2CC0               	goto	l2983
  1530  04D1                     l3871:	
  1531                           
  1532                           ; Switch size 1, requested type "simple"
  1533                           ; Number of cases is 1, Range of values is 0 to 0
  1534                           ; switch strategies available:
  1535                           ; Name         Instructions Cycles
  1536                           ; simple_byte            4     3 (average)
  1537                           ; direct_byte           11     8 (fixed)
  1538                           ; jumptable            260     6 (fixed)
  1539                           ;	Chosen strategy is simple_byte
  1540  04D1  0873               	movf	OSC_config@frecuencia,w
  1541  04D2  3A00               	xorlw	0	; case 0
  1542  04D3  1903               	skipnz
  1543  04D4  2CBB               	goto	l2981
  1544  04D5  2CC0               	goto	l2983
  1545  04D6                     l3855:	
  1546                           
  1547                           ; Switch on 2 bytes has been partitioned into a top level switch of size 1, and 1 sub-sw
      +                          itches
  1548                           ; Switch size 1, requested type "simple"
  1549                           ; Number of cases is 1, Range of values is 232 to 232
  1550                           ; switch strategies available:
  1551                           ; Name         Instructions Cycles
  1552                           ; simple_byte            4     3 (average)
  1553                           ; direct_byte           14    11 (fixed)
  1554                           ; jumptable            263     9 (fixed)
  1555                           ;	Chosen strategy is simple_byte
  1556  04D6  0874               	movf	OSC_config@frecuencia+1,w
  1557  04D7  3AE8               	xorlw	232	; case 232
  1558  04D8  1903               	skipnz
  1559  04D9  2CDB               	goto	l3873
  1560  04DA  2CC0               	goto	l2983
  1561  04DB                     l3873:	
  1562                           
  1563                           ; Switch size 1, requested type "simple"
  1564                           ; Number of cases is 1, Range of values is 72 to 72
  1565                           ; switch strategies available:
  1566                           ; Name         Instructions Cycles
  1567                           ; simple_byte            4     3 (average)
  1568                           ; direct_byte           14    11 (fixed)
  1569                           ; jumptable            263     9 (fixed)
  1570                           ;	Chosen strategy is simple_byte
  1571  04DB  0873               	movf	OSC_config@frecuencia,w
  1572  04DC  3A48               	xorlw	72	; case 72
  1573  04DD  1903               	skipnz
  1574  04DE  2CB4               	goto	l2979
  1575  04DF  2CC0               	goto	l2983
  1576  04E0                     l3857:	
  1577                           
  1578                           ; Switch on 2 bytes has been partitioned into a top level switch of size 1, and 1 sub-sw
      +                          itches
  1579                           ; Switch size 1, requested type "simple"
  1580                           ; Number of cases is 1, Range of values is 208 to 208
  1581                           ; switch strategies available:
  1582                           ; Name         Instructions Cycles
  1583                           ; simple_byte            4     3 (average)
  1584                           ; direct_byte           14    11 (fixed)
  1585                           ; jumptable            263     9 (fixed)
  1586                           ;	Chosen strategy is simple_byte
  1587  04E0  0874               	movf	OSC_config@frecuencia+1,w
  1588  04E1  3AD0               	xorlw	208	; case 208
  1589  04E2  1903               	skipnz
  1590  04E3  2CE5               	goto	l3875
  1591  04E4  2CC0               	goto	l2983
  1592  04E5                     l3875:	
  1593                           
  1594                           ; Switch size 1, requested type "simple"
  1595                           ; Number of cases is 1, Range of values is 144 to 144
  1596                           ; switch strategies available:
  1597                           ; Name         Instructions Cycles
  1598                           ; simple_byte            4     3 (average)
  1599                           ; direct_byte           14    11 (fixed)
  1600                           ; jumptable            263     9 (fixed)
  1601                           ;	Chosen strategy is simple_byte
  1602  04E5  0873               	movf	OSC_config@frecuencia,w
  1603  04E6  3A90               	xorlw	144	; case 144
  1604  04E7  1903               	skipnz
  1605  04E8  2CAD               	goto	l2977
  1606  04E9  2CC0               	goto	l2983
  1607  04EA                     l3859:	
  1608                           
  1609                           ; Switch on 2 bytes has been partitioned into a top level switch of size 1, and 1 sub-sw
      +                          itches
  1610                           ; Switch size 1, requested type "simple"
  1611                           ; Number of cases is 1, Range of values is 161 to 161
  1612                           ; switch strategies available:
  1613                           ; Name         Instructions Cycles
  1614                           ; simple_byte            4     3 (average)
  1615                           ; direct_byte           14    11 (fixed)
  1616                           ; jumptable            263     9 (fixed)
  1617                           ;	Chosen strategy is simple_byte
  1618  04EA  0874               	movf	OSC_config@frecuencia+1,w
  1619  04EB  3AA1               	xorlw	161	; case 161
  1620  04EC  1903               	skipnz
  1621  04ED  2CEF               	goto	l3877
  1622  04EE  2CC0               	goto	l2983
  1623  04EF                     l3877:	
  1624                           
  1625                           ; Switch size 1, requested type "simple"
  1626                           ; Number of cases is 1, Range of values is 32 to 32
  1627                           ; switch strategies available:
  1628                           ; Name         Instructions Cycles
  1629                           ; simple_byte            4     3 (average)
  1630                           ; direct_byte           14    11 (fixed)
  1631                           ; jumptable            263     9 (fixed)
  1632                           ;	Chosen strategy is simple_byte
  1633  04EF  0873               	movf	OSC_config@frecuencia,w
  1634  04F0  3A20               	xorlw	32	; case 32
  1635  04F1  1903               	skipnz
  1636  04F2  2CA6               	goto	l2975
  1637  04F3  2CC0               	goto	l2983
  1638  04F4                     l3861:	
  1639                           
  1640                           ; Switch on 2 bytes has been partitioned into a top level switch of size 1, and 1 sub-sw
      +                          itches
  1641                           ; Switch size 1, requested type "simple"
  1642                           ; Number of cases is 1, Range of values is 66 to 66
  1643                           ; switch strategies available:
  1644                           ; Name         Instructions Cycles
  1645                           ; simple_byte            4     3 (average)
  1646                           ; direct_byte           14    11 (fixed)
  1647                           ; jumptable            263     9 (fixed)
  1648                           ;	Chosen strategy is simple_byte
  1649  04F4  0874               	movf	OSC_config@frecuencia+1,w
  1650  04F5  3A42               	xorlw	66	; case 66
  1651  04F6  1903               	skipnz
  1652  04F7  2CF9               	goto	l3879
  1653  04F8  2CC0               	goto	l2983
  1654  04F9                     l3879:	
  1655                           
  1656                           ; Switch size 1, requested type "simple"
  1657                           ; Number of cases is 1, Range of values is 64 to 64
  1658                           ; switch strategies available:
  1659                           ; Name         Instructions Cycles
  1660                           ; simple_byte            4     3 (average)
  1661                           ; direct_byte           14    11 (fixed)
  1662                           ; jumptable            263     9 (fixed)
  1663                           ;	Chosen strategy is simple_byte
  1664  04F9  0873               	movf	OSC_config@frecuencia,w
  1665  04FA  3A40               	xorlw	64	; case 64
  1666  04FB  1903               	skipnz
  1667  04FC  2C9F               	goto	l2973
  1668  04FD  2CC0               	goto	l2983
  1669  04FE                     l3863:	
  1670                           
  1671                           ; Switch on 2 bytes has been partitioned into a top level switch of size 1, and 1 sub-sw
      +                          itches
  1672                           ; Switch size 1, requested type "simple"
  1673                           ; Number of cases is 1, Range of values is 132 to 132
  1674                           ; switch strategies available:
  1675                           ; Name         Instructions Cycles
  1676                           ; simple_byte            4     3 (average)
  1677                           ; direct_byte           14    11 (fixed)
  1678                           ; jumptable            263     9 (fixed)
  1679                           ;	Chosen strategy is simple_byte
  1680  04FE  0874               	movf	OSC_config@frecuencia+1,w
  1681  04FF  3A84               	xorlw	132	; case 132
  1682  0500  1903               	skipnz
  1683  0501  2D03               	goto	l3881
  1684  0502  2CC0               	goto	l2983
  1685  0503                     l3881:	
  1686                           
  1687                           ; Switch size 1, requested type "simple"
  1688                           ; Number of cases is 1, Range of values is 128 to 128
  1689                           ; switch strategies available:
  1690                           ; Name         Instructions Cycles
  1691                           ; simple_byte            4     3 (average)
  1692                           ; direct_byte           14    11 (fixed)
  1693                           ; jumptable            263     9 (fixed)
  1694                           ;	Chosen strategy is simple_byte
  1695  0503  0873               	movf	OSC_config@frecuencia,w
  1696  0504  3A80               	xorlw	128	; case 128
  1697  0505  1903               	skipnz
  1698  0506  2C98               	goto	l2971
  1699  0507  2CC0               	goto	l2983
  1700  0508                     l3865:	
  1701                           
  1702                           ; Switch on 2 bytes has been partitioned into a top level switch of size 1, and 1 sub-sw
      +                          itches
  1703                           ; Switch size 1, requested type "simple"
  1704                           ; Number of cases is 1, Range of values is 9 to 9
  1705                           ; switch strategies available:
  1706                           ; Name         Instructions Cycles
  1707                           ; simple_byte            4     3 (average)
  1708                           ; direct_byte           14    11 (fixed)
  1709                           ; jumptable            263     9 (fixed)
  1710                           ;	Chosen strategy is simple_byte
  1711  0508  0874               	movf	OSC_config@frecuencia+1,w
  1712  0509  3A09               	xorlw	9	; case 9
  1713  050A  1903               	skipnz
  1714  050B  2D0D               	goto	l3883
  1715  050C  2CC0               	goto	l2983
  1716  050D                     l3883:	
  1717                           
  1718                           ; Switch size 1, requested type "simple"
  1719                           ; Number of cases is 1, Range of values is 0 to 0
  1720                           ; switch strategies available:
  1721                           ; Name         Instructions Cycles
  1722                           ; simple_byte            4     3 (average)
  1723                           ; direct_byte           11     8 (fixed)
  1724                           ; jumptable            260     6 (fixed)
  1725                           ;	Chosen strategy is simple_byte
  1726  050D  0873               	movf	OSC_config@frecuencia,w
  1727  050E  3A00               	xorlw	0	; case 0
  1728  050F  1903               	skipnz
  1729  0510  2C91               	goto	l2969
  1730  0511  2CC0               	goto	l2983
  1731  0512                     l3867:	
  1732                           
  1733                           ; Switch on 2 bytes has been partitioned into a top level switch of size 1, and 1 sub-sw
      +                          itches
  1734                           ; Switch size 1, requested type "simple"
  1735                           ; Number of cases is 1, Range of values is 18 to 18
  1736                           ; switch strategies available:
  1737                           ; Name         Instructions Cycles
  1738                           ; simple_byte            4     3 (average)
  1739                           ; direct_byte           14    11 (fixed)
  1740                           ; jumptable            263     9 (fixed)
  1741                           ;	Chosen strategy is simple_byte
  1742  0512  0874               	movf	OSC_config@frecuencia+1,w
  1743  0513  3A12               	xorlw	18	; case 18
  1744  0514  1903               	skipnz
  1745  0515  2D17               	goto	l3885
  1746  0516  2CC0               	goto	l2983
  1747  0517                     l3885:	
  1748                           
  1749                           ; Switch size 1, requested type "simple"
  1750                           ; Number of cases is 1, Range of values is 0 to 0
  1751                           ; switch strategies available:
  1752                           ; Name         Instructions Cycles
  1753                           ; simple_byte            4     3 (average)
  1754                           ; direct_byte           11     8 (fixed)
  1755                           ; jumptable            260     6 (fixed)
  1756                           ;	Chosen strategy is simple_byte
  1757  0517  0873               	movf	OSC_config@frecuencia,w
  1758  0518  3A00               	xorlw	0	; case 0
  1759  0519  1903               	skipnz
  1760  051A  2C8C               	goto	l2967
  1761  051B  2CC0               	goto	l2983
  1762  051C                     l3869:	
  1763                           
  1764                           ; Switch size 1, requested type "simple"
  1765                           ; Number of cases is 8, Range of values is 0 to 122
  1766                           ; switch strategies available:
  1767                           ; Name         Instructions Cycles
  1768                           ; simple_byte           25    13 (average)
  1769                           ; jumptable            260     6 (fixed)
  1770                           ;	Chosen strategy is simple_byte
  1771  051C  0875               	movf	OSC_config@frecuencia+2,w
  1772  051D  3A00               	xorlw	0	; case 0
  1773  051E  1903               	skipnz
  1774  051F  2CCC               	goto	l3853
  1775  0520  3A01               	xorlw	1	; case 1
  1776  0521  1903               	skipnz
  1777  0522  2CD6               	goto	l3855
  1778  0523  3A02               	xorlw	2	; case 3
  1779  0524  1903               	skipnz
  1780  0525  2CE0               	goto	l3857
  1781  0526  3A04               	xorlw	4	; case 7
  1782  0527  1903               	skipnz
  1783  0528  2CEA               	goto	l3859
  1784  0529  3A08               	xorlw	8	; case 15
  1785  052A  1903               	skipnz
  1786  052B  2CF4               	goto	l3861
  1787  052C  3A11               	xorlw	17	; case 30
  1788  052D  1903               	skipnz
  1789  052E  2CFE               	goto	l3863
  1790  052F  3A23               	xorlw	35	; case 61
  1791  0530  1903               	skipnz
  1792  0531  2D08               	goto	l3865
  1793  0532  3A47               	xorlw	71	; case 122
  1794  0533  1903               	skipnz
  1795  0534  2D12               	goto	l3867
  1796  0535  2CC0               	goto	l2983
  1797  0536                     l133:	
  1798  0536  0008               	return
  1799  0537                     __end_of_OSC_config:	
  1800                           
  1801                           	psect	text5
  1802  06DE                     __ptext5:	
  1803 ;; *************** function _config_ADC *****************
  1804 ;; Defined at:
  1805 ;;		line 191 in file "Slave_Lou.c"
  1806 ;; Parameters:    Size  Location     Type
  1807 ;;		None
  1808 ;; Auto vars:     Size  Location     Type
  1809 ;;		None
  1810 ;; Return value:  Size  Location     Type
  1811 ;;                  1    wreg      void 
  1812 ;; Registers used:
  1813 ;;		None
  1814 ;; Tracked objects:
  1815 ;;		On entry : 0/0
  1816 ;;		On exit  : 0/0
  1817 ;;		Unchanged: 0/0
  1818 ;; Data sizes:     COMMON   BANK0   BANK1   BANK3   BANK2
  1819 ;;      Params:         0       0       0       0       0
  1820 ;;      Locals:         0       0       0       0       0
  1821 ;;      Temps:          0       0       0       0       0
  1822 ;;      Totals:         0       0       0       0       0
  1823 ;;Total ram usage:        0 bytes
  1824 ;; Hardware stack levels used:    1
  1825 ;; Hardware stack levels required when called:    1
  1826 ;; This function calls:
  1827 ;;		Nothing
  1828 ;; This function is called by:
  1829 ;;		_main
  1830 ;; This function uses a non-reentrant model
  1831 ;;
  1832                           
  1833                           
  1834                           ;psect for function _config_ADC
  1835  06DE                     _config_ADC:	
  1836  06DE                     l3129:	
  1837                           ;incstack = 0
  1838                           ; Regs used in _config_ADC: []
  1839                           
  1840                           
  1841                           ;Slave_Lou.c: 196:     ADCON0bits.CHS0 = 0;
  1842  06DE  1283               	bcf	3,5	;RP0=0, select bank0
  1843  06DF  1303               	bcf	3,6	;RP1=0, select bank0
  1844  06E0  111F               	bcf	31,2	;volatile
  1845                           
  1846                           ;Slave_Lou.c: 197:     ADCON0bits.CHS0 = 0;
  1847  06E1  111F               	bcf	31,2	;volatile
  1848                           
  1849                           ;Slave_Lou.c: 198:     ADCON0bits.CHS0 = 0;
  1850  06E2  111F               	bcf	31,2	;volatile
  1851                           
  1852                           ;Slave_Lou.c: 199:     ADCON0bits.CHS0 = 0;
  1853  06E3  111F               	bcf	31,2	;volatile
  1854                           
  1855                           ;Slave_Lou.c: 201:     ADCON1bits.ADFM = 0;
  1856  06E4  1683               	bsf	3,5	;RP0=1, select bank1
  1857  06E5  1303               	bcf	3,6	;RP1=0, select bank1
  1858  06E6  139F               	bcf	31,7	;volatile
  1859                           
  1860                           ;Slave_Lou.c: 202:     ADCON1bits.VCFG0 = 0;
  1861  06E7  121F               	bcf	31,4	;volatile
  1862                           
  1863                           ;Slave_Lou.c: 203:     ADCON1bits.VCFG1 = 0;
  1864  06E8  129F               	bcf	31,5	;volatile
  1865                           
  1866                           ;Slave_Lou.c: 205:     ADCON0bits.ADCS1 = 0;
  1867  06E9  1283               	bcf	3,5	;RP0=0, select bank0
  1868  06EA  1303               	bcf	3,6	;RP1=0, select bank0
  1869  06EB  139F               	bcf	31,7	;volatile
  1870                           
  1871                           ;Slave_Lou.c: 206:     ADCON0bits.ADCS0 = 0;
  1872  06EC  131F               	bcf	31,6	;volatile
  1873                           
  1874                           ;Slave_Lou.c: 209:     INTCONbits.GIE = 1;
  1875  06ED  178B               	bsf	11,7	;volatile
  1876                           
  1877                           ;Slave_Lou.c: 210:     INTCONbits.PEIE = 1;
  1878  06EE  170B               	bsf	11,6	;volatile
  1879                           
  1880                           ;Slave_Lou.c: 211:     PIE1bits.ADIE = 1;
  1881  06EF  1683               	bsf	3,5	;RP0=1, select bank1
  1882  06F0  1303               	bcf	3,6	;RP1=0, select bank1
  1883  06F1  170C               	bsf	12,6	;volatile
  1884                           
  1885                           ;Slave_Lou.c: 212:     PIR1bits.ADIF = 0;
  1886  06F2  1283               	bcf	3,5	;RP0=0, select bank0
  1887  06F3  1303               	bcf	3,6	;RP1=0, select bank0
  1888  06F4  130C               	bcf	12,6	;volatile
  1889                           
  1890                           ;Slave_Lou.c: 214:     ADCON0bits.ADON = 1;
  1891  06F5  141F               	bsf	31,0	;volatile
  1892  06F6                     l136:	
  1893  06F6  0008               	return
  1894  06F7                     __end_of_config_ADC:	
  1895                           
  1896                           	psect	text6
  1897  001B                     __ptext6:	
  1898 ;; *************** function _Stepper_CW *****************
  1899 ;; Defined at:
  1900 ;;		line 14 in file "STEPPER_MITSUMI.c"
  1901 ;; Parameters:    Size  Location     Type
  1902 ;;  Step_grados_    2    3[COMMON] unsigned int 
  1903 ;; Auto vars:     Size  Location     Type
  1904 ;;		None
  1905 ;; Return value:  Size  Location     Type
  1906 ;;                  1    wreg      void 
  1907 ;; Registers used:
  1908 ;;		wreg, fsr0l, fsr0h, status,2, status,0, btemp+1
  1909 ;; Tracked objects:
  1910 ;;		On entry : 0/0
  1911 ;;		On exit  : 0/0
  1912 ;;		Unchanged: 0/0
  1913 ;; Data sizes:     COMMON   BANK0   BANK1   BANK3   BANK2
  1914 ;;      Params:         2       0       0       0       0
  1915 ;;      Locals:         0       0       0       0       0
  1916 ;;      Temps:          2       0       0       0       0
  1917 ;;      Totals:         4       0       0       0       0
  1918 ;;Total ram usage:        4 bytes
  1919 ;; Hardware stack levels used:    1
  1920 ;; Hardware stack levels required when called:    1
  1921 ;; This function calls:
  1922 ;;		Nothing
  1923 ;; This function is called by:
  1924 ;;		_main
  1925 ;; This function uses a non-reentrant model
  1926 ;;
  1927                           
  1928                           
  1929                           ;psect for function _Stepper_CW
  1930  001B                     _Stepper_CW:	
  1931  001B                     l3273:	
  1932                           ;incstack = 0
  1933                           ; Regs used in _Stepper_CW: [wreg-fsr0h+status,2+status,0+btemp+1]
  1934                           
  1935                           
  1936                           ;STEPPER_MITSUMI.c: 15:     switch(Step_grados_cw){
  1937  001B  29DE               	goto	l3335
  1938  001C                     l3275:	
  1939                           
  1940                           ;STEPPER_MITSUMI.c: 17:             for(i=0; i<25; i++){
  1941  001C  01F7               	clrf	_i
  1942  001D  01F8               	clrf	_i+1
  1943  001E                     l3277:	
  1944  001E  0878               	movf	_i+1,w
  1945  001F  3A80               	xorlw	128
  1946  0020  00FF               	movwf	btemp+1
  1947  0021  3080               	movlw	128
  1948  0022  027F               	subwf	btemp+1,w
  1949  0023  1D03               	skipz
  1950  0024  2827               	goto	u755
  1951  0025  3019               	movlw	25
  1952  0026  0277               	subwf	_i,w
  1953  0027                     u755:	
  1954  0027  1C03               	skipc
  1955  0028  282A               	goto	u751
  1956  0029  282B               	goto	u750
  1957  002A                     u751:	
  1958  002A  282C               	goto	l3281
  1959  002B                     u750:	
  1960  002B  29F9               	goto	l165
  1961  002C                     l3281:	
  1962                           
  1963                           ;STEPPER_MITSUMI.c: 18:                     PORTD = 0b1010;
  1964  002C  300A               	movlw	10
  1965  002D  1283               	bcf	3,5	;RP0=0, select bank0
  1966  002E  1303               	bcf	3,6	;RP1=0, select bank0
  1967  002F  0088               	movwf	8	;volatile
  1968                           
  1969                           ;STEPPER_MITSUMI.c: 19:                     _delay((unsigned long)((10)*(4000000/4000.0)
      +                          ));
  1970  0030  300D               	movlw	13
  1971  0031  00F6               	movwf	??_Stepper_CW+1
  1972  0032  30FB               	movlw	251
  1973  0033  00F5               	movwf	??_Stepper_CW
  1974  0034                     u897:	
  1975  0034  0BF5               	decfsz	??_Stepper_CW,f
  1976  0035  2834               	goto	u897
  1977  0036  0BF6               	decfsz	??_Stepper_CW+1,f
  1978  0037  2834               	goto	u897
  1979  0038  2839               	nop2
  1980                           
  1981                           ;STEPPER_MITSUMI.c: 20:                     PORTD = 0b0110;
  1982  0039  3006               	movlw	6
  1983  003A  1283               	bcf	3,5	;RP0=0, select bank0
  1984  003B  1303               	bcf	3,6	;RP1=0, select bank0
  1985  003C  0088               	movwf	8	;volatile
  1986                           
  1987                           ;STEPPER_MITSUMI.c: 21:                     _delay((unsigned long)((10)*(4000000/4000.0)
      +                          ));
  1988  003D  300D               	movlw	13
  1989  003E  00F6               	movwf	??_Stepper_CW+1
  1990  003F  30FB               	movlw	251
  1991  0040  00F5               	movwf	??_Stepper_CW
  1992  0041                     u907:	
  1993  0041  0BF5               	decfsz	??_Stepper_CW,f
  1994  0042  2841               	goto	u907
  1995  0043  0BF6               	decfsz	??_Stepper_CW+1,f
  1996  0044  2841               	goto	u907
  1997  0045  2846               	nop2
  1998                           
  1999                           ;STEPPER_MITSUMI.c: 22:                     PORTD = 0b0101;
  2000  0046  3005               	movlw	5
  2001  0047  1283               	bcf	3,5	;RP0=0, select bank0
  2002  0048  1303               	bcf	3,6	;RP1=0, select bank0
  2003  0049  0088               	movwf	8	;volatile
  2004                           
  2005                           ;STEPPER_MITSUMI.c: 23:                     _delay((unsigned long)((10)*(4000000/4000.0)
      +                          ));
  2006  004A  300D               	movlw	13
  2007  004B  00F6               	movwf	??_Stepper_CW+1
  2008  004C  30FB               	movlw	251
  2009  004D  00F5               	movwf	??_Stepper_CW
  2010  004E                     u917:	
  2011  004E  0BF5               	decfsz	??_Stepper_CW,f
  2012  004F  284E               	goto	u917
  2013  0050  0BF6               	decfsz	??_Stepper_CW+1,f
  2014  0051  284E               	goto	u917
  2015  0052  2853               	nop2
  2016                           
  2017                           ;STEPPER_MITSUMI.c: 24:                     PORTD = 0b1001;
  2018  0053  3009               	movlw	9
  2019  0054  1283               	bcf	3,5	;RP0=0, select bank0
  2020  0055  1303               	bcf	3,6	;RP1=0, select bank0
  2021  0056  0088               	movwf	8	;volatile
  2022                           
  2023                           ;STEPPER_MITSUMI.c: 25:                     _delay((unsigned long)((10)*(4000000/4000.0)
      +                          ));
  2024  0057  300D               	movlw	13
  2025  0058  00F6               	movwf	??_Stepper_CW+1
  2026  0059  30FB               	movlw	251
  2027  005A  00F5               	movwf	??_Stepper_CW
  2028  005B                     u927:	
  2029  005B  0BF5               	decfsz	??_Stepper_CW,f
  2030  005C  285B               	goto	u927
  2031  005D  0BF6               	decfsz	??_Stepper_CW+1,f
  2032  005E  285B               	goto	u927
  2033  005F  2860               	nop2
  2034                           
  2035                           ;STEPPER_MITSUMI.c: 27:                 };
  2036  0060  3001               	movlw	1
  2037  0061  07F7               	addwf	_i,f
  2038  0062  1803               	skipnc
  2039  0063  0AF8               	incf	_i+1,f
  2040  0064  3000               	movlw	0
  2041  0065  07F8               	addwf	_i+1,f
  2042  0066  281E               	goto	l3277
  2043  0067                     l3285:	
  2044                           
  2045                           ;STEPPER_MITSUMI.c: 31:             for(i=0; i<12; i++){
  2046  0067  01F7               	clrf	_i
  2047  0068  01F8               	clrf	_i+1
  2048  0069                     l3287:	
  2049  0069  0878               	movf	_i+1,w
  2050  006A  3A80               	xorlw	128
  2051  006B  00FF               	movwf	btemp+1
  2052  006C  3080               	movlw	128
  2053  006D  027F               	subwf	btemp+1,w
  2054  006E  1D03               	skipz
  2055  006F  2872               	goto	u765
  2056  0070  300C               	movlw	12
  2057  0071  0277               	subwf	_i,w
  2058  0072                     u765:	
  2059  0072  1C03               	skipc
  2060  0073  2875               	goto	u761
  2061  0074  2876               	goto	u760
  2062  0075                     u761:	
  2063  0075  2877               	goto	l3291
  2064  0076                     u760:	
  2065  0076  29F9               	goto	l165
  2066  0077                     l3291:	
  2067                           
  2068                           ;STEPPER_MITSUMI.c: 32:                     PORTD = 0b1010;
  2069  0077  300A               	movlw	10
  2070  0078  1283               	bcf	3,5	;RP0=0, select bank0
  2071  0079  1303               	bcf	3,6	;RP1=0, select bank0
  2072  007A  0088               	movwf	8	;volatile
  2073                           
  2074                           ;STEPPER_MITSUMI.c: 33:                     _delay((unsigned long)((10)*(4000000/4000.0)
      +                          ));
  2075  007B  300D               	movlw	13
  2076  007C  00F6               	movwf	??_Stepper_CW+1
  2077  007D  30FB               	movlw	251
  2078  007E  00F5               	movwf	??_Stepper_CW
  2079  007F                     u937:	
  2080  007F  0BF5               	decfsz	??_Stepper_CW,f
  2081  0080  287F               	goto	u937
  2082  0081  0BF6               	decfsz	??_Stepper_CW+1,f
  2083  0082  287F               	goto	u937
  2084  0083  2884               	nop2
  2085                           
  2086                           ;STEPPER_MITSUMI.c: 34:                     PORTD = 0b0110;
  2087  0084  3006               	movlw	6
  2088  0085  1283               	bcf	3,5	;RP0=0, select bank0
  2089  0086  1303               	bcf	3,6	;RP1=0, select bank0
  2090  0087  0088               	movwf	8	;volatile
  2091                           
  2092                           ;STEPPER_MITSUMI.c: 35:                     _delay((unsigned long)((10)*(4000000/4000.0)
      +                          ));
  2093  0088  300D               	movlw	13
  2094  0089  00F6               	movwf	??_Stepper_CW+1
  2095  008A  30FB               	movlw	251
  2096  008B  00F5               	movwf	??_Stepper_CW
  2097  008C                     u947:	
  2098  008C  0BF5               	decfsz	??_Stepper_CW,f
  2099  008D  288C               	goto	u947
  2100  008E  0BF6               	decfsz	??_Stepper_CW+1,f
  2101  008F  288C               	goto	u947
  2102  0090  2891               	nop2
  2103                           
  2104                           ;STEPPER_MITSUMI.c: 36:                     PORTD = 0b0101;
  2105  0091  3005               	movlw	5
  2106  0092  1283               	bcf	3,5	;RP0=0, select bank0
  2107  0093  1303               	bcf	3,6	;RP1=0, select bank0
  2108  0094  0088               	movwf	8	;volatile
  2109                           
  2110                           ;STEPPER_MITSUMI.c: 37:                     _delay((unsigned long)((10)*(4000000/4000.0)
      +                          ));
  2111  0095  300D               	movlw	13
  2112  0096  00F6               	movwf	??_Stepper_CW+1
  2113  0097  30FB               	movlw	251
  2114  0098  00F5               	movwf	??_Stepper_CW
  2115  0099                     u957:	
  2116  0099  0BF5               	decfsz	??_Stepper_CW,f
  2117  009A  2899               	goto	u957
  2118  009B  0BF6               	decfsz	??_Stepper_CW+1,f
  2119  009C  2899               	goto	u957
  2120  009D  289E               	nop2
  2121                           
  2122                           ;STEPPER_MITSUMI.c: 38:                     PORTD = 0b1001;
  2123  009E  3009               	movlw	9
  2124  009F  1283               	bcf	3,5	;RP0=0, select bank0
  2125  00A0  1303               	bcf	3,6	;RP1=0, select bank0
  2126  00A1  0088               	movwf	8	;volatile
  2127                           
  2128                           ;STEPPER_MITSUMI.c: 39:                     _delay((unsigned long)((10)*(4000000/4000.0)
      +                          ));
  2129  00A2  300D               	movlw	13
  2130  00A3  00F6               	movwf	??_Stepper_CW+1
  2131  00A4  30FB               	movlw	251
  2132  00A5  00F5               	movwf	??_Stepper_CW
  2133  00A6                     u967:	
  2134  00A6  0BF5               	decfsz	??_Stepper_CW,f
  2135  00A7  28A6               	goto	u967
  2136  00A8  0BF6               	decfsz	??_Stepper_CW+1,f
  2137  00A9  28A6               	goto	u967
  2138  00AA  28AB               	nop2
  2139                           
  2140                           ;STEPPER_MITSUMI.c: 41:                 };
  2141  00AB  3001               	movlw	1
  2142  00AC  07F7               	addwf	_i,f
  2143  00AD  1803               	skipnc
  2144  00AE  0AF8               	incf	_i+1,f
  2145  00AF  3000               	movlw	0
  2146  00B0  07F8               	addwf	_i+1,f
  2147  00B1  2869               	goto	l3287
  2148  00B2                     l3295:	
  2149                           
  2150                           ;STEPPER_MITSUMI.c: 45:             for(i=0; i<6; i++){
  2151  00B2  01F7               	clrf	_i
  2152  00B3  01F8               	clrf	_i+1
  2153  00B4                     l3297:	
  2154  00B4  0878               	movf	_i+1,w
  2155  00B5  3A80               	xorlw	128
  2156  00B6  00FF               	movwf	btemp+1
  2157  00B7  3080               	movlw	128
  2158  00B8  027F               	subwf	btemp+1,w
  2159  00B9  1D03               	skipz
  2160  00BA  28BD               	goto	u775
  2161  00BB  3006               	movlw	6
  2162  00BC  0277               	subwf	_i,w
  2163  00BD                     u775:	
  2164  00BD  1C03               	skipc
  2165  00BE  28C0               	goto	u771
  2166  00BF  28C1               	goto	u770
  2167  00C0                     u771:	
  2168  00C0  28C2               	goto	l3301
  2169  00C1                     u770:	
  2170  00C1  29F9               	goto	l165
  2171  00C2                     l3301:	
  2172                           
  2173                           ;STEPPER_MITSUMI.c: 46:                     PORTD = 0b1010;
  2174  00C2  300A               	movlw	10
  2175  00C3  1283               	bcf	3,5	;RP0=0, select bank0
  2176  00C4  1303               	bcf	3,6	;RP1=0, select bank0
  2177  00C5  0088               	movwf	8	;volatile
  2178                           
  2179                           ;STEPPER_MITSUMI.c: 47:                     _delay((unsigned long)((10)*(4000000/4000.0)
      +                          ));
  2180  00C6  300D               	movlw	13
  2181  00C7  00F6               	movwf	??_Stepper_CW+1
  2182  00C8  30FB               	movlw	251
  2183  00C9  00F5               	movwf	??_Stepper_CW
  2184  00CA                     u977:	
  2185  00CA  0BF5               	decfsz	??_Stepper_CW,f
  2186  00CB  28CA               	goto	u977
  2187  00CC  0BF6               	decfsz	??_Stepper_CW+1,f
  2188  00CD  28CA               	goto	u977
  2189  00CE  28CF               	nop2
  2190                           
  2191                           ;STEPPER_MITSUMI.c: 48:                     PORTD = 0b0110;
  2192  00CF  3006               	movlw	6
  2193  00D0  1283               	bcf	3,5	;RP0=0, select bank0
  2194  00D1  1303               	bcf	3,6	;RP1=0, select bank0
  2195  00D2  0088               	movwf	8	;volatile
  2196                           
  2197                           ;STEPPER_MITSUMI.c: 49:                     _delay((unsigned long)((10)*(4000000/4000.0)
      +                          ));
  2198  00D3  300D               	movlw	13
  2199  00D4  00F6               	movwf	??_Stepper_CW+1
  2200  00D5  30FB               	movlw	251
  2201  00D6  00F5               	movwf	??_Stepper_CW
  2202  00D7                     u987:	
  2203  00D7  0BF5               	decfsz	??_Stepper_CW,f
  2204  00D8  28D7               	goto	u987
  2205  00D9  0BF6               	decfsz	??_Stepper_CW+1,f
  2206  00DA  28D7               	goto	u987
  2207  00DB  28DC               	nop2
  2208                           
  2209                           ;STEPPER_MITSUMI.c: 50:                     PORTD = 0b0101;
  2210  00DC  3005               	movlw	5
  2211  00DD  1283               	bcf	3,5	;RP0=0, select bank0
  2212  00DE  1303               	bcf	3,6	;RP1=0, select bank0
  2213  00DF  0088               	movwf	8	;volatile
  2214                           
  2215                           ;STEPPER_MITSUMI.c: 51:                     _delay((unsigned long)((10)*(4000000/4000.0)
      +                          ));
  2216  00E0  300D               	movlw	13
  2217  00E1  00F6               	movwf	??_Stepper_CW+1
  2218  00E2  30FB               	movlw	251
  2219  00E3  00F5               	movwf	??_Stepper_CW
  2220  00E4                     u997:	
  2221  00E4  0BF5               	decfsz	??_Stepper_CW,f
  2222  00E5  28E4               	goto	u997
  2223  00E6  0BF6               	decfsz	??_Stepper_CW+1,f
  2224  00E7  28E4               	goto	u997
  2225  00E8  28E9               	nop2
  2226                           
  2227                           ;STEPPER_MITSUMI.c: 52:                     PORTD = 0b1001;
  2228  00E9  3009               	movlw	9
  2229  00EA  1283               	bcf	3,5	;RP0=0, select bank0
  2230  00EB  1303               	bcf	3,6	;RP1=0, select bank0
  2231  00EC  0088               	movwf	8	;volatile
  2232                           
  2233                           ;STEPPER_MITSUMI.c: 53:                     _delay((unsigned long)((10)*(4000000/4000.0)
      +                          ));
  2234  00ED  300D               	movlw	13
  2235  00EE  00F6               	movwf	??_Stepper_CW+1
  2236  00EF  30FB               	movlw	251
  2237  00F0  00F5               	movwf	??_Stepper_CW
  2238  00F1                     u1007:	
  2239  00F1  0BF5               	decfsz	??_Stepper_CW,f
  2240  00F2  28F1               	goto	u1007
  2241  00F3  0BF6               	decfsz	??_Stepper_CW+1,f
  2242  00F4  28F1               	goto	u1007
  2243  00F5  28F6               	nop2
  2244                           
  2245                           ;STEPPER_MITSUMI.c: 55:                 };
  2246  00F6  3001               	movlw	1
  2247  00F7  07F7               	addwf	_i,f
  2248  00F8  1803               	skipnc
  2249  00F9  0AF8               	incf	_i+1,f
  2250  00FA  3000               	movlw	0
  2251  00FB  07F8               	addwf	_i+1,f
  2252  00FC  28B4               	goto	l3297
  2253  00FD                     l3305:	
  2254                           
  2255                           ;STEPPER_MITSUMI.c: 59:             for(i=0; i<3; i++){
  2256  00FD  01F7               	clrf	_i
  2257  00FE  01F8               	clrf	_i+1
  2258  00FF                     l3307:	
  2259  00FF  0878               	movf	_i+1,w
  2260  0100  3A80               	xorlw	128
  2261  0101  00FF               	movwf	btemp+1
  2262  0102  3080               	movlw	128
  2263  0103  027F               	subwf	btemp+1,w
  2264  0104  1D03               	skipz
  2265  0105  2908               	goto	u785
  2266  0106  3003               	movlw	3
  2267  0107  0277               	subwf	_i,w
  2268  0108                     u785:	
  2269  0108  1C03               	skipc
  2270  0109  290B               	goto	u781
  2271  010A  290C               	goto	u780
  2272  010B                     u781:	
  2273  010B  290D               	goto	l3311
  2274  010C                     u780:	
  2275  010C  29F9               	goto	l165
  2276  010D                     l3311:	
  2277                           
  2278                           ;STEPPER_MITSUMI.c: 60:                     PORTD = 0b1010;
  2279  010D  300A               	movlw	10
  2280  010E  1283               	bcf	3,5	;RP0=0, select bank0
  2281  010F  1303               	bcf	3,6	;RP1=0, select bank0
  2282  0110  0088               	movwf	8	;volatile
  2283                           
  2284                           ;STEPPER_MITSUMI.c: 61:                     _delay((unsigned long)((10)*(4000000/4000.0)
      +                          ));
  2285  0111  300D               	movlw	13
  2286  0112  00F6               	movwf	??_Stepper_CW+1
  2287  0113  30FB               	movlw	251
  2288  0114  00F5               	movwf	??_Stepper_CW
  2289  0115                     u1017:	
  2290  0115  0BF5               	decfsz	??_Stepper_CW,f
  2291  0116  2915               	goto	u1017
  2292  0117  0BF6               	decfsz	??_Stepper_CW+1,f
  2293  0118  2915               	goto	u1017
  2294  0119  291A               	nop2
  2295                           
  2296                           ;STEPPER_MITSUMI.c: 62:                     PORTD = 0b0110;
  2297  011A  3006               	movlw	6
  2298  011B  1283               	bcf	3,5	;RP0=0, select bank0
  2299  011C  1303               	bcf	3,6	;RP1=0, select bank0
  2300  011D  0088               	movwf	8	;volatile
  2301                           
  2302                           ;STEPPER_MITSUMI.c: 63:                     _delay((unsigned long)((10)*(4000000/4000.0)
      +                          ));
  2303  011E  300D               	movlw	13
  2304  011F  00F6               	movwf	??_Stepper_CW+1
  2305  0120  30FB               	movlw	251
  2306  0121  00F5               	movwf	??_Stepper_CW
  2307  0122                     u1027:	
  2308  0122  0BF5               	decfsz	??_Stepper_CW,f
  2309  0123  2922               	goto	u1027
  2310  0124  0BF6               	decfsz	??_Stepper_CW+1,f
  2311  0125  2922               	goto	u1027
  2312  0126  2927               	nop2
  2313                           
  2314                           ;STEPPER_MITSUMI.c: 64:                     PORTD = 0b0101;
  2315  0127  3005               	movlw	5
  2316  0128  1283               	bcf	3,5	;RP0=0, select bank0
  2317  0129  1303               	bcf	3,6	;RP1=0, select bank0
  2318  012A  0088               	movwf	8	;volatile
  2319                           
  2320                           ;STEPPER_MITSUMI.c: 65:                     _delay((unsigned long)((10)*(4000000/4000.0)
      +                          ));
  2321  012B  300D               	movlw	13
  2322  012C  00F6               	movwf	??_Stepper_CW+1
  2323  012D  30FB               	movlw	251
  2324  012E  00F5               	movwf	??_Stepper_CW
  2325  012F                     u1037:	
  2326  012F  0BF5               	decfsz	??_Stepper_CW,f
  2327  0130  292F               	goto	u1037
  2328  0131  0BF6               	decfsz	??_Stepper_CW+1,f
  2329  0132  292F               	goto	u1037
  2330  0133  2934               	nop2
  2331                           
  2332                           ;STEPPER_MITSUMI.c: 66:                     PORTD = 0b1001;
  2333  0134  3009               	movlw	9
  2334  0135  1283               	bcf	3,5	;RP0=0, select bank0
  2335  0136  1303               	bcf	3,6	;RP1=0, select bank0
  2336  0137  0088               	movwf	8	;volatile
  2337                           
  2338                           ;STEPPER_MITSUMI.c: 67:                     _delay((unsigned long)((10)*(4000000/4000.0)
      +                          ));
  2339  0138  300D               	movlw	13
  2340  0139  00F6               	movwf	??_Stepper_CW+1
  2341  013A  30FB               	movlw	251
  2342  013B  00F5               	movwf	??_Stepper_CW
  2343  013C                     u1047:	
  2344  013C  0BF5               	decfsz	??_Stepper_CW,f
  2345  013D  293C               	goto	u1047
  2346  013E  0BF6               	decfsz	??_Stepper_CW+1,f
  2347  013F  293C               	goto	u1047
  2348  0140  2941               	nop2
  2349                           
  2350                           ;STEPPER_MITSUMI.c: 69:                 };
  2351  0141  3001               	movlw	1
  2352  0142  07F7               	addwf	_i,f
  2353  0143  1803               	skipnc
  2354  0144  0AF8               	incf	_i+1,f
  2355  0145  3000               	movlw	0
  2356  0146  07F8               	addwf	_i+1,f
  2357  0147  28FF               	goto	l3307
  2358  0148                     l3315:	
  2359                           
  2360                           ;STEPPER_MITSUMI.c: 73:             for(i=0; i<1; i++){
  2361  0148  01F7               	clrf	_i
  2362  0149  01F8               	clrf	_i+1
  2363  014A                     l3317:	
  2364  014A  0878               	movf	_i+1,w
  2365  014B  3A80               	xorlw	128
  2366  014C  00FF               	movwf	btemp+1
  2367  014D  3080               	movlw	128
  2368  014E  027F               	subwf	btemp+1,w
  2369  014F  1D03               	skipz
  2370  0150  2953               	goto	u795
  2371  0151  3001               	movlw	1
  2372  0152  0277               	subwf	_i,w
  2373  0153                     u795:	
  2374  0153  1C03               	skipc
  2375  0154  2956               	goto	u791
  2376  0155  2957               	goto	u790
  2377  0156                     u791:	
  2378  0156  2958               	goto	l3321
  2379  0157                     u790:	
  2380  0157  29F9               	goto	l165
  2381  0158                     l3321:	
  2382                           
  2383                           ;STEPPER_MITSUMI.c: 74:                     PORTD = 0b1010;
  2384  0158  300A               	movlw	10
  2385  0159  1283               	bcf	3,5	;RP0=0, select bank0
  2386  015A  1303               	bcf	3,6	;RP1=0, select bank0
  2387  015B  0088               	movwf	8	;volatile
  2388                           
  2389                           ;STEPPER_MITSUMI.c: 75:                     _delay((unsigned long)((10)*(4000000/4000.0)
      +                          ));
  2390  015C  300D               	movlw	13
  2391  015D  00F6               	movwf	??_Stepper_CW+1
  2392  015E  30FB               	movlw	251
  2393  015F  00F5               	movwf	??_Stepper_CW
  2394  0160                     u1057:	
  2395  0160  0BF5               	decfsz	??_Stepper_CW,f
  2396  0161  2960               	goto	u1057
  2397  0162  0BF6               	decfsz	??_Stepper_CW+1,f
  2398  0163  2960               	goto	u1057
  2399  0164  2965               	nop2
  2400                           
  2401                           ;STEPPER_MITSUMI.c: 76:                     PORTD = 0b0110;
  2402  0165  3006               	movlw	6
  2403  0166  1283               	bcf	3,5	;RP0=0, select bank0
  2404  0167  1303               	bcf	3,6	;RP1=0, select bank0
  2405  0168  0088               	movwf	8	;volatile
  2406                           
  2407                           ;STEPPER_MITSUMI.c: 77:                     _delay((unsigned long)((10)*(4000000/4000.0)
      +                          ));
  2408  0169  300D               	movlw	13
  2409  016A  00F6               	movwf	??_Stepper_CW+1
  2410  016B  30FB               	movlw	251
  2411  016C  00F5               	movwf	??_Stepper_CW
  2412  016D                     u1067:	
  2413  016D  0BF5               	decfsz	??_Stepper_CW,f
  2414  016E  296D               	goto	u1067
  2415  016F  0BF6               	decfsz	??_Stepper_CW+1,f
  2416  0170  296D               	goto	u1067
  2417  0171  2972               	nop2
  2418                           
  2419                           ;STEPPER_MITSUMI.c: 78:                     PORTD = 0b0101;
  2420  0172  3005               	movlw	5
  2421  0173  1283               	bcf	3,5	;RP0=0, select bank0
  2422  0174  1303               	bcf	3,6	;RP1=0, select bank0
  2423  0175  0088               	movwf	8	;volatile
  2424                           
  2425                           ;STEPPER_MITSUMI.c: 79:                     _delay((unsigned long)((10)*(4000000/4000.0)
      +                          ));
  2426  0176  300D               	movlw	13
  2427  0177  00F6               	movwf	??_Stepper_CW+1
  2428  0178  30FB               	movlw	251
  2429  0179  00F5               	movwf	??_Stepper_CW
  2430  017A                     u1077:	
  2431  017A  0BF5               	decfsz	??_Stepper_CW,f
  2432  017B  297A               	goto	u1077
  2433  017C  0BF6               	decfsz	??_Stepper_CW+1,f
  2434  017D  297A               	goto	u1077
  2435  017E  297F               	nop2
  2436                           
  2437                           ;STEPPER_MITSUMI.c: 80:                     PORTD = 0b1001;
  2438  017F  3009               	movlw	9
  2439  0180  1283               	bcf	3,5	;RP0=0, select bank0
  2440  0181  1303               	bcf	3,6	;RP1=0, select bank0
  2441  0182  0088               	movwf	8	;volatile
  2442                           
  2443                           ;STEPPER_MITSUMI.c: 81:                     _delay((unsigned long)((10)*(4000000/4000.0)
      +                          ));
  2444  0183  300D               	movlw	13
  2445  0184  00F6               	movwf	??_Stepper_CW+1
  2446  0185  30FB               	movlw	251
  2447  0186  00F5               	movwf	??_Stepper_CW
  2448  0187                     u1087:	
  2449  0187  0BF5               	decfsz	??_Stepper_CW,f
  2450  0188  2987               	goto	u1087
  2451  0189  0BF6               	decfsz	??_Stepper_CW+1,f
  2452  018A  2987               	goto	u1087
  2453  018B  298C               	nop2
  2454                           
  2455                           ;STEPPER_MITSUMI.c: 83:                 };
  2456  018C  3001               	movlw	1
  2457  018D  07F7               	addwf	_i,f
  2458  018E  1803               	skipnc
  2459  018F  0AF8               	incf	_i+1,f
  2460  0190  3000               	movlw	0
  2461  0191  07F8               	addwf	_i+1,f
  2462  0192  294A               	goto	l3317
  2463  0193                     l3325:	
  2464                           
  2465                           ;STEPPER_MITSUMI.c: 87:             for(i=0; i<2; i++){
  2466  0193  01F7               	clrf	_i
  2467  0194  01F8               	clrf	_i+1
  2468  0195                     l3327:	
  2469  0195  0878               	movf	_i+1,w
  2470  0196  3A80               	xorlw	128
  2471  0197  00FF               	movwf	btemp+1
  2472  0198  3080               	movlw	128
  2473  0199  027F               	subwf	btemp+1,w
  2474  019A  1D03               	skipz
  2475  019B  299E               	goto	u805
  2476  019C  3002               	movlw	2
  2477  019D  0277               	subwf	_i,w
  2478  019E                     u805:	
  2479  019E  1C03               	skipc
  2480  019F  29A1               	goto	u801
  2481  01A0  29A2               	goto	u800
  2482  01A1                     u801:	
  2483  01A1  29A3               	goto	l3331
  2484  01A2                     u800:	
  2485  01A2  29F9               	goto	l165
  2486  01A3                     l3331:	
  2487                           
  2488                           ;STEPPER_MITSUMI.c: 88:                     PORTD = 0b1010;
  2489  01A3  300A               	movlw	10
  2490  01A4  1283               	bcf	3,5	;RP0=0, select bank0
  2491  01A5  1303               	bcf	3,6	;RP1=0, select bank0
  2492  01A6  0088               	movwf	8	;volatile
  2493                           
  2494                           ;STEPPER_MITSUMI.c: 89:                     _delay((unsigned long)((10)*(4000000/4000.0)
      +                          ));
  2495  01A7  300D               	movlw	13
  2496  01A8  00F6               	movwf	??_Stepper_CW+1
  2497  01A9  30FB               	movlw	251
  2498  01AA  00F5               	movwf	??_Stepper_CW
  2499  01AB                     u1097:	
  2500  01AB  0BF5               	decfsz	??_Stepper_CW,f
  2501  01AC  29AB               	goto	u1097
  2502  01AD  0BF6               	decfsz	??_Stepper_CW+1,f
  2503  01AE  29AB               	goto	u1097
  2504  01AF  29B0               	nop2
  2505                           
  2506                           ;STEPPER_MITSUMI.c: 90:                     PORTD = 0b0110;
  2507  01B0  3006               	movlw	6
  2508  01B1  1283               	bcf	3,5	;RP0=0, select bank0
  2509  01B2  1303               	bcf	3,6	;RP1=0, select bank0
  2510  01B3  0088               	movwf	8	;volatile
  2511                           
  2512                           ;STEPPER_MITSUMI.c: 91:                     _delay((unsigned long)((10)*(4000000/4000.0)
      +                          ));
  2513  01B4  300D               	movlw	13
  2514  01B5  00F6               	movwf	??_Stepper_CW+1
  2515  01B6  30FB               	movlw	251
  2516  01B7  00F5               	movwf	??_Stepper_CW
  2517  01B8                     u1107:	
  2518  01B8  0BF5               	decfsz	??_Stepper_CW,f
  2519  01B9  29B8               	goto	u1107
  2520  01BA  0BF6               	decfsz	??_Stepper_CW+1,f
  2521  01BB  29B8               	goto	u1107
  2522  01BC  29BD               	nop2
  2523                           
  2524                           ;STEPPER_MITSUMI.c: 92:                     PORTD = 0b0101;
  2525  01BD  3005               	movlw	5
  2526  01BE  1283               	bcf	3,5	;RP0=0, select bank0
  2527  01BF  1303               	bcf	3,6	;RP1=0, select bank0
  2528  01C0  0088               	movwf	8	;volatile
  2529                           
  2530                           ;STEPPER_MITSUMI.c: 93:                     _delay((unsigned long)((10)*(4000000/4000.0)
      +                          ));
  2531  01C1  300D               	movlw	13
  2532  01C2  00F6               	movwf	??_Stepper_CW+1
  2533  01C3  30FB               	movlw	251
  2534  01C4  00F5               	movwf	??_Stepper_CW
  2535  01C5                     u1117:	
  2536  01C5  0BF5               	decfsz	??_Stepper_CW,f
  2537  01C6  29C5               	goto	u1117
  2538  01C7  0BF6               	decfsz	??_Stepper_CW+1,f
  2539  01C8  29C5               	goto	u1117
  2540  01C9  29CA               	nop2
  2541                           
  2542                           ;STEPPER_MITSUMI.c: 94:                     PORTD = 0b1001;
  2543  01CA  3009               	movlw	9
  2544  01CB  1283               	bcf	3,5	;RP0=0, select bank0
  2545  01CC  1303               	bcf	3,6	;RP1=0, select bank0
  2546  01CD  0088               	movwf	8	;volatile
  2547                           
  2548                           ;STEPPER_MITSUMI.c: 95:                     _delay((unsigned long)((10)*(4000000/4000.0)
      +                          ));
  2549  01CE  300D               	movlw	13
  2550  01CF  00F6               	movwf	??_Stepper_CW+1
  2551  01D0  30FB               	movlw	251
  2552  01D1  00F5               	movwf	??_Stepper_CW
  2553  01D2                     u1127:	
  2554  01D2  0BF5               	decfsz	??_Stepper_CW,f
  2555  01D3  29D2               	goto	u1127
  2556  01D4  0BF6               	decfsz	??_Stepper_CW+1,f
  2557  01D5  29D2               	goto	u1127
  2558  01D6  29D7               	nop2
  2559                           
  2560                           ;STEPPER_MITSUMI.c: 97:                 };
  2561  01D7  3001               	movlw	1
  2562  01D8  07F7               	addwf	_i,f
  2563  01D9  1803               	skipnc
  2564  01DA  0AF8               	incf	_i+1,f
  2565  01DB  3000               	movlw	0
  2566  01DC  07F8               	addwf	_i+1,f
  2567  01DD  2995               	goto	l3327
  2568  01DE                     l3335:	
  2569                           
  2570                           ; Switch on 2 bytes has been partitioned into a top level switch of size 1, and 2 sub-sw
      +                          itches
  2571                           ; Switch size 1, requested type "simple"
  2572                           ; Number of cases is 2, Range of values is 0 to 1
  2573                           ; switch strategies available:
  2574                           ; Name         Instructions Cycles
  2575                           ; simple_byte            7     4 (average)
  2576                           ; direct_byte           14     8 (fixed)
  2577                           ; jumptable            260     6 (fixed)
  2578                           ;	Chosen strategy is simple_byte
  2579  01DE  0874               	movf	Stepper_CW@Step_grados_cw+1,w
  2580  01DF  3A00               	xorlw	0	; case 0
  2581  01E0  1903               	skipnz
  2582  01E1  29E6               	goto	l3887
  2583  01E2  3A01               	xorlw	1	; case 1
  2584  01E3  1903               	skipnz
  2585  01E4  29F4               	goto	l3889
  2586  01E5  2993               	goto	l3325
  2587  01E6                     l3887:	
  2588                           
  2589                           ; Switch size 1, requested type "simple"
  2590                           ; Number of cases is 4, Range of values is 15 to 180
  2591                           ; switch strategies available:
  2592                           ; Name         Instructions Cycles
  2593                           ; simple_byte           13     7 (average)
  2594                           ; jumptable            263     9 (fixed)
  2595                           ;	Chosen strategy is simple_byte
  2596  01E6  0873               	movf	Stepper_CW@Step_grados_cw,w
  2597  01E7  3A0F               	xorlw	15	; case 15
  2598  01E8  1903               	skipnz
  2599  01E9  2948               	goto	l3315
  2600  01EA  3A22               	xorlw	34	; case 45
  2601  01EB  1903               	skipnz
  2602  01EC  28FD               	goto	l3305
  2603  01ED  3A77               	xorlw	119	; case 90
  2604  01EE  1903               	skipnz
  2605  01EF  28B2               	goto	l3295
  2606  01F0  3AEE               	xorlw	238	; case 180
  2607  01F1  1903               	skipnz
  2608  01F2  2867               	goto	l3285
  2609  01F3  2993               	goto	l3325
  2610  01F4                     l3889:	
  2611                           
  2612                           ; Switch size 1, requested type "simple"
  2613                           ; Number of cases is 1, Range of values is 104 to 104
  2614                           ; switch strategies available:
  2615                           ; Name         Instructions Cycles
  2616                           ; simple_byte            4     3 (average)
  2617                           ; direct_byte           14    11 (fixed)
  2618                           ; jumptable            263     9 (fixed)
  2619                           ;	Chosen strategy is simple_byte
  2620  01F4  0873               	movf	Stepper_CW@Step_grados_cw,w
  2621  01F5  3A68               	xorlw	104	; case 104
  2622  01F6  1903               	skipnz
  2623  01F7  281C               	goto	l3275
  2624  01F8  2993               	goto	l3325
  2625  01F9                     l165:	
  2626  01F9  0008               	return
  2627  01FA                     __end_of_Stepper_CW:	
  2628                           
  2629                           	psect	text7
  2630  01FA                     __ptext7:	
  2631 ;; *************** function _Stepper_CCW *****************
  2632 ;; Defined at:
  2633 ;;		line 102 in file "STEPPER_MITSUMI.c"
  2634 ;; Parameters:    Size  Location     Type
  2635 ;;  Step_grados_    2    3[COMMON] unsigned int 
  2636 ;; Auto vars:     Size  Location     Type
  2637 ;;		None
  2638 ;; Return value:  Size  Location     Type
  2639 ;;                  1    wreg      void 
  2640 ;; Registers used:
  2641 ;;		wreg, fsr0l, fsr0h, status,2, status,0, btemp+1
  2642 ;; Tracked objects:
  2643 ;;		On entry : 0/0
  2644 ;;		On exit  : 0/0
  2645 ;;		Unchanged: 0/0
  2646 ;; Data sizes:     COMMON   BANK0   BANK1   BANK3   BANK2
  2647 ;;      Params:         2       0       0       0       0
  2648 ;;      Locals:         0       0       0       0       0
  2649 ;;      Temps:          2       0       0       0       0
  2650 ;;      Totals:         4       0       0       0       0
  2651 ;;Total ram usage:        4 bytes
  2652 ;; Hardware stack levels used:    1
  2653 ;; Hardware stack levels required when called:    1
  2654 ;; This function calls:
  2655 ;;		Nothing
  2656 ;; This function is called by:
  2657 ;;		_main
  2658 ;; This function uses a non-reentrant model
  2659 ;;
  2660                           
  2661                           
  2662                           ;psect for function _Stepper_CCW
  2663  01FA                     _Stepper_CCW:	
  2664  01FA                     l3201:	
  2665                           ;incstack = 0
  2666                           ; Regs used in _Stepper_CCW: [wreg-fsr0h+status,2+status,0+btemp+1]
  2667                           
  2668                           
  2669                           ;STEPPER_MITSUMI.c: 103:     switch(Step_grados_ccw){
  2670  01FA  2BBD               	goto	l3263
  2671  01FB                     l3203:	
  2672                           
  2673                           ;STEPPER_MITSUMI.c: 105:             for(i=0; i<25; i++){
  2674  01FB  01F7               	clrf	_i
  2675  01FC  01F8               	clrf	_i+1
  2676  01FD                     l3205:	
  2677  01FD  0878               	movf	_i+1,w
  2678  01FE  3A80               	xorlw	128
  2679  01FF  00FF               	movwf	btemp+1
  2680  0200  3080               	movlw	128
  2681  0201  027F               	subwf	btemp+1,w
  2682  0202  1D03               	skipz
  2683  0203  2A06               	goto	u695
  2684  0204  3019               	movlw	25
  2685  0205  0277               	subwf	_i,w
  2686  0206                     u695:	
  2687  0206  1C03               	skipc
  2688  0207  2A09               	goto	u691
  2689  0208  2A0A               	goto	u690
  2690  0209                     u691:	
  2691  0209  2A0B               	goto	l3209
  2692  020A                     u690:	
  2693  020A  2BD8               	goto	l188
  2694  020B                     l3209:	
  2695                           
  2696                           ;STEPPER_MITSUMI.c: 106:                     PORTD = 0b1001;
  2697  020B  3009               	movlw	9
  2698  020C  1283               	bcf	3,5	;RP0=0, select bank0
  2699  020D  1303               	bcf	3,6	;RP1=0, select bank0
  2700  020E  0088               	movwf	8	;volatile
  2701                           
  2702                           ;STEPPER_MITSUMI.c: 107:                     _delay((unsigned long)((10)*(4000000/4000.0
      +                          )));
  2703  020F  300D               	movlw	13
  2704  0210  00F6               	movwf	??_Stepper_CCW+1
  2705  0211  30FB               	movlw	251
  2706  0212  00F5               	movwf	??_Stepper_CCW
  2707  0213                     u1137:	
  2708  0213  0BF5               	decfsz	??_Stepper_CCW,f
  2709  0214  2A13               	goto	u1137
  2710  0215  0BF6               	decfsz	??_Stepper_CCW+1,f
  2711  0216  2A13               	goto	u1137
  2712  0217  2A18               	nop2
  2713                           
  2714                           ;STEPPER_MITSUMI.c: 108:                     PORTD = 0b0101;
  2715  0218  3005               	movlw	5
  2716  0219  1283               	bcf	3,5	;RP0=0, select bank0
  2717  021A  1303               	bcf	3,6	;RP1=0, select bank0
  2718  021B  0088               	movwf	8	;volatile
  2719                           
  2720                           ;STEPPER_MITSUMI.c: 109:                     _delay((unsigned long)((10)*(4000000/4000.0
      +                          )));
  2721  021C  300D               	movlw	13
  2722  021D  00F6               	movwf	??_Stepper_CCW+1
  2723  021E  30FB               	movlw	251
  2724  021F  00F5               	movwf	??_Stepper_CCW
  2725  0220                     u1147:	
  2726  0220  0BF5               	decfsz	??_Stepper_CCW,f
  2727  0221  2A20               	goto	u1147
  2728  0222  0BF6               	decfsz	??_Stepper_CCW+1,f
  2729  0223  2A20               	goto	u1147
  2730  0224  2A25               	nop2
  2731                           
  2732                           ;STEPPER_MITSUMI.c: 110:                     PORTD = 0b0110;
  2733  0225  3006               	movlw	6
  2734  0226  1283               	bcf	3,5	;RP0=0, select bank0
  2735  0227  1303               	bcf	3,6	;RP1=0, select bank0
  2736  0228  0088               	movwf	8	;volatile
  2737                           
  2738                           ;STEPPER_MITSUMI.c: 111:                     _delay((unsigned long)((10)*(4000000/4000.0
      +                          )));
  2739  0229  300D               	movlw	13
  2740  022A  00F6               	movwf	??_Stepper_CCW+1
  2741  022B  30FB               	movlw	251
  2742  022C  00F5               	movwf	??_Stepper_CCW
  2743  022D                     u1157:	
  2744  022D  0BF5               	decfsz	??_Stepper_CCW,f
  2745  022E  2A2D               	goto	u1157
  2746  022F  0BF6               	decfsz	??_Stepper_CCW+1,f
  2747  0230  2A2D               	goto	u1157
  2748  0231  2A32               	nop2
  2749                           
  2750                           ;STEPPER_MITSUMI.c: 112:                     PORTD = 0b1010;
  2751  0232  300A               	movlw	10
  2752  0233  1283               	bcf	3,5	;RP0=0, select bank0
  2753  0234  1303               	bcf	3,6	;RP1=0, select bank0
  2754  0235  0088               	movwf	8	;volatile
  2755                           
  2756                           ;STEPPER_MITSUMI.c: 113:                     _delay((unsigned long)((10)*(4000000/4000.0
      +                          )));
  2757  0236  300D               	movlw	13
  2758  0237  00F6               	movwf	??_Stepper_CCW+1
  2759  0238  30FB               	movlw	251
  2760  0239  00F5               	movwf	??_Stepper_CCW
  2761  023A                     u1167:	
  2762  023A  0BF5               	decfsz	??_Stepper_CCW,f
  2763  023B  2A3A               	goto	u1167
  2764  023C  0BF6               	decfsz	??_Stepper_CCW+1,f
  2765  023D  2A3A               	goto	u1167
  2766  023E  2A3F               	nop2
  2767                           
  2768                           ;STEPPER_MITSUMI.c: 114:                 };
  2769  023F  3001               	movlw	1
  2770  0240  07F7               	addwf	_i,f
  2771  0241  1803               	skipnc
  2772  0242  0AF8               	incf	_i+1,f
  2773  0243  3000               	movlw	0
  2774  0244  07F8               	addwf	_i+1,f
  2775  0245  29FD               	goto	l3205
  2776  0246                     l3213:	
  2777                           
  2778                           ;STEPPER_MITSUMI.c: 118:             for(i=0; i<12; i++){
  2779  0246  01F7               	clrf	_i
  2780  0247  01F8               	clrf	_i+1
  2781  0248                     l3215:	
  2782  0248  0878               	movf	_i+1,w
  2783  0249  3A80               	xorlw	128
  2784  024A  00FF               	movwf	btemp+1
  2785  024B  3080               	movlw	128
  2786  024C  027F               	subwf	btemp+1,w
  2787  024D  1D03               	skipz
  2788  024E  2A51               	goto	u705
  2789  024F  300C               	movlw	12
  2790  0250  0277               	subwf	_i,w
  2791  0251                     u705:	
  2792  0251  1C03               	skipc
  2793  0252  2A54               	goto	u701
  2794  0253  2A55               	goto	u700
  2795  0254                     u701:	
  2796  0254  2A56               	goto	l3219
  2797  0255                     u700:	
  2798  0255  2BD8               	goto	l188
  2799  0256                     l3219:	
  2800                           
  2801                           ;STEPPER_MITSUMI.c: 119:                     PORTD = 0b1001;
  2802  0256  3009               	movlw	9
  2803  0257  1283               	bcf	3,5	;RP0=0, select bank0
  2804  0258  1303               	bcf	3,6	;RP1=0, select bank0
  2805  0259  0088               	movwf	8	;volatile
  2806                           
  2807                           ;STEPPER_MITSUMI.c: 120:                     _delay((unsigned long)((10)*(4000000/4000.0
      +                          )));
  2808  025A  300D               	movlw	13
  2809  025B  00F6               	movwf	??_Stepper_CCW+1
  2810  025C  30FB               	movlw	251
  2811  025D  00F5               	movwf	??_Stepper_CCW
  2812  025E                     u1177:	
  2813  025E  0BF5               	decfsz	??_Stepper_CCW,f
  2814  025F  2A5E               	goto	u1177
  2815  0260  0BF6               	decfsz	??_Stepper_CCW+1,f
  2816  0261  2A5E               	goto	u1177
  2817  0262  2A63               	nop2
  2818                           
  2819                           ;STEPPER_MITSUMI.c: 121:                     PORTD = 0b0101;
  2820  0263  3005               	movlw	5
  2821  0264  1283               	bcf	3,5	;RP0=0, select bank0
  2822  0265  1303               	bcf	3,6	;RP1=0, select bank0
  2823  0266  0088               	movwf	8	;volatile
  2824                           
  2825                           ;STEPPER_MITSUMI.c: 122:                     _delay((unsigned long)((10)*(4000000/4000.0
      +                          )));
  2826  0267  300D               	movlw	13
  2827  0268  00F6               	movwf	??_Stepper_CCW+1
  2828  0269  30FB               	movlw	251
  2829  026A  00F5               	movwf	??_Stepper_CCW
  2830  026B                     u1187:	
  2831  026B  0BF5               	decfsz	??_Stepper_CCW,f
  2832  026C  2A6B               	goto	u1187
  2833  026D  0BF6               	decfsz	??_Stepper_CCW+1,f
  2834  026E  2A6B               	goto	u1187
  2835  026F  2A70               	nop2
  2836                           
  2837                           ;STEPPER_MITSUMI.c: 123:                     PORTD = 0b0110;
  2838  0270  3006               	movlw	6
  2839  0271  1283               	bcf	3,5	;RP0=0, select bank0
  2840  0272  1303               	bcf	3,6	;RP1=0, select bank0
  2841  0273  0088               	movwf	8	;volatile
  2842                           
  2843                           ;STEPPER_MITSUMI.c: 124:                     _delay((unsigned long)((10)*(4000000/4000.0
      +                          )));
  2844  0274  300D               	movlw	13
  2845  0275  00F6               	movwf	??_Stepper_CCW+1
  2846  0276  30FB               	movlw	251
  2847  0277  00F5               	movwf	??_Stepper_CCW
  2848  0278                     u1197:	
  2849  0278  0BF5               	decfsz	??_Stepper_CCW,f
  2850  0279  2A78               	goto	u1197
  2851  027A  0BF6               	decfsz	??_Stepper_CCW+1,f
  2852  027B  2A78               	goto	u1197
  2853  027C  2A7D               	nop2
  2854                           
  2855                           ;STEPPER_MITSUMI.c: 125:                     PORTD = 0b1010;
  2856  027D  300A               	movlw	10
  2857  027E  1283               	bcf	3,5	;RP0=0, select bank0
  2858  027F  1303               	bcf	3,6	;RP1=0, select bank0
  2859  0280  0088               	movwf	8	;volatile
  2860                           
  2861                           ;STEPPER_MITSUMI.c: 126:                     _delay((unsigned long)((10)*(4000000/4000.0
      +                          )));
  2862  0281  300D               	movlw	13
  2863  0282  00F6               	movwf	??_Stepper_CCW+1
  2864  0283  30FB               	movlw	251
  2865  0284  00F5               	movwf	??_Stepper_CCW
  2866  0285                     u1207:	
  2867  0285  0BF5               	decfsz	??_Stepper_CCW,f
  2868  0286  2A85               	goto	u1207
  2869  0287  0BF6               	decfsz	??_Stepper_CCW+1,f
  2870  0288  2A85               	goto	u1207
  2871  0289  2A8A               	nop2
  2872                           
  2873                           ;STEPPER_MITSUMI.c: 127:                 };
  2874  028A  3001               	movlw	1
  2875  028B  07F7               	addwf	_i,f
  2876  028C  1803               	skipnc
  2877  028D  0AF8               	incf	_i+1,f
  2878  028E  3000               	movlw	0
  2879  028F  07F8               	addwf	_i+1,f
  2880  0290  2A48               	goto	l3215
  2881  0291                     l3223:	
  2882                           
  2883                           ;STEPPER_MITSUMI.c: 131:             for(i=0; i<6; i++){
  2884  0291  01F7               	clrf	_i
  2885  0292  01F8               	clrf	_i+1
  2886  0293                     l3225:	
  2887  0293  0878               	movf	_i+1,w
  2888  0294  3A80               	xorlw	128
  2889  0295  00FF               	movwf	btemp+1
  2890  0296  3080               	movlw	128
  2891  0297  027F               	subwf	btemp+1,w
  2892  0298  1D03               	skipz
  2893  0299  2A9C               	goto	u715
  2894  029A  3006               	movlw	6
  2895  029B  0277               	subwf	_i,w
  2896  029C                     u715:	
  2897  029C  1C03               	skipc
  2898  029D  2A9F               	goto	u711
  2899  029E  2AA0               	goto	u710
  2900  029F                     u711:	
  2901  029F  2AA1               	goto	l3229
  2902  02A0                     u710:	
  2903  02A0  2BD8               	goto	l188
  2904  02A1                     l3229:	
  2905                           
  2906                           ;STEPPER_MITSUMI.c: 132:                     PORTD = 0b1001;
  2907  02A1  3009               	movlw	9
  2908  02A2  1283               	bcf	3,5	;RP0=0, select bank0
  2909  02A3  1303               	bcf	3,6	;RP1=0, select bank0
  2910  02A4  0088               	movwf	8	;volatile
  2911                           
  2912                           ;STEPPER_MITSUMI.c: 133:                     _delay((unsigned long)((10)*(4000000/4000.0
      +                          )));
  2913  02A5  300D               	movlw	13
  2914  02A6  00F6               	movwf	??_Stepper_CCW+1
  2915  02A7  30FB               	movlw	251
  2916  02A8  00F5               	movwf	??_Stepper_CCW
  2917  02A9                     u1217:	
  2918  02A9  0BF5               	decfsz	??_Stepper_CCW,f
  2919  02AA  2AA9               	goto	u1217
  2920  02AB  0BF6               	decfsz	??_Stepper_CCW+1,f
  2921  02AC  2AA9               	goto	u1217
  2922  02AD  2AAE               	nop2
  2923                           
  2924                           ;STEPPER_MITSUMI.c: 134:                     PORTD = 0b0101;
  2925  02AE  3005               	movlw	5
  2926  02AF  1283               	bcf	3,5	;RP0=0, select bank0
  2927  02B0  1303               	bcf	3,6	;RP1=0, select bank0
  2928  02B1  0088               	movwf	8	;volatile
  2929                           
  2930                           ;STEPPER_MITSUMI.c: 135:                     _delay((unsigned long)((10)*(4000000/4000.0
      +                          )));
  2931  02B2  300D               	movlw	13
  2932  02B3  00F6               	movwf	??_Stepper_CCW+1
  2933  02B4  30FB               	movlw	251
  2934  02B5  00F5               	movwf	??_Stepper_CCW
  2935  02B6                     u1227:	
  2936  02B6  0BF5               	decfsz	??_Stepper_CCW,f
  2937  02B7  2AB6               	goto	u1227
  2938  02B8  0BF6               	decfsz	??_Stepper_CCW+1,f
  2939  02B9  2AB6               	goto	u1227
  2940  02BA  2ABB               	nop2
  2941                           
  2942                           ;STEPPER_MITSUMI.c: 136:                     PORTD = 0b0110;
  2943  02BB  3006               	movlw	6
  2944  02BC  1283               	bcf	3,5	;RP0=0, select bank0
  2945  02BD  1303               	bcf	3,6	;RP1=0, select bank0
  2946  02BE  0088               	movwf	8	;volatile
  2947                           
  2948                           ;STEPPER_MITSUMI.c: 137:                     _delay((unsigned long)((10)*(4000000/4000.0
      +                          )));
  2949  02BF  300D               	movlw	13
  2950  02C0  00F6               	movwf	??_Stepper_CCW+1
  2951  02C1  30FB               	movlw	251
  2952  02C2  00F5               	movwf	??_Stepper_CCW
  2953  02C3                     u1237:	
  2954  02C3  0BF5               	decfsz	??_Stepper_CCW,f
  2955  02C4  2AC3               	goto	u1237
  2956  02C5  0BF6               	decfsz	??_Stepper_CCW+1,f
  2957  02C6  2AC3               	goto	u1237
  2958  02C7  2AC8               	nop2
  2959                           
  2960                           ;STEPPER_MITSUMI.c: 138:                     PORTD = 0b1010;
  2961  02C8  300A               	movlw	10
  2962  02C9  1283               	bcf	3,5	;RP0=0, select bank0
  2963  02CA  1303               	bcf	3,6	;RP1=0, select bank0
  2964  02CB  0088               	movwf	8	;volatile
  2965                           
  2966                           ;STEPPER_MITSUMI.c: 139:                     _delay((unsigned long)((10)*(4000000/4000.0
      +                          )));
  2967  02CC  300D               	movlw	13
  2968  02CD  00F6               	movwf	??_Stepper_CCW+1
  2969  02CE  30FB               	movlw	251
  2970  02CF  00F5               	movwf	??_Stepper_CCW
  2971  02D0                     u1247:	
  2972  02D0  0BF5               	decfsz	??_Stepper_CCW,f
  2973  02D1  2AD0               	goto	u1247
  2974  02D2  0BF6               	decfsz	??_Stepper_CCW+1,f
  2975  02D3  2AD0               	goto	u1247
  2976  02D4  2AD5               	nop2
  2977                           
  2978                           ;STEPPER_MITSUMI.c: 140:                 };
  2979  02D5  3001               	movlw	1
  2980  02D6  07F7               	addwf	_i,f
  2981  02D7  1803               	skipnc
  2982  02D8  0AF8               	incf	_i+1,f
  2983  02D9  3000               	movlw	0
  2984  02DA  07F8               	addwf	_i+1,f
  2985  02DB  2A93               	goto	l3225
  2986  02DC                     l3233:	
  2987                           
  2988                           ;STEPPER_MITSUMI.c: 144:             for(i=0; i<3; i++){
  2989  02DC  01F7               	clrf	_i
  2990  02DD  01F8               	clrf	_i+1
  2991  02DE                     l3235:	
  2992  02DE  0878               	movf	_i+1,w
  2993  02DF  3A80               	xorlw	128
  2994  02E0  00FF               	movwf	btemp+1
  2995  02E1  3080               	movlw	128
  2996  02E2  027F               	subwf	btemp+1,w
  2997  02E3  1D03               	skipz
  2998  02E4  2AE7               	goto	u725
  2999  02E5  3003               	movlw	3
  3000  02E6  0277               	subwf	_i,w
  3001  02E7                     u725:	
  3002  02E7  1C03               	skipc
  3003  02E8  2AEA               	goto	u721
  3004  02E9  2AEB               	goto	u720
  3005  02EA                     u721:	
  3006  02EA  2AEC               	goto	l3239
  3007  02EB                     u720:	
  3008  02EB  2BD8               	goto	l188
  3009  02EC                     l3239:	
  3010                           
  3011                           ;STEPPER_MITSUMI.c: 145:                     PORTD = 0b1001;
  3012  02EC  3009               	movlw	9
  3013  02ED  1283               	bcf	3,5	;RP0=0, select bank0
  3014  02EE  1303               	bcf	3,6	;RP1=0, select bank0
  3015  02EF  0088               	movwf	8	;volatile
  3016                           
  3017                           ;STEPPER_MITSUMI.c: 146:                     _delay((unsigned long)((10)*(4000000/4000.0
      +                          )));
  3018  02F0  300D               	movlw	13
  3019  02F1  00F6               	movwf	??_Stepper_CCW+1
  3020  02F2  30FB               	movlw	251
  3021  02F3  00F5               	movwf	??_Stepper_CCW
  3022  02F4                     u1257:	
  3023  02F4  0BF5               	decfsz	??_Stepper_CCW,f
  3024  02F5  2AF4               	goto	u1257
  3025  02F6  0BF6               	decfsz	??_Stepper_CCW+1,f
  3026  02F7  2AF4               	goto	u1257
  3027  02F8  2AF9               	nop2
  3028                           
  3029                           ;STEPPER_MITSUMI.c: 147:                     PORTD = 0b0101;
  3030  02F9  3005               	movlw	5
  3031  02FA  1283               	bcf	3,5	;RP0=0, select bank0
  3032  02FB  1303               	bcf	3,6	;RP1=0, select bank0
  3033  02FC  0088               	movwf	8	;volatile
  3034                           
  3035                           ;STEPPER_MITSUMI.c: 148:                     _delay((unsigned long)((10)*(4000000/4000.0
      +                          )));
  3036  02FD  300D               	movlw	13
  3037  02FE  00F6               	movwf	??_Stepper_CCW+1
  3038  02FF  30FB               	movlw	251
  3039  0300  00F5               	movwf	??_Stepper_CCW
  3040  0301                     u1267:	
  3041  0301  0BF5               	decfsz	??_Stepper_CCW,f
  3042  0302  2B01               	goto	u1267
  3043  0303  0BF6               	decfsz	??_Stepper_CCW+1,f
  3044  0304  2B01               	goto	u1267
  3045  0305  2B06               	nop2
  3046                           
  3047                           ;STEPPER_MITSUMI.c: 149:                     PORTD = 0b0110;
  3048  0306  3006               	movlw	6
  3049  0307  1283               	bcf	3,5	;RP0=0, select bank0
  3050  0308  1303               	bcf	3,6	;RP1=0, select bank0
  3051  0309  0088               	movwf	8	;volatile
  3052                           
  3053                           ;STEPPER_MITSUMI.c: 150:                     _delay((unsigned long)((10)*(4000000/4000.0
      +                          )));
  3054  030A  300D               	movlw	13
  3055  030B  00F6               	movwf	??_Stepper_CCW+1
  3056  030C  30FB               	movlw	251
  3057  030D  00F5               	movwf	??_Stepper_CCW
  3058  030E                     u1277:	
  3059  030E  0BF5               	decfsz	??_Stepper_CCW,f
  3060  030F  2B0E               	goto	u1277
  3061  0310  0BF6               	decfsz	??_Stepper_CCW+1,f
  3062  0311  2B0E               	goto	u1277
  3063  0312  2B13               	nop2
  3064                           
  3065                           ;STEPPER_MITSUMI.c: 151:                     PORTD = 0b1010;
  3066  0313  300A               	movlw	10
  3067  0314  1283               	bcf	3,5	;RP0=0, select bank0
  3068  0315  1303               	bcf	3,6	;RP1=0, select bank0
  3069  0316  0088               	movwf	8	;volatile
  3070                           
  3071                           ;STEPPER_MITSUMI.c: 152:                     _delay((unsigned long)((10)*(4000000/4000.0
      +                          )));
  3072  0317  300D               	movlw	13
  3073  0318  00F6               	movwf	??_Stepper_CCW+1
  3074  0319  30FB               	movlw	251
  3075  031A  00F5               	movwf	??_Stepper_CCW
  3076  031B                     u1287:	
  3077  031B  0BF5               	decfsz	??_Stepper_CCW,f
  3078  031C  2B1B               	goto	u1287
  3079  031D  0BF6               	decfsz	??_Stepper_CCW+1,f
  3080  031E  2B1B               	goto	u1287
  3081  031F  2B20               	nop2
  3082                           
  3083                           ;STEPPER_MITSUMI.c: 153:                 };
  3084  0320  3001               	movlw	1
  3085  0321  07F7               	addwf	_i,f
  3086  0322  1803               	skipnc
  3087  0323  0AF8               	incf	_i+1,f
  3088  0324  3000               	movlw	0
  3089  0325  07F8               	addwf	_i+1,f
  3090  0326  2ADE               	goto	l3235
  3091  0327                     l3243:	
  3092                           
  3093                           ;STEPPER_MITSUMI.c: 157:             for(i=0; i<1; i++){
  3094  0327  01F7               	clrf	_i
  3095  0328  01F8               	clrf	_i+1
  3096  0329                     l3245:	
  3097  0329  0878               	movf	_i+1,w
  3098  032A  3A80               	xorlw	128
  3099  032B  00FF               	movwf	btemp+1
  3100  032C  3080               	movlw	128
  3101  032D  027F               	subwf	btemp+1,w
  3102  032E  1D03               	skipz
  3103  032F  2B32               	goto	u735
  3104  0330  3001               	movlw	1
  3105  0331  0277               	subwf	_i,w
  3106  0332                     u735:	
  3107  0332  1C03               	skipc
  3108  0333  2B35               	goto	u731
  3109  0334  2B36               	goto	u730
  3110  0335                     u731:	
  3111  0335  2B37               	goto	l3249
  3112  0336                     u730:	
  3113  0336  2BD8               	goto	l188
  3114  0337                     l3249:	
  3115                           
  3116                           ;STEPPER_MITSUMI.c: 158:                     PORTD = 0b1001;
  3117  0337  3009               	movlw	9
  3118  0338  1283               	bcf	3,5	;RP0=0, select bank0
  3119  0339  1303               	bcf	3,6	;RP1=0, select bank0
  3120  033A  0088               	movwf	8	;volatile
  3121                           
  3122                           ;STEPPER_MITSUMI.c: 159:                     _delay((unsigned long)((10)*(4000000/4000.0
      +                          )));
  3123  033B  300D               	movlw	13
  3124  033C  00F6               	movwf	??_Stepper_CCW+1
  3125  033D  30FB               	movlw	251
  3126  033E  00F5               	movwf	??_Stepper_CCW
  3127  033F                     u1297:	
  3128  033F  0BF5               	decfsz	??_Stepper_CCW,f
  3129  0340  2B3F               	goto	u1297
  3130  0341  0BF6               	decfsz	??_Stepper_CCW+1,f
  3131  0342  2B3F               	goto	u1297
  3132  0343  2B44               	nop2
  3133                           
  3134                           ;STEPPER_MITSUMI.c: 160:                     PORTD = 0b0101;
  3135  0344  3005               	movlw	5
  3136  0345  1283               	bcf	3,5	;RP0=0, select bank0
  3137  0346  1303               	bcf	3,6	;RP1=0, select bank0
  3138  0347  0088               	movwf	8	;volatile
  3139                           
  3140                           ;STEPPER_MITSUMI.c: 161:                     _delay((unsigned long)((10)*(4000000/4000.0
      +                          )));
  3141  0348  300D               	movlw	13
  3142  0349  00F6               	movwf	??_Stepper_CCW+1
  3143  034A  30FB               	movlw	251
  3144  034B  00F5               	movwf	??_Stepper_CCW
  3145  034C                     u1307:	
  3146  034C  0BF5               	decfsz	??_Stepper_CCW,f
  3147  034D  2B4C               	goto	u1307
  3148  034E  0BF6               	decfsz	??_Stepper_CCW+1,f
  3149  034F  2B4C               	goto	u1307
  3150  0350  2B51               	nop2
  3151                           
  3152                           ;STEPPER_MITSUMI.c: 162:                     PORTD = 0b0110;
  3153  0351  3006               	movlw	6
  3154  0352  1283               	bcf	3,5	;RP0=0, select bank0
  3155  0353  1303               	bcf	3,6	;RP1=0, select bank0
  3156  0354  0088               	movwf	8	;volatile
  3157                           
  3158                           ;STEPPER_MITSUMI.c: 163:                     _delay((unsigned long)((10)*(4000000/4000.0
      +                          )));
  3159  0355  300D               	movlw	13
  3160  0356  00F6               	movwf	??_Stepper_CCW+1
  3161  0357  30FB               	movlw	251
  3162  0358  00F5               	movwf	??_Stepper_CCW
  3163  0359                     u1317:	
  3164  0359  0BF5               	decfsz	??_Stepper_CCW,f
  3165  035A  2B59               	goto	u1317
  3166  035B  0BF6               	decfsz	??_Stepper_CCW+1,f
  3167  035C  2B59               	goto	u1317
  3168  035D  2B5E               	nop2
  3169                           
  3170                           ;STEPPER_MITSUMI.c: 164:                     PORTD = 0b1010;
  3171  035E  300A               	movlw	10
  3172  035F  1283               	bcf	3,5	;RP0=0, select bank0
  3173  0360  1303               	bcf	3,6	;RP1=0, select bank0
  3174  0361  0088               	movwf	8	;volatile
  3175                           
  3176                           ;STEPPER_MITSUMI.c: 165:                     _delay((unsigned long)((10)*(4000000/4000.0
      +                          )));
  3177  0362  300D               	movlw	13
  3178  0363  00F6               	movwf	??_Stepper_CCW+1
  3179  0364  30FB               	movlw	251
  3180  0365  00F5               	movwf	??_Stepper_CCW
  3181  0366                     u1327:	
  3182  0366  0BF5               	decfsz	??_Stepper_CCW,f
  3183  0367  2B66               	goto	u1327
  3184  0368  0BF6               	decfsz	??_Stepper_CCW+1,f
  3185  0369  2B66               	goto	u1327
  3186  036A  2B6B               	nop2
  3187                           
  3188                           ;STEPPER_MITSUMI.c: 166:                 };
  3189  036B  3001               	movlw	1
  3190  036C  07F7               	addwf	_i,f
  3191  036D  1803               	skipnc
  3192  036E  0AF8               	incf	_i+1,f
  3193  036F  3000               	movlw	0
  3194  0370  07F8               	addwf	_i+1,f
  3195  0371  2B29               	goto	l3245
  3196  0372                     l3253:	
  3197                           
  3198                           ;STEPPER_MITSUMI.c: 170:             for(i=0; i<2; i++){
  3199  0372  01F7               	clrf	_i
  3200  0373  01F8               	clrf	_i+1
  3201  0374                     l3255:	
  3202  0374  0878               	movf	_i+1,w
  3203  0375  3A80               	xorlw	128
  3204  0376  00FF               	movwf	btemp+1
  3205  0377  3080               	movlw	128
  3206  0378  027F               	subwf	btemp+1,w
  3207  0379  1D03               	skipz
  3208  037A  2B7D               	goto	u745
  3209  037B  3002               	movlw	2
  3210  037C  0277               	subwf	_i,w
  3211  037D                     u745:	
  3212  037D  1C03               	skipc
  3213  037E  2B80               	goto	u741
  3214  037F  2B81               	goto	u740
  3215  0380                     u741:	
  3216  0380  2B82               	goto	l3259
  3217  0381                     u740:	
  3218  0381  2BD8               	goto	l188
  3219  0382                     l3259:	
  3220                           
  3221                           ;STEPPER_MITSUMI.c: 171:                     PORTD = 0b1001;
  3222  0382  3009               	movlw	9
  3223  0383  1283               	bcf	3,5	;RP0=0, select bank0
  3224  0384  1303               	bcf	3,6	;RP1=0, select bank0
  3225  0385  0088               	movwf	8	;volatile
  3226                           
  3227                           ;STEPPER_MITSUMI.c: 172:                     _delay((unsigned long)((10)*(4000000/4000.0
      +                          )));
  3228  0386  300D               	movlw	13
  3229  0387  00F6               	movwf	??_Stepper_CCW+1
  3230  0388  30FB               	movlw	251
  3231  0389  00F5               	movwf	??_Stepper_CCW
  3232  038A                     u1337:	
  3233  038A  0BF5               	decfsz	??_Stepper_CCW,f
  3234  038B  2B8A               	goto	u1337
  3235  038C  0BF6               	decfsz	??_Stepper_CCW+1,f
  3236  038D  2B8A               	goto	u1337
  3237  038E  2B8F               	nop2
  3238                           
  3239                           ;STEPPER_MITSUMI.c: 173:                     PORTD = 0b0101;
  3240  038F  3005               	movlw	5
  3241  0390  1283               	bcf	3,5	;RP0=0, select bank0
  3242  0391  1303               	bcf	3,6	;RP1=0, select bank0
  3243  0392  0088               	movwf	8	;volatile
  3244                           
  3245                           ;STEPPER_MITSUMI.c: 174:                     _delay((unsigned long)((10)*(4000000/4000.0
      +                          )));
  3246  0393  300D               	movlw	13
  3247  0394  00F6               	movwf	??_Stepper_CCW+1
  3248  0395  30FB               	movlw	251
  3249  0396  00F5               	movwf	??_Stepper_CCW
  3250  0397                     u1347:	
  3251  0397  0BF5               	decfsz	??_Stepper_CCW,f
  3252  0398  2B97               	goto	u1347
  3253  0399  0BF6               	decfsz	??_Stepper_CCW+1,f
  3254  039A  2B97               	goto	u1347
  3255  039B  2B9C               	nop2
  3256                           
  3257                           ;STEPPER_MITSUMI.c: 175:                     PORTD = 0b0110;
  3258  039C  3006               	movlw	6
  3259  039D  1283               	bcf	3,5	;RP0=0, select bank0
  3260  039E  1303               	bcf	3,6	;RP1=0, select bank0
  3261  039F  0088               	movwf	8	;volatile
  3262                           
  3263                           ;STEPPER_MITSUMI.c: 176:                     _delay((unsigned long)((10)*(4000000/4000.0
      +                          )));
  3264  03A0  300D               	movlw	13
  3265  03A1  00F6               	movwf	??_Stepper_CCW+1
  3266  03A2  30FB               	movlw	251
  3267  03A3  00F5               	movwf	??_Stepper_CCW
  3268  03A4                     u1357:	
  3269  03A4  0BF5               	decfsz	??_Stepper_CCW,f
  3270  03A5  2BA4               	goto	u1357
  3271  03A6  0BF6               	decfsz	??_Stepper_CCW+1,f
  3272  03A7  2BA4               	goto	u1357
  3273  03A8  2BA9               	nop2
  3274                           
  3275                           ;STEPPER_MITSUMI.c: 177:                     PORTD = 0b1010;
  3276  03A9  300A               	movlw	10
  3277  03AA  1283               	bcf	3,5	;RP0=0, select bank0
  3278  03AB  1303               	bcf	3,6	;RP1=0, select bank0
  3279  03AC  0088               	movwf	8	;volatile
  3280                           
  3281                           ;STEPPER_MITSUMI.c: 178:                     _delay((unsigned long)((10)*(4000000/4000.0
      +                          )));
  3282  03AD  300D               	movlw	13
  3283  03AE  00F6               	movwf	??_Stepper_CCW+1
  3284  03AF  30FB               	movlw	251
  3285  03B0  00F5               	movwf	??_Stepper_CCW
  3286  03B1                     u1367:	
  3287  03B1  0BF5               	decfsz	??_Stepper_CCW,f
  3288  03B2  2BB1               	goto	u1367
  3289  03B3  0BF6               	decfsz	??_Stepper_CCW+1,f
  3290  03B4  2BB1               	goto	u1367
  3291  03B5  2BB6               	nop2
  3292                           
  3293                           ;STEPPER_MITSUMI.c: 179:                 };
  3294  03B6  3001               	movlw	1
  3295  03B7  07F7               	addwf	_i,f
  3296  03B8  1803               	skipnc
  3297  03B9  0AF8               	incf	_i+1,f
  3298  03BA  3000               	movlw	0
  3299  03BB  07F8               	addwf	_i+1,f
  3300  03BC  2B74               	goto	l3255
  3301  03BD                     l3263:	
  3302                           
  3303                           ; Switch on 2 bytes has been partitioned into a top level switch of size 1, and 2 sub-sw
      +                          itches
  3304                           ; Switch size 1, requested type "simple"
  3305                           ; Number of cases is 2, Range of values is 0 to 1
  3306                           ; switch strategies available:
  3307                           ; Name         Instructions Cycles
  3308                           ; simple_byte            7     4 (average)
  3309                           ; direct_byte           14     8 (fixed)
  3310                           ; jumptable            260     6 (fixed)
  3311                           ;	Chosen strategy is simple_byte
  3312  03BD  0874               	movf	Stepper_CCW@Step_grados_ccw+1,w
  3313  03BE  3A00               	xorlw	0	; case 0
  3314  03BF  1903               	skipnz
  3315  03C0  2BC5               	goto	l3891
  3316  03C1  3A01               	xorlw	1	; case 1
  3317  03C2  1903               	skipnz
  3318  03C3  2BD3               	goto	l3893
  3319  03C4  2B72               	goto	l3253
  3320  03C5                     l3891:	
  3321                           
  3322                           ; Switch size 1, requested type "simple"
  3323                           ; Number of cases is 4, Range of values is 15 to 180
  3324                           ; switch strategies available:
  3325                           ; Name         Instructions Cycles
  3326                           ; simple_byte           13     7 (average)
  3327                           ; jumptable            263     9 (fixed)
  3328                           ;	Chosen strategy is simple_byte
  3329  03C5  0873               	movf	Stepper_CCW@Step_grados_ccw,w
  3330  03C6  3A0F               	xorlw	15	; case 15
  3331  03C7  1903               	skipnz
  3332  03C8  2B27               	goto	l3243
  3333  03C9  3A22               	xorlw	34	; case 45
  3334  03CA  1903               	skipnz
  3335  03CB  2ADC               	goto	l3233
  3336  03CC  3A77               	xorlw	119	; case 90
  3337  03CD  1903               	skipnz
  3338  03CE  2A91               	goto	l3223
  3339  03CF  3AEE               	xorlw	238	; case 180
  3340  03D0  1903               	skipnz
  3341  03D1  2A46               	goto	l3213
  3342  03D2  2B72               	goto	l3253
  3343  03D3                     l3893:	
  3344                           
  3345                           ; Switch size 1, requested type "simple"
  3346                           ; Number of cases is 1, Range of values is 104 to 104
  3347                           ; switch strategies available:
  3348                           ; Name         Instructions Cycles
  3349                           ; simple_byte            4     3 (average)
  3350                           ; direct_byte           14    11 (fixed)
  3351                           ; jumptable            263     9 (fixed)
  3352                           ;	Chosen strategy is simple_byte
  3353  03D3  0873               	movf	Stepper_CCW@Step_grados_ccw,w
  3354  03D4  3A68               	xorlw	104	; case 104
  3355  03D5  1903               	skipnz
  3356  03D6  29FB               	goto	l3203
  3357  03D7  2B72               	goto	l3253
  3358  03D8                     l188:	
  3359  03D8  0008               	return
  3360  03D9                     __end_of_Stepper_CCW:	
  3361                           
  3362                           	psect	text8
  3363  05AF                     __ptext8:	
  3364 ;; *************** function _Servo2_grados *****************
  3365 ;; Defined at:
  3366 ;;		line 117 in file "PWMs.c"
  3367 ;; Parameters:    Size  Location     Type
  3368 ;;  Servo2_grado    1    wreg     unsigned char 
  3369 ;; Auto vars:     Size  Location     Type
  3370 ;;  Servo2_grado    1    5[COMMON] unsigned char 
  3371 ;; Return value:  Size  Location     Type
  3372 ;;                  1    wreg      void 
  3373 ;; Registers used:
  3374 ;;		wreg, fsr0l, fsr0h, status,2, status,0
  3375 ;; Tracked objects:
  3376 ;;		On entry : 0/0
  3377 ;;		On exit  : 0/0
  3378 ;;		Unchanged: 0/0
  3379 ;; Data sizes:     COMMON   BANK0   BANK1   BANK3   BANK2
  3380 ;;      Params:         0       0       0       0       0
  3381 ;;      Locals:         1       0       0       0       0
  3382 ;;      Temps:          2       0       0       0       0
  3383 ;;      Totals:         3       0       0       0       0
  3384 ;;Total ram usage:        3 bytes
  3385 ;; Hardware stack levels used:    1
  3386 ;; Hardware stack levels required when called:    1
  3387 ;; This function calls:
  3388 ;;		Nothing
  3389 ;; This function is called by:
  3390 ;;		_main
  3391 ;; This function uses a non-reentrant model
  3392 ;;
  3393                           
  3394                           
  3395                           ;psect for function _Servo2_grados
  3396  05AF                     _Servo2_grados:	
  3397                           
  3398                           ;incstack = 0
  3399                           ; Regs used in _Servo2_grados: [wreg-fsr0h+status,2+status,0]
  3400                           ;Servo2_grados@Servo2_grados stored from wreg
  3401  05AF  00F5               	movwf	Servo2_grados@Servo2_grados
  3402  05B0                     l3173:	
  3403                           
  3404                           ;PWMs.c: 118:     switch(Servo2_grados){
  3405  05B0  2DDE               	goto	l3195
  3406  05B1                     l3175:	
  3407                           
  3408                           ;PWMs.c: 120:             CCPR1L = 10;
  3409  05B1  300A               	movlw	10
  3410  05B2  1283               	bcf	3,5	;RP0=0, select bank0
  3411  05B3  1303               	bcf	3,6	;RP1=0, select bank0
  3412  05B4  0095               	movwf	21	;volatile
  3413                           
  3414                           ;PWMs.c: 121:             break;
  3415  05B5  2E03               	goto	l301
  3416  05B6                     l3177:	
  3417                           
  3418                           ;PWMs.c: 124:             CCPR1L = 12;
  3419  05B6  300C               	movlw	12
  3420  05B7  1283               	bcf	3,5	;RP0=0, select bank0
  3421  05B8  1303               	bcf	3,6	;RP1=0, select bank0
  3422  05B9  0095               	movwf	21	;volatile
  3423                           
  3424                           ;PWMs.c: 125:             break;
  3425  05BA  2E03               	goto	l301
  3426  05BB                     l3179:	
  3427                           
  3428                           ;PWMs.c: 128:             CCPR1L = 14;
  3429  05BB  300E               	movlw	14
  3430  05BC  1283               	bcf	3,5	;RP0=0, select bank0
  3431  05BD  1303               	bcf	3,6	;RP1=0, select bank0
  3432  05BE  0095               	movwf	21	;volatile
  3433                           
  3434                           ;PWMs.c: 129:             break;
  3435  05BF  2E03               	goto	l301
  3436  05C0                     l3181:	
  3437                           
  3438                           ;PWMs.c: 132:             CCPR1L = 18;
  3439  05C0  3012               	movlw	18
  3440  05C1  1283               	bcf	3,5	;RP0=0, select bank0
  3441  05C2  1303               	bcf	3,6	;RP1=0, select bank0
  3442  05C3  0095               	movwf	21	;volatile
  3443                           
  3444                           ;PWMs.c: 133:             break;
  3445  05C4  2E03               	goto	l301
  3446  05C5                     l3183:	
  3447                           
  3448                           ;PWMs.c: 136:             CCPR1L = 25;
  3449  05C5  3019               	movlw	25
  3450  05C6  1283               	bcf	3,5	;RP0=0, select bank0
  3451  05C7  1303               	bcf	3,6	;RP1=0, select bank0
  3452  05C8  0095               	movwf	21	;volatile
  3453                           
  3454                           ;PWMs.c: 137:             break;
  3455  05C9  2E03               	goto	l301
  3456  05CA                     l3185:	
  3457                           
  3458                           ;PWMs.c: 140:             CCPR1L = 30;
  3459  05CA  301E               	movlw	30
  3460  05CB  1283               	bcf	3,5	;RP0=0, select bank0
  3461  05CC  1303               	bcf	3,6	;RP1=0, select bank0
  3462  05CD  0095               	movwf	21	;volatile
  3463                           
  3464                           ;PWMs.c: 141:             break;
  3465  05CE  2E03               	goto	l301
  3466  05CF                     l3187:	
  3467                           
  3468                           ;PWMs.c: 144:             CCPR1L = 33;
  3469  05CF  3021               	movlw	33
  3470  05D0  1283               	bcf	3,5	;RP0=0, select bank0
  3471  05D1  1303               	bcf	3,6	;RP1=0, select bank0
  3472  05D2  0095               	movwf	21	;volatile
  3473                           
  3474                           ;PWMs.c: 145:             break;
  3475  05D3  2E03               	goto	l301
  3476  05D4                     l3189:	
  3477                           
  3478                           ;PWMs.c: 148:             CCPR1L = 37;
  3479  05D4  3025               	movlw	37
  3480  05D5  1283               	bcf	3,5	;RP0=0, select bank0
  3481  05D6  1303               	bcf	3,6	;RP1=0, select bank0
  3482  05D7  0095               	movwf	21	;volatile
  3483                           
  3484                           ;PWMs.c: 149:             break;
  3485  05D8  2E03               	goto	l301
  3486  05D9                     l3191:	
  3487                           
  3488                           ;PWMs.c: 152:             CCPR1L = 40;
  3489  05D9  3028               	movlw	40
  3490  05DA  1283               	bcf	3,5	;RP0=0, select bank0
  3491  05DB  1303               	bcf	3,6	;RP1=0, select bank0
  3492  05DC  0095               	movwf	21	;volatile
  3493                           
  3494                           ;PWMs.c: 153:             break;
  3495  05DD  2E03               	goto	l301
  3496  05DE                     l3195:	
  3497  05DE  0875               	movf	Servo2_grados@Servo2_grados,w
  3498  05DF  00F3               	movwf	??_Servo2_grados
  3499  05E0  01F4               	clrf	??_Servo2_grados+1
  3500                           
  3501                           ; Switch on 2 bytes has been partitioned into a top level switch of size 1, and 1 sub-sw
      +                          itches
  3502                           ; Switch size 1, requested type "simple"
  3503                           ; Number of cases is 1, Range of values is 0 to 0
  3504                           ; switch strategies available:
  3505                           ; Name         Instructions Cycles
  3506                           ; simple_byte            4     3 (average)
  3507                           ; direct_byte           11     8 (fixed)
  3508                           ; jumptable            260     6 (fixed)
  3509                           ;	Chosen strategy is simple_byte
  3510  05E1  0874               	movf	??_Servo2_grados+1,w
  3511  05E2  3A00               	xorlw	0	; case 0
  3512  05E3  1903               	skipnz
  3513  05E4  2DE6               	goto	l3895
  3514  05E5  2DB1               	goto	l3175
  3515  05E6                     l3895:	
  3516                           
  3517                           ; Switch size 1, requested type "simple"
  3518                           ; Number of cases is 9, Range of values is 0 to 180
  3519                           ; switch strategies available:
  3520                           ; Name         Instructions Cycles
  3521                           ; simple_byte           28    15 (average)
  3522                           ; jumptable            260     6 (fixed)
  3523                           ;	Chosen strategy is simple_byte
  3524  05E6  0873               	movf	??_Servo2_grados,w
  3525  05E7  3A00               	xorlw	0	; case 0
  3526  05E8  1903               	skipnz
  3527  05E9  2DB1               	goto	l3175
  3528  05EA  3A0A               	xorlw	10	; case 10
  3529  05EB  1903               	skipnz
  3530  05EC  2DB6               	goto	l3177
  3531  05ED  3A14               	xorlw	20	; case 30
  3532  05EE  1903               	skipnz
  3533  05EF  2DBB               	goto	l3179
  3534  05F0  3A33               	xorlw	51	; case 45
  3535  05F1  1903               	skipnz
  3536  05F2  2DC0               	goto	l3181
  3537  05F3  3A77               	xorlw	119	; case 90
  3538  05F4  1903               	skipnz
  3539  05F5  2DC5               	goto	l3183
  3540  05F6  3A22               	xorlw	34	; case 120
  3541  05F7  1903               	skipnz
  3542  05F8  2DCA               	goto	l3185
  3543  05F9  3AFF               	xorlw	255	; case 135
  3544  05FA  1903               	skipnz
  3545  05FB  2DCF               	goto	l3187
  3546  05FC  3A11               	xorlw	17	; case 150
  3547  05FD  1903               	skipnz
  3548  05FE  2DD4               	goto	l3189
  3549  05FF  3A22               	xorlw	34	; case 180
  3550  0600  1903               	skipnz
  3551  0601  2DD9               	goto	l3191
  3552  0602  2DB1               	goto	l3175
  3553  0603                     l301:	
  3554  0603  0008               	return
  3555  0604                     __end_of_Servo2_grados:	
  3556                           
  3557                           	psect	text9
  3558  0604                     __ptext9:	
  3559 ;; *************** function _Servo1_grados *****************
  3560 ;; Defined at:
  3561 ;;		line 73 in file "PWMs.c"
  3562 ;; Parameters:    Size  Location     Type
  3563 ;;  Servo1_grado    1    wreg     unsigned char 
  3564 ;; Auto vars:     Size  Location     Type
  3565 ;;  Servo1_grado    1    5[COMMON] unsigned char 
  3566 ;; Return value:  Size  Location     Type
  3567 ;;                  1    wreg      void 
  3568 ;; Registers used:
  3569 ;;		wreg, fsr0l, fsr0h, status,2, status,0
  3570 ;; Tracked objects:
  3571 ;;		On entry : 0/0
  3572 ;;		On exit  : 0/0
  3573 ;;		Unchanged: 0/0
  3574 ;; Data sizes:     COMMON   BANK0   BANK1   BANK3   BANK2
  3575 ;;      Params:         0       0       0       0       0
  3576 ;;      Locals:         1       0       0       0       0
  3577 ;;      Temps:          2       0       0       0       0
  3578 ;;      Totals:         3       0       0       0       0
  3579 ;;Total ram usage:        3 bytes
  3580 ;; Hardware stack levels used:    1
  3581 ;; Hardware stack levels required when called:    1
  3582 ;; This function calls:
  3583 ;;		Nothing
  3584 ;; This function is called by:
  3585 ;;		_main
  3586 ;; This function uses a non-reentrant model
  3587 ;;
  3588                           
  3589                           
  3590                           ;psect for function _Servo1_grados
  3591  0604                     _Servo1_grados:	
  3592                           
  3593                           ;incstack = 0
  3594                           ; Regs used in _Servo1_grados: [wreg-fsr0h+status,2+status,0]
  3595                           ;Servo1_grados@Servo1_grados stored from wreg
  3596  0604  00F5               	movwf	Servo1_grados@Servo1_grados
  3597  0605                     l3145:	
  3598                           
  3599                           ;PWMs.c: 74:     switch(Servo1_grados){
  3600  0605  2E33               	goto	l3167
  3601  0606                     l3147:	
  3602                           
  3603                           ;PWMs.c: 76:             CCPR2L = 10;
  3604  0606  300A               	movlw	10
  3605  0607  1283               	bcf	3,5	;RP0=0, select bank0
  3606  0608  1303               	bcf	3,6	;RP1=0, select bank0
  3607  0609  009B               	movwf	27	;volatile
  3608                           
  3609                           ;PWMs.c: 77:             break;
  3610  060A  2E58               	goto	l286
  3611  060B                     l3149:	
  3612                           
  3613                           ;PWMs.c: 80:             CCPR2L = 12;
  3614  060B  300C               	movlw	12
  3615  060C  1283               	bcf	3,5	;RP0=0, select bank0
  3616  060D  1303               	bcf	3,6	;RP1=0, select bank0
  3617  060E  009B               	movwf	27	;volatile
  3618                           
  3619                           ;PWMs.c: 81:             break;
  3620  060F  2E58               	goto	l286
  3621  0610                     l3151:	
  3622                           
  3623                           ;PWMs.c: 84:             CCPR2L = 14;
  3624  0610  300E               	movlw	14
  3625  0611  1283               	bcf	3,5	;RP0=0, select bank0
  3626  0612  1303               	bcf	3,6	;RP1=0, select bank0
  3627  0613  009B               	movwf	27	;volatile
  3628                           
  3629                           ;PWMs.c: 85:             break;
  3630  0614  2E58               	goto	l286
  3631  0615                     l3153:	
  3632                           
  3633                           ;PWMs.c: 88:             CCPR2L = 18;
  3634  0615  3012               	movlw	18
  3635  0616  1283               	bcf	3,5	;RP0=0, select bank0
  3636  0617  1303               	bcf	3,6	;RP1=0, select bank0
  3637  0618  009B               	movwf	27	;volatile
  3638                           
  3639                           ;PWMs.c: 89:             break;
  3640  0619  2E58               	goto	l286
  3641  061A                     l3155:	
  3642                           
  3643                           ;PWMs.c: 92:             CCPR2L = 25;
  3644  061A  3019               	movlw	25
  3645  061B  1283               	bcf	3,5	;RP0=0, select bank0
  3646  061C  1303               	bcf	3,6	;RP1=0, select bank0
  3647  061D  009B               	movwf	27	;volatile
  3648                           
  3649                           ;PWMs.c: 93:             break;
  3650  061E  2E58               	goto	l286
  3651  061F                     l3157:	
  3652                           
  3653                           ;PWMs.c: 96:             CCPR2L = 30;
  3654  061F  301E               	movlw	30
  3655  0620  1283               	bcf	3,5	;RP0=0, select bank0
  3656  0621  1303               	bcf	3,6	;RP1=0, select bank0
  3657  0622  009B               	movwf	27	;volatile
  3658                           
  3659                           ;PWMs.c: 97:             break;
  3660  0623  2E58               	goto	l286
  3661  0624                     l3159:	
  3662                           
  3663                           ;PWMs.c: 100:             CCPR2L = 33;
  3664  0624  3021               	movlw	33
  3665  0625  1283               	bcf	3,5	;RP0=0, select bank0
  3666  0626  1303               	bcf	3,6	;RP1=0, select bank0
  3667  0627  009B               	movwf	27	;volatile
  3668                           
  3669                           ;PWMs.c: 101:             break;
  3670  0628  2E58               	goto	l286
  3671  0629                     l3161:	
  3672                           
  3673                           ;PWMs.c: 104:             CCPR2L = 37;
  3674  0629  3025               	movlw	37
  3675  062A  1283               	bcf	3,5	;RP0=0, select bank0
  3676  062B  1303               	bcf	3,6	;RP1=0, select bank0
  3677  062C  009B               	movwf	27	;volatile
  3678                           
  3679                           ;PWMs.c: 105:             break;
  3680  062D  2E58               	goto	l286
  3681  062E                     l3163:	
  3682                           
  3683                           ;PWMs.c: 108:             CCPR2L = 40;
  3684  062E  3028               	movlw	40
  3685  062F  1283               	bcf	3,5	;RP0=0, select bank0
  3686  0630  1303               	bcf	3,6	;RP1=0, select bank0
  3687  0631  009B               	movwf	27	;volatile
  3688                           
  3689                           ;PWMs.c: 109:             break;
  3690  0632  2E58               	goto	l286
  3691  0633                     l3167:	
  3692  0633  0875               	movf	Servo1_grados@Servo1_grados,w
  3693  0634  00F3               	movwf	??_Servo1_grados
  3694  0635  01F4               	clrf	??_Servo1_grados+1
  3695                           
  3696                           ; Switch on 2 bytes has been partitioned into a top level switch of size 1, and 1 sub-sw
      +                          itches
  3697                           ; Switch size 1, requested type "simple"
  3698                           ; Number of cases is 1, Range of values is 0 to 0
  3699                           ; switch strategies available:
  3700                           ; Name         Instructions Cycles
  3701                           ; simple_byte            4     3 (average)
  3702                           ; direct_byte           11     8 (fixed)
  3703                           ; jumptable            260     6 (fixed)
  3704                           ;	Chosen strategy is simple_byte
  3705  0636  0874               	movf	??_Servo1_grados+1,w
  3706  0637  3A00               	xorlw	0	; case 0
  3707  0638  1903               	skipnz
  3708  0639  2E3B               	goto	l3897
  3709  063A  2E06               	goto	l3147
  3710  063B                     l3897:	
  3711                           
  3712                           ; Switch size 1, requested type "simple"
  3713                           ; Number of cases is 9, Range of values is 0 to 180
  3714                           ; switch strategies available:
  3715                           ; Name         Instructions Cycles
  3716                           ; simple_byte           28    15 (average)
  3717                           ; jumptable            260     6 (fixed)
  3718                           ;	Chosen strategy is simple_byte
  3719  063B  0873               	movf	??_Servo1_grados,w
  3720  063C  3A00               	xorlw	0	; case 0
  3721  063D  1903               	skipnz
  3722  063E  2E06               	goto	l3147
  3723  063F  3A0A               	xorlw	10	; case 10
  3724  0640  1903               	skipnz
  3725  0641  2E0B               	goto	l3149
  3726  0642  3A14               	xorlw	20	; case 30
  3727  0643  1903               	skipnz
  3728  0644  2E10               	goto	l3151
  3729  0645  3A33               	xorlw	51	; case 45
  3730  0646  1903               	skipnz
  3731  0647  2E15               	goto	l3153
  3732  0648  3A77               	xorlw	119	; case 90
  3733  0649  1903               	skipnz
  3734  064A  2E1A               	goto	l3155
  3735  064B  3A22               	xorlw	34	; case 120
  3736  064C  1903               	skipnz
  3737  064D  2E1F               	goto	l3157
  3738  064E  3AFF               	xorlw	255	; case 135
  3739  064F  1903               	skipnz
  3740  0650  2E24               	goto	l3159
  3741  0651  3A11               	xorlw	17	; case 150
  3742  0652  1903               	skipnz
  3743  0653  2E29               	goto	l3161
  3744  0654  3A22               	xorlw	34	; case 180
  3745  0655  1903               	skipnz
  3746  0656  2E2E               	goto	l3163
  3747  0657  2E06               	goto	l3147
  3748  0658                     l286:	
  3749  0658  0008               	return
  3750  0659                     __end_of_Servo1_grados:	
  3751                           
  3752                           	psect	text10
  3753  06C4                     __ptext10:	
  3754 ;; *************** function _I2C_Slave_Init *****************
  3755 ;; Defined at:
  3756 ;;		line 94 in file "I2C.c"
  3757 ;; Parameters:    Size  Location     Type
  3758 ;;  address         1    wreg     unsigned char 
  3759 ;; Auto vars:     Size  Location     Type
  3760 ;;  address         1    3[COMMON] unsigned char 
  3761 ;; Return value:  Size  Location     Type
  3762 ;;                  1    wreg      void 
  3763 ;; Registers used:
  3764 ;;		wreg
  3765 ;; Tracked objects:
  3766 ;;		On entry : 0/0
  3767 ;;		On exit  : 0/0
  3768 ;;		Unchanged: 0/0
  3769 ;; Data sizes:     COMMON   BANK0   BANK1   BANK3   BANK2
  3770 ;;      Params:         0       0       0       0       0
  3771 ;;      Locals:         1       0       0       0       0
  3772 ;;      Temps:          0       0       0       0       0
  3773 ;;      Totals:         1       0       0       0       0
  3774 ;;Total ram usage:        1 bytes
  3775 ;; Hardware stack levels used:    1
  3776 ;; Hardware stack levels required when called:    1
  3777 ;; This function calls:
  3778 ;;		Nothing
  3779 ;; This function is called by:
  3780 ;;		_main
  3781 ;; This function uses a non-reentrant model
  3782 ;;
  3783                           
  3784                           
  3785                           ;psect for function _I2C_Slave_Init
  3786  06C4                     _I2C_Slave_Init:	
  3787                           
  3788                           ;incstack = 0
  3789                           ; Regs used in _I2C_Slave_Init: [wreg]
  3790                           ;I2C_Slave_Init@address stored from wreg
  3791  06C4  00F3               	movwf	I2C_Slave_Init@address
  3792  06C5                     l3131:	
  3793                           
  3794                           ;I2C.c: 94: void I2C_Slave_Init(uint8_t address);I2C.c: 95: {;I2C.c: 96:     SSPADD = ad
      +                          dress;
  3795  06C5  0873               	movf	I2C_Slave_Init@address,w
  3796  06C6  1683               	bsf	3,5	;RP0=1, select bank1
  3797  06C7  1303               	bcf	3,6	;RP1=0, select bank1
  3798  06C8  0093               	movwf	19	;volatile
  3799                           
  3800                           ;I2C.c: 97:     SSPCON = 0x36;
  3801  06C9  3036               	movlw	54
  3802  06CA  1283               	bcf	3,5	;RP0=0, select bank0
  3803  06CB  1303               	bcf	3,6	;RP1=0, select bank0
  3804  06CC  0094               	movwf	20	;volatile
  3805                           
  3806                           ;I2C.c: 98:     SSPSTAT = 0x80;
  3807  06CD  3080               	movlw	128
  3808  06CE  1683               	bsf	3,5	;RP0=1, select bank1
  3809  06CF  1303               	bcf	3,6	;RP1=0, select bank1
  3810  06D0  0094               	movwf	20	;volatile
  3811                           
  3812                           ;I2C.c: 99:     SSPCON2 = 0x01;
  3813  06D1  3001               	movlw	1
  3814  06D2  0091               	movwf	17	;volatile
  3815  06D3                     l3133:	
  3816                           
  3817                           ;I2C.c: 100:     TRISC3 = 1;
  3818  06D3  1587               	bsf	7,3	;volatile
  3819  06D4                     l3135:	
  3820                           
  3821                           ;I2C.c: 101:     TRISC4 = 1;
  3822  06D4  1607               	bsf	7,4	;volatile
  3823  06D5                     l3137:	
  3824                           
  3825                           ;I2C.c: 102:     GIE = 1;
  3826  06D5  178B               	bsf	11,7	;volatile
  3827  06D6                     l3139:	
  3828                           
  3829                           ;I2C.c: 103:     PEIE = 1;
  3830  06D6  170B               	bsf	11,6	;volatile
  3831  06D7                     l3141:	
  3832                           
  3833                           ;I2C.c: 104:     SSPIF = 0;
  3834  06D7  1283               	bcf	3,5	;RP0=0, select bank0
  3835  06D8  1303               	bcf	3,6	;RP1=0, select bank0
  3836  06D9  118C               	bcf	12,3	;volatile
  3837  06DA                     l3143:	
  3838                           
  3839                           ;I2C.c: 105:     SSPIE = 1;
  3840  06DA  1683               	bsf	3,5	;RP0=1, select bank1
  3841  06DB  1303               	bcf	3,6	;RP1=0, select bank1
  3842  06DC  158C               	bsf	12,3	;volatile
  3843  06DD                     l243:	
  3844  06DD  0008               	return
  3845  06DE                     __end_of_I2C_Slave_Init:	
  3846                           
  3847                           	psect	text11
  3848  0537                     __ptext11:	
  3849 ;; *************** function _ISR *****************
  3850 ;; Defined at:
  3851 ;;		line 51 in file "Slave_Lou.c"
  3852 ;; Parameters:    Size  Location     Type
  3853 ;;		None
  3854 ;; Auto vars:     Size  Location     Type
  3855 ;;		None
  3856 ;; Return value:  Size  Location     Type
  3857 ;;                  1    wreg      void 
  3858 ;; Registers used:
  3859 ;;		wreg, status,2, status,0
  3860 ;; Tracked objects:
  3861 ;;		On entry : 0/0
  3862 ;;		On exit  : 0/0
  3863 ;;		Unchanged: 0/0
  3864 ;; Data sizes:     COMMON   BANK0   BANK1   BANK3   BANK2
  3865 ;;      Params:         0       0       0       0       0
  3866 ;;      Locals:         0       0       0       0       0
  3867 ;;      Temps:          3       0       0       0       0
  3868 ;;      Totals:         3       0       0       0       0
  3869 ;;Total ram usage:        3 bytes
  3870 ;; Hardware stack levels used:    1
  3871 ;; This function calls:
  3872 ;;		Nothing
  3873 ;; This function is called by:
  3874 ;;		Interrupt level 1
  3875 ;; This function uses a non-reentrant model
  3876 ;;
  3877                           
  3878                           
  3879                           ;psect for function _ISR
  3880  0537                     _ISR:	
  3881  0537                     i1l2411:	
  3882                           
  3883                           ;Slave_Lou.c: 52:     if (ADIF) {
  3884  0537  1283               	bcf	3,5	;RP0=0, select bank0
  3885  0538  1303               	bcf	3,6	;RP1=0, select bank0
  3886  0539  1F0C               	btfss	12,6	;volatile
  3887  053A  2D3C               	goto	u51_21
  3888  053B  2D3D               	goto	u51_20
  3889  053C                     u51_21:	
  3890  053C  2D44               	goto	i1l2417
  3891  053D                     u51_20:	
  3892  053D                     i1l2413:	
  3893                           
  3894                           ;Slave_Lou.c: 53:         Humedad_H = ADRESH ;
  3895  053D  081E               	movf	30,w	;volatile
  3896  053E  00F0               	movwf	??_ISR
  3897  053F  0870               	movf	??_ISR,w
  3898  0540  00F9               	movwf	_Humedad_H
  3899                           
  3900                           ;Slave_Lou.c: 54:         PORTB = Humedad_H;
  3901  0541  0879               	movf	_Humedad_H,w
  3902  0542  0086               	movwf	6	;volatile
  3903  0543                     i1l2415:	
  3904                           
  3905                           ;Slave_Lou.c: 55:         PIR1bits.ADIF = 0;
  3906  0543  130C               	bcf	12,6	;volatile
  3907  0544                     i1l2417:	
  3908                           
  3909                           ;Slave_Lou.c: 59:     if(PIR1bits.SSPIF == 1){
  3910  0544  1D8C               	btfss	12,3	;volatile
  3911  0545  2D47               	goto	u52_21
  3912  0546  2D48               	goto	u52_20
  3913  0547                     u52_21:	
  3914  0547  2DA8               	goto	i1l96
  3915  0548                     u52_20:	
  3916  0548                     i1l2419:	
  3917                           
  3918                           ;Slave_Lou.c: 61:         SSPCONbits.CKP = 0;
  3919  0548  1214               	bcf	20,4	;volatile
  3920                           
  3921                           ;Slave_Lou.c: 63:         if ((SSPCONbits.SSPOV) || (SSPCONbits.WCOL)){
  3922  0549  1B14               	btfsc	20,6	;volatile
  3923  054A  2D4C               	goto	u53_21
  3924  054B  2D4D               	goto	u53_20
  3925  054C                     u53_21:	
  3926  054C  2D51               	goto	i1l2423
  3927  054D                     u53_20:	
  3928  054D                     i1l2421:	
  3929  054D  1F94               	btfss	20,7	;volatile
  3930  054E  2D50               	goto	u54_21
  3931  054F  2D51               	goto	u54_20
  3932  0550                     u54_21:	
  3933  0550  2D58               	goto	i1l2431
  3934  0551                     u54_20:	
  3935  0551                     i1l2423:	
  3936                           
  3937                           ;Slave_Lou.c: 64:             z = SSPBUF;
  3938  0551  0813               	movf	19,w	;volatile
  3939  0552  00F0               	movwf	??_ISR
  3940  0553  0870               	movf	??_ISR,w
  3941  0554  00A6               	movwf	_z
  3942  0555                     i1l2425:	
  3943                           
  3944                           ;Slave_Lou.c: 65:             SSPCONbits.SSPOV = 0;
  3945  0555  1314               	bcf	20,6	;volatile
  3946  0556                     i1l2427:	
  3947                           
  3948                           ;Slave_Lou.c: 66:             SSPCONbits.WCOL = 0;
  3949  0556  1394               	bcf	20,7	;volatile
  3950  0557                     i1l2429:	
  3951                           
  3952                           ;Slave_Lou.c: 67:             SSPCONbits.CKP = 1;
  3953  0557  1614               	bsf	20,4	;volatile
  3954  0558                     i1l2431:	
  3955                           
  3956                           ;Slave_Lou.c: 70:         if(!SSPSTATbits.D_nA && !SSPSTATbits.R_nW) {
  3957  0558  1683               	bsf	3,5	;RP0=1, select bank1
  3958  0559  1303               	bcf	3,6	;RP1=0, select bank1
  3959  055A  1A94               	btfsc	20,5	;volatile
  3960  055B  2D5D               	goto	u55_21
  3961  055C  2D5E               	goto	u55_20
  3962  055D                     u55_21:	
  3963  055D  2D84               	goto	i1l86
  3964  055E                     u55_20:	
  3965  055E                     i1l2433:	
  3966  055E  1914               	btfsc	20,2	;volatile
  3967  055F  2D61               	goto	u56_21
  3968  0560  2D62               	goto	u56_20
  3969  0561                     u56_21:	
  3970  0561  2D84               	goto	i1l86
  3971  0562                     u56_20:	
  3972  0562                     i1l2435:	
  3973                           
  3974                           ;Slave_Lou.c: 72:             z = SSPBUF;
  3975  0562  1283               	bcf	3,5	;RP0=0, select bank0
  3976  0563  1303               	bcf	3,6	;RP1=0, select bank0
  3977  0564  0813               	movf	19,w	;volatile
  3978  0565  00F0               	movwf	??_ISR
  3979  0566  0870               	movf	??_ISR,w
  3980  0567  00A6               	movwf	_z
  3981  0568                     i1l2437:	
  3982                           
  3983                           ;Slave_Lou.c: 74:             PIR1bits.SSPIF = 0;
  3984  0568  118C               	bcf	12,3	;volatile
  3985  0569                     i1l2439:	
  3986                           
  3987                           ;Slave_Lou.c: 75:             SSPCONbits.CKP = 1;
  3988  0569  1614               	bsf	20,4	;volatile
  3989  056A                     i1l87:	
  3990                           ;Slave_Lou.c: 76:             while(!SSPSTATbits.BF);
  3991                           
  3992  056A  1683               	bsf	3,5	;RP0=1, select bank1
  3993  056B  1303               	bcf	3,6	;RP1=0, select bank1
  3994  056C  1C14               	btfss	20,0	;volatile
  3995  056D  2D6F               	goto	u57_21
  3996  056E  2D70               	goto	u57_20
  3997  056F                     u57_21:	
  3998  056F  2D6A               	goto	i1l87
  3999  0570                     u57_20:	
  4000  0570                     i1l2441:	
  4001                           
  4002                           ;Slave_Lou.c: 77:             recibir = SSPBUF;
  4003  0570  1283               	bcf	3,5	;RP0=0, select bank0
  4004  0571  1303               	bcf	3,6	;RP1=0, select bank0
  4005  0572  0813               	movf	19,w	;volatile
  4006  0573  00F0               	movwf	??_ISR
  4007  0574  0870               	movf	??_ISR,w
  4008  0575  00A5               	movwf	_recibir
  4009  0576                     i1l2443:	
  4010                           
  4011                           ;Slave_Lou.c: 79:             if (recibir == 0xF0){
  4012  0576  30F0               	movlw	240
  4013  0577  0625               	xorwf	_recibir,w
  4014  0578  1D03               	btfss	3,2
  4015  0579  2D7B               	goto	u58_21
  4016  057A  2D7C               	goto	u58_20
  4017  057B                     u58_21:	
  4018  057B  2D7E               	goto	i1l2447
  4019  057C                     u58_20:	
  4020  057C                     i1l2445:	
  4021                           
  4022                           ;Slave_Lou.c: 80:                 indicador =1;
  4023  057C  01A4               	clrf	_indicador
  4024  057D  0AA4               	incf	_indicador,f
  4025  057E                     i1l2447:	
  4026                           
  4027                           ;Slave_Lou.c: 82:             _delay((unsigned long)((250)*(1000000/4000000.0))); }
  4028  057E  3014               	movlw	20
  4029  057F  00F0               	movwf	??_ISR
  4030  0580                     u137_27:	
  4031  0580  0BF0               	decfsz	??_ISR,f
  4032  0581  2D80               	goto	u137_27
  4033  0582  0000               	nop
  4034  0583  2DA5               	goto	i1l91
  4035  0584                     i1l86:	
  4036                           ;Slave_Lou.c: 84:         else if(!SSPSTATbits.D_nA && SSPSTATbits.R_nW){
  4037                           
  4038  0584  1A94               	btfsc	20,5	;volatile
  4039  0585  2D87               	goto	u59_21
  4040  0586  2D88               	goto	u59_20
  4041  0587                     u59_21:	
  4042  0587  2DA5               	goto	i1l91
  4043  0588                     u59_20:	
  4044  0588                     i1l2449:	
  4045  0588  1D14               	btfss	20,2	;volatile
  4046  0589  2D8B               	goto	u60_21
  4047  058A  2D8C               	goto	u60_20
  4048  058B                     u60_21:	
  4049  058B  2DA5               	goto	i1l91
  4050  058C                     u60_20:	
  4051  058C                     i1l2451:	
  4052                           
  4053                           ;Slave_Lou.c: 85:             z = SSPBUF;
  4054  058C  1283               	bcf	3,5	;RP0=0, select bank0
  4055  058D  1303               	bcf	3,6	;RP1=0, select bank0
  4056  058E  0813               	movf	19,w	;volatile
  4057  058F  00F0               	movwf	??_ISR
  4058  0590  0870               	movf	??_ISR,w
  4059  0591  00A6               	movwf	_z
  4060  0592                     i1l2453:	
  4061                           
  4062                           ;Slave_Lou.c: 86:             BF = 0;
  4063  0592  1683               	bsf	3,5	;RP0=1, select bank1
  4064  0593  1303               	bcf	3,6	;RP1=0, select bank1
  4065  0594  1014               	bcf	20,0	;volatile
  4066                           
  4067                           ;Slave_Lou.c: 87:             SSPBUF = Humedad_H;
  4068  0595  0879               	movf	_Humedad_H,w
  4069  0596  1283               	bcf	3,5	;RP0=0, select bank0
  4070  0597  1303               	bcf	3,6	;RP1=0, select bank0
  4071  0598  0093               	movwf	19	;volatile
  4072  0599                     i1l2455:	
  4073                           
  4074                           ;Slave_Lou.c: 88:             SSPCONbits.CKP = 1;
  4075  0599  1614               	bsf	20,4	;volatile
  4076                           
  4077                           ;Slave_Lou.c: 89:             _delay((unsigned long)((250)*(1000000/4000000.0)));
  4078  059A  3014               	movlw	20
  4079  059B  00F0               	movwf	??_ISR
  4080  059C                     u138_27:	
  4081  059C  0BF0               	decfsz	??_ISR,f
  4082  059D  2D9C               	goto	u138_27
  4083  059E  0000               	nop
  4084  059F                     i1l93:	
  4085                           ;Slave_Lou.c: 90:             while(SSPSTATbits.BF);
  4086                           
  4087  059F  1683               	bsf	3,5	;RP0=1, select bank1
  4088  05A0  1303               	bcf	3,6	;RP1=0, select bank1
  4089  05A1  1814               	btfsc	20,0	;volatile
  4090  05A2  2DA4               	goto	u61_21
  4091  05A3  2DA5               	goto	u61_20
  4092  05A4                     u61_21:	
  4093  05A4  2D9F               	goto	i1l93
  4094  05A5                     u61_20:	
  4095  05A5                     i1l91:	
  4096                           
  4097                           ;Slave_Lou.c: 93:         PIR1bits.SSPIF = 0;
  4098  05A5  1283               	bcf	3,5	;RP0=0, select bank0
  4099  05A6  1303               	bcf	3,6	;RP1=0, select bank0
  4100  05A7  118C               	bcf	12,3	;volatile
  4101  05A8                     i1l96:	
  4102  05A8  0872               	movf	??_ISR+2,w
  4103  05A9  008A               	movwf	10
  4104  05AA  0E71               	swapf	(??_ISR+1)^(0+4294967168),w
  4105  05AB  0083               	movwf	3
  4106  05AC  0EFE               	swapf	btemp,f
  4107  05AD  0E7E               	swapf	btemp,w
  4108  05AE  0009               	retfie
  4109  05AF                     __end_of_ISR:	
  4110  007E                     btemp	set	126	;btemp
  4111  007E                     wtemp0	set	126
  4112                           
  4113                           	psect	intentry
  4114  0004                     __pintentry:	
  4115                           ;incstack = 0
  4116                           ; Regs used in _ISR: [wreg+status,2+status,0]
  4117                           
  4118  0004                     interrupt_function:	
  4119  007E                     saved_w	set	btemp
  4120  0004  00FE               	movwf	btemp
  4121  0005  0E03               	swapf	3,w
  4122  0006  00F1               	movwf	??_ISR+1
  4123  0007  080A               	movf	10,w
  4124  0008  00F2               	movwf	??_ISR+2
  4125  0009  120A  118A  2D37   	ljmp	_ISR


Data Sizes:
    Strings     0
    Constant    0
    Data        0
    BSS         6
    Persistent  0
    Stack       0

Auto Spaces:
    Space          Size  Autos    Used
    COMMON           14      7      10
    BANK0            80      4       7
    BANK1            80      0       0
    BANK3            96      0       0
    BANK2            96      0       0

Pointer List with Targets:

    None.

Critical Paths under _main in COMMON

    _main->_OSC_config
    _main->_Stepper_CCW
    _main->_Stepper_CW
    _config_PORTS->_OSC_config

Critical Paths under _ISR in COMMON

    None.

Critical Paths under _main in BANK0

    None.

Critical Paths under _ISR in BANK0

    None.

Critical Paths under _main in BANK1

    None.

Critical Paths under _ISR in BANK1

    None.

Critical Paths under _main in BANK3

    None.

Critical Paths under _ISR in BANK3

    None.

Critical Paths under _main in BANK2

    None.

Critical Paths under _ISR in BANK2

    None.

Call Graph Tables:

 ---------------------------------------------------------------------------------
 (Depth) Function   	        Calls       Base Space   Used Autos Params    Refs
 ---------------------------------------------------------------------------------
 (0) _main                                                 4     4      0     825
                                              0 BANK0      4     4      0
                     _I2C_Slave_Init
                         _OSC_config
                      _Servo1_grados
                      _Servo2_grados
                        _Stepper_CCW
                         _Stepper_CW
                         _config_ADC
                       _config_PORTS
                         _init_PWM_1
                         _init_PWM_2
 ---------------------------------------------------------------------------------
 (1) _init_PWM_2                                           0     0      0       0
 ---------------------------------------------------------------------------------
 (1) _init_PWM_1                                           0     0      0       0
 ---------------------------------------------------------------------------------
 (1) _config_PORTS                                         0     0      0     211
                         _OSC_config
 ---------------------------------------------------------------------------------
 (2) _OSC_config                                           4     0      4     211
                                              3 COMMON     4     0      4
 ---------------------------------------------------------------------------------
 (1) _config_ADC                                           0     0      0       0
 ---------------------------------------------------------------------------------
 (1) _Stepper_CW                                           4     2      2     121
                                              3 COMMON     4     2      2
 ---------------------------------------------------------------------------------
 (1) _Stepper_CCW                                          4     2      2     121
                                              3 COMMON     4     2      2
 ---------------------------------------------------------------------------------
 (1) _Servo2_grados                                        3     3      0      31
                                              3 COMMON     3     3      0
 ---------------------------------------------------------------------------------
 (1) _Servo1_grados                                        3     3      0      31
                                              3 COMMON     3     3      0
 ---------------------------------------------------------------------------------
 (1) _I2C_Slave_Init                                       1     1      0      31
                                              3 COMMON     1     1      0
 ---------------------------------------------------------------------------------
 Estimated maximum stack depth 2
 ---------------------------------------------------------------------------------
 (Depth) Function   	        Calls       Base Space   Used Autos Params    Refs
 ---------------------------------------------------------------------------------
 (3) _ISR                                                  3     3      0       0
                                              0 COMMON     3     3      0
 ---------------------------------------------------------------------------------
 Estimated maximum stack depth 3
 ---------------------------------------------------------------------------------

 Call Graph Graphs:

 _main (ROOT)
   _I2C_Slave_Init
   _OSC_config
   _Servo1_grados
   _Servo2_grados
   _Stepper_CCW
   _Stepper_CW
   _config_ADC
   _config_PORTS
     _OSC_config
   _init_PWM_1
   _init_PWM_2

 _ISR (ROOT)

 Address spaces:
Name               Size   Autos  Total    Cost      Usage
BITCOMMON            E      0       0       0        0.0%
EEDATA             100      0       0       0        0.0%
NULL                 0      0       0       0        0.0%
CODE                 0      0       0       0        0.0%
COMMON               E      7       A       1       71.4%
BITSFR0              0      0       0       1        0.0%
SFR0                 0      0       0       1        0.0%
BITSFR1              0      0       0       2        0.0%
SFR1                 0      0       0       2        0.0%
STACK                0      0       0       2        0.0%
ABS                  0      0      11       3        0.0%
BITBANK0            50      0       0       4        0.0%
BITSFR3              0      0       0       4        0.0%
SFR3                 0      0       0       4        0.0%
BANK0               50      4       7       5        8.8%
BITSFR2              0      0       0       5        0.0%
SFR2                 0      0       0       5        0.0%
BITBANK1            50      0       0       6        0.0%
BANK1               50      0       0       7        0.0%
BITBANK3            60      0       0       8        0.0%
BANK3               60      0       0       9        0.0%
BITBANK2            60      0       0      10        0.0%
BANK2               60      0       0      11        0.0%
DATA                 0      0      11      12        0.0%


Microchip Technology PIC Macro Assembler V2.10 build 88905656 
Symbol Table                                                                                   Tue May 05 00:56:21 2020

Stepper_CCW@Step_grados_ccw 0073                           _i 0077                           _z 0026  
               __CFG_CP$OFF 0000                 _SSPSTATbits 0094                          _BF 04A0  
                       l102 0403                         l111 0483                         l108 0449  
                       l301 0603                         l133 0536                         l119 0687  
                       l136 06F6                         l243 06DD                         l165 01F9  
                       l262 06BC                         l270 06A3                         l263 06BB  
                       l271 06A6                         l264 06C0                         l265 06C3  
                       l188 03D8                         l268 069F                         l269 069E  
                       l286 0658                         _GIE 005F                         _RA3 002B  
                       _RA4 002C                         _PR2 0092                __CFG_CPD$OFF 0000  
                       u700 0255                         _ISR 0537                         u701 0254  
                       u710 02A0                         u711 029F                         u720 02EB  
                       u800 01A2                         u721 02EA                         u705 0251  
                       u801 01A1                         u730 0336                         u810 0407  
                       u731 0335                         u715 029C                         u811 0406  
                       u740 0381                         u820 0419                         u741 0380  
                       u725 02E7                         u805 019E                         u821 0418  
                       u750 002B                         u670 06C0                         u830 044D  
                       u735 0332                         u751 002A                         u671 06BF  
                       u831 044C                         u760 0076                         u680 06A3  
                       u840 0460                         u745 037D                         u761 0075  
                       u681 06A2                         u841 045F                         u690 020A  
                       u770 00C1                         u850 0487                         u691 0209  
                       u771 00C0                         u907 0041                         u755 0027  
                       u851 0486                         u780 010C                         u781 010B  
                       u765 0072                         u917 004E                         u845 045C  
                       u790 0157                         u695 0206                         u791 0156  
                       u775 00BD                         u927 005B                         u785 0108  
                       u937 007F                         u795 0153                         u947 008C  
                       u867 0428                         u957 0099                         u877 043C  
                       u967 00A6                         u887 0466                         u977 00CA  
                       u897 0034                         u987 00D7                         u997 00E4  
              __CFG_LVP$OFF 0000                        ?_ISR 0070                        l3101 0688  
                      l3111 0692                        l3103 068B                        l3201 01FA  
                      l3121 0699                        l3113 0693                        l3105 068D  
                      l3131 06C5                        l3203 01FB                        l3123 069A  
                      l3115 0694                        l3107 0690                        l3141 06D7  
                      l3133 06D3                        l3213 0246                        l3205 01FD  
                      l3301 00C2                        l3061 066D                        l3125 069B  
                      l3117 0697                        l3109 0691                        l3143 06DA  
                      l3135 06D4                        l3151 0610                        l3223 0291  
                      l3215 0248                        l3311 010D                        l3071 067D  
                      l3063 0671                        l3055 0659                        l3127 069C  
                      l3119 0698                        l3137 06D5                        l3161 0629  
                      l3153 0615                        l3145 0605                        l3233 02DC  
                      l3225 0293                        l3209 020B                        l3321 0158  
                      l3305 00FD                        l3129 06DE                        l3073 0680  
                      l3065 0674                        l3057 0666                        l3081 06AC  
                      l3139 06D6                        l3163 062E                        l3155 061A  
                      l3147 0606                        l3243 0327                        l3235 02DE  
                      l3219 0256                        l3331 01A3                        l3315 0148  
                      l3307 00FF                        l3075 0683                        l3067 0677  
                      l3059 0669                        l3091 06B5                        l3083 06AF  
                      l3157 061F                        l3149 060B                        l3181 05C0  
                      l3173 05B0                        l3253 0372                        l3245 0329  
                      l3229 02A1                        l3325 0193                        l3317 014A  
                      l3069 067A                        l3093 06B6                        l3085 06B0  
                      l3077 06A7                        l3159 0624                        l3167 0633  
                      l3191 05D9                        l3183 05C5                        l3175 05B1  
                      l3255 0374                        l3239 02EC                        l3263 03BD  
                      l3327 0195                        l3335 01DE                        l3095 06B7  
                      l3087 06B1                        l3079 06AA                        l3351 03F5  
                      l3185 05CA                        l3177 05B6                        l3249 0337  
                      l3281 002C                        l3273 001B                        l3097 06B8  
                      l3089 06B4                        l3361 0419                        l3353 03FA  
                      l3345 03D9                        l3187 05CF                        l3179 05BB  
                      l3195 05DE                        l3259 0382                        l3291 0077  
                      l3275 001C                        l3099 06B9                        l3371 0430  
                      l3363 0422                        l3355 0400                        l3347 03EB  
                      l3189 05D4                        l3285 0067                        l3277 001E  
                      l3381 0453                        l3373 0436                        l3365 042C  
                      l3357 0407                        l3349 03F0                        l3295 00B2  
                      l3287 0069                        l3391 0480                        l3383 0460  
                      l3375 0440                        l3359 0413                        l3297 00B4  
                      l3385 046B                        l3377 0446                        l3387 0474  
                      l3379 044D                        l3389 047A                        l2971 0498  
                      l3861 04F4                        l3853 04CC                        l2981 04BB  
                      l2973 049F                        l2965 048B                        l3863 04FE  
                      l3855 04D6                        l3871 04D1                        l2983 04C0  
                      l2975 04A6                        l2967 048C                        l3865 0508  
                      l3881 0503                        l3857 04E0                        l3873 04DB  
                      l2977 04AD                        l2969 0491                        l2985 04C7  
                      l3891 03C5                        l3867 0512                        l3883 050D  
                      l3859 04EA                        l3875 04E5                        l2979 04B4  
                      l3893 03D3                        l3885 0517                        l3877 04EF  
                      l3869 051C                        l3895 05E6                        l3887 01E6  
                      l3879 04F9                        _ADIF 0066                        l3897 063B  
                      l3889 01F4              ??_config_PORTS 0077                        u1007 00F1  
                      u1017 0115                        u1107 01B8                        u1027 0122  
                      u1117 01C5                        u1037 012F                        u1207 0285  
                      u1127 01D2                        u1047 013C                        u1217 02A9  
                      u1137 0213                        u1057 0160                        u1307 034C  
                      u1227 02B6                        u1147 0220                        u1067 016D  
                      u1317 0359                        u1237 02C3                        u1157 022D  
                      u1077 017A                        u1327 0366                        u1247 02D0  
                      u1167 023A                        u1087 0187                        u1337 038A  
                      u1257 02F4                        u1177 025E                        u1097 01AB  
                      u1347 0397                        u1267 0301                        u1187 026B  
                      u1357 03A4                        u1277 030E                        u1197 0278  
                      u1367 03B1                        u1287 031B                        u1297 033F  
                      _PEIE 005E                        i1l91 05A5                        i1l93 059F  
                      i1l86 0584                        i1l87 056A                        i1l96 05A8  
              __CFG_WRT$OFF 0000                        _main 03D9                        btemp 007E  
                      start 000C               __CFG_IESO$OFF 0000                       ??_ISR 0070  
                     ?_main 0070               __CFG_WDTE$OFF 0000                       _ANSEL 0188  
                     u51_20 053D                       u51_21 053C                       _PORTA 0005  
                     _PORTB 0006                       _PORTD 0008                       _PORTE 0009  
                     u60_20 058C                       u52_20 0548                       u60_21 058B  
                     u52_21 0547                       u61_20 05A5                       u53_20 054D  
                     u61_21 05A4                       u53_21 054C                       u54_20 0551  
                     u54_21 0550                       u55_20 055E                       u55_21 055D  
                     u56_20 0562                       u56_21 0561                       u57_20 0570  
                     u57_21 056F                       _TRISA 0085                       _TRISB 0086  
                     _TRISD 0088                       _SSPIE 0463                       _TRISE 0089  
                     u58_20 057C                       _SSPIF 0063                       u58_21 057B  
                     u59_20 0588                       u59_21 0587              __CFG_FCMEN$OFF 0000  
                     main@i 0022              __CFG_BOREN$OFF 0000                 ?_OSC_config 0073  
                     pclath 000A                       status 0003                       wtemp0 007E  
            __CFG_MCLRE$OFF 0000             __initialization 000F                __end_of_main 048B  
     __end_of_Servo1_grados 0659  Servo1_grados@Servo1_grados 0075       __end_of_Servo2_grados 0604  
                    ??_main 0020                      _ADRESH 001E                      _CCPR1L 0015  
                    _CCPR2L 001B                      _ANSELH 0189                      i1l2411 0537  
                    i1l2421 054D                      i1l2413 053D                      i1l2431 0558  
                    i1l2423 0551                      i1l2415 0543                      i1l2441 0570  
                    i1l2433 055E                      i1l2425 0555                      i1l2417 0544  
                    i1l2451 058C                      i1l2443 0576                      i1l2435 0562  
                    i1l2427 0556                      i1l2419 0548                      i1l2453 0592  
                    i1l2445 057C                      i1l2437 0568                      i1l2429 0557  
                    i1l2455 0599                      i1l2447 057E                      i1l2439 0569  
                    i1l2449 0588                      u137_27 0580                      u138_27 059C  
                    _SSPADD 0093                      _TRISC3 043B                      _TRISC4 043C  
                    _SSPBUF 0013                      _SSPCON 0014              __CFG_PWRTE$OFF 0000  
      __end_of_config_PORTS 0688         __size_of_OSC_config 00AC                      saved_w 007E  
                _Stepper_CW 001B     __end_of__initialization 0017              __pcstackCOMMON 0070  
   __size_of_I2C_Slave_Init 001A               ??_Stepper_CCW 0075       I2C_Slave_Init@address 0073  
                __pbssBANK0 0024                  __pmaintext 03D9                  __pintentry 0004  
      OSC_config@frecuencia 0073                  _config_ADC 06DE                     _SSPCON2 0091  
       __end_of_Stepper_CCW 03D9                     _SSPSTAT 0094                ??_OSC_config 0077  
               ?_Stepper_CW 0073       __size_of_config_PORTS 002F                  _init_PWM_1 06A7  
                _init_PWM_2 0688                     __ptext1 0688                     __ptext2 06A7  
                   __ptext3 0659                     __ptext4 048B                     __ptext5 06DE  
                   __ptext6 001B                     __ptext7 01FA                     __ptext8 05AF  
                   __ptext9 0604          __end_of_OSC_config 0537                __size_of_ISR 0078  
                 _T2CONbits 0012                     _recibir 0025        end_of_initialization 0017  
              _config_PORTS 0659              _I2C_Slave_Init 06C4         __size_of_Stepper_CW 01DF  
                 _PORTEbits 0009                 _Stepper_CCW 01FA                 ?_config_ADC 0070  
                 _TRISCbits 0087      __size_of_Servo1_grados 0055                 _CCP1CONbits 0017  
    __size_of_Servo2_grados 0055                 _CCP2CONbits 001D      __end_of_I2C_Slave_Init 06DE  
               ?_init_PWM_1 0070                 ?_init_PWM_2 0070    Stepper_CW@Step_grados_cw 0073  
       start_initialization 000F                 __end_of_ISR 05AF                   _Humedad_H 0079  
  __CFG_FOSC$INTRC_NOCLKOUT 0000             ?_I2C_Slave_Init 0070         __size_of_config_ADC 0019  
             _Servo1_grados 0604               _Servo2_grados 05AF                 __pbssCOMMON 0077  
                 ___latbits 0002               __pcstackBANK0 0020         __size_of_init_PWM_1 001D  
       __size_of_init_PWM_2 001F                ??_Stepper_CW 0075              ?_Servo1_grados 0070  
            ?_Servo2_grados 0070          __end_of_Stepper_CW 01FA                   _indicador 0024  
         interrupt_function 0004                    _PIE1bits 008C                    _PIR1bits 000C  
                _ADCON0bits 001F                  _ADCON1bits 009F                ?_Stepper_CCW 0073  
              ??_config_ADC 0073                ??_init_PWM_1 0073                ??_init_PWM_2 0073  
        __end_of_config_ADC 06F7             ??_Servo1_grados 0073             ??_Servo2_grados 0073  
Servo2_grados@Servo2_grados 0075                    __ptext10 06C4                    __ptext11 0537  
         __CFG_BOR4V$BOR40V 0000          __end_of_init_PWM_1 06C4          __end_of_init_PWM_2 06A7  
          ??_I2C_Slave_Init 0073               __size_of_main 00B2                  _INTCONbits 000B  
                  intlevel1 0000                  _OSCCONbits 008F        __size_of_Stepper_CCW 01DF  
               _SSPCON2bits 0091                  _OSC_config 048B               ?_config_PORTS 0070  
                _SSPCONbits 0014  
