

Microchip MPLAB XC8 Assembler V2.10 build 88905656 
                                                                                               Tue May 05 00:07:47 2020

Microchip MPLAB XC8 C Compiler v2.10 (Free license) build 20190730164152 Og1 
     1                           	processor	16F887
     2                           	opt	pw 120
     3                           	opt	flic
     4                           	psect	cinit,global,class=CODE,merge=1,delta=2
     5                           	psect	bssCOMMON,global,class=COMMON,space=1,delta=1
     6                           	psect	bssBANK0,global,class=BANK0,space=1,delta=1
     7                           	psect	cstackCOMMON,global,class=COMMON,space=1,delta=1
     8                           	psect	cstackBANK0,global,class=BANK0,space=1,delta=1
     9                           	psect	maintext,global,class=CODE,split=1,delta=2
    10                           	psect	text1,local,class=CODE,merge=1,delta=2
    11                           	psect	text2,local,class=CODE,merge=1,delta=2
    12                           	psect	text3,local,class=CODE,merge=1,delta=2
    13                           	psect	text4,local,class=CODE,merge=1,delta=2
    14                           	psect	text5,local,class=CODE,merge=1,delta=2
    15                           	psect	text6,local,class=CODE,merge=1,delta=2
    16                           	psect	text7,local,class=CODE,merge=1,delta=2
    17                           	psect	text8,local,class=CODE,merge=1,delta=2
    18                           	psect	text9,local,class=CODE,merge=1,delta=2
    19                           	psect	text10,local,class=CODE,merge=1,delta=2
    20                           	psect	text11,local,class=CODE,merge=1,delta=2
    21                           	psect	intentry,global,class=CODE,delta=2
    22                           	dabs	1,0x7E,2
    23  0000                     
    24                           ; Version 2.10
    25                           ; Generated 31/07/2019 GMT
    26                           ; 
    27                           ; Copyright © 2019, Microchip Technology Inc. and its subsidiaries ("Microchip")
    28                           ; All rights reserved.
    29                           ; 
    30                           ; This software is developed by Microchip Technology Inc. and its subsidiaries ("Microch
      +                          ip").
    31                           ; 
    32                           ; Redistribution and use in source and binary forms, with or without modification, are
    33                           ; permitted provided that the following conditions are met:
    34                           ; 
    35                           ;     1. Redistributions of source code must retain the above copyright notice, this lis
      +                          t of
    36                           ;        conditions and the following disclaimer.
    37                           ; 
    38                           ;     2. Redistributions in binary form must reproduce the above copyright notice, this 
      +                          list
    39                           ;        of conditions and the following disclaimer in the documentation and/or other
    40                           ;        materials provided with the distribution.
    41                           ; 
    42                           ;     3. Microchip's name may not be used to endorse or promote products derived from th
      +                          is
    43                           ;        software without specific prior written permission.
    44                           ; 
    45                           ; THIS SOFTWARE IS PROVIDED BY MICROCHIP "AS IS" AND ANY EXPRESS OR IMPLIED WARRANTIES,
    46                           ; INCLUDING, BUT NOT LIMITED TO, THE IMPLIED WARRANTIES OF MERCHANTABILITY AND FITNESS F
      +                          OR
    47                           ; PURPOSE ARE DISCLAIMED.  IN NO EVENT SHALL MICROCHIP BE LIABLE FOR ANY DIRECT, INDIREC
      +                          T,
    48                           ; INCIDENTAL, SPECIAL, EXEMPLARY, OR CONSEQUENTIAL DAMAGES (INCLUDING BUT NOT LIMITED TO
    49                           ; PROCUREMENT OF SUBSTITUTE GOODS OR SERVICES; LOSS OF USE, DATA OR PROFITS; OR BUSINESS
    50                           ; INTERRUPTION) HOWSOEVER CAUSED AND ON ANY THEORY OF LIABILITY, WHETHER IN CONTRACT, ST
      +                          RICT
    51                           ; LIABILITY, OR TORT (INCLUDING NEGLIGENCE OR OTHERWISE) ARISING IN ANY WAY OUT OF THE U
      +                          SE OF
    52                           ; THIS SOFTWARE, EVEN IF ADVISED OF THE POSSIBILITY OF SUCH DAMAGE.
    53                           ; 
    54                           ; 
    55                           ; Code-generator required, PIC16F887 Definitions
    56                           ; 
    57                           ; SFR Addresses
    58  0000                     	;# 
    59  0001                     	;# 
    60  0002                     	;# 
    61  0003                     	;# 
    62  0004                     	;# 
    63  0005                     	;# 
    64  0006                     	;# 
    65  0007                     	;# 
    66  0008                     	;# 
    67  0009                     	;# 
    68  000A                     	;# 
    69  000B                     	;# 
    70  000C                     	;# 
    71  000D                     	;# 
    72  000E                     	;# 
    73  000E                     	;# 
    74  000F                     	;# 
    75  0010                     	;# 
    76  0011                     	;# 
    77  0012                     	;# 
    78  0013                     	;# 
    79  0014                     	;# 
    80  0015                     	;# 
    81  0015                     	;# 
    82  0016                     	;# 
    83  0017                     	;# 
    84  0018                     	;# 
    85  0019                     	;# 
    86  001A                     	;# 
    87  001B                     	;# 
    88  001B                     	;# 
    89  001C                     	;# 
    90  001D                     	;# 
    91  001E                     	;# 
    92  001F                     	;# 
    93  0081                     	;# 
    94  0085                     	;# 
    95  0086                     	;# 
    96  0087                     	;# 
    97  0088                     	;# 
    98  0089                     	;# 
    99  008C                     	;# 
   100  008D                     	;# 
   101  008E                     	;# 
   102  008F                     	;# 
   103  0090                     	;# 
   104  0091                     	;# 
   105  0092                     	;# 
   106  0093                     	;# 
   107  0093                     	;# 
   108  0093                     	;# 
   109  0094                     	;# 
   110  0095                     	;# 
   111  0096                     	;# 
   112  0097                     	;# 
   113  0098                     	;# 
   114  0099                     	;# 
   115  009A                     	;# 
   116  009B                     	;# 
   117  009C                     	;# 
   118  009D                     	;# 
   119  009E                     	;# 
   120  009F                     	;# 
   121  0105                     	;# 
   122  0107                     	;# 
   123  0108                     	;# 
   124  0109                     	;# 
   125  010C                     	;# 
   126  010C                     	;# 
   127  010D                     	;# 
   128  010E                     	;# 
   129  010F                     	;# 
   130  0185                     	;# 
   131  0187                     	;# 
   132  0188                     	;# 
   133  0189                     	;# 
   134  018C                     	;# 
   135  018D                     	;# 
   136  0000                     	;# 
   137  0001                     	;# 
   138  0002                     	;# 
   139  0003                     	;# 
   140  0004                     	;# 
   141  0005                     	;# 
   142  0006                     	;# 
   143  0007                     	;# 
   144  0008                     	;# 
   145  0009                     	;# 
   146  000A                     	;# 
   147  000B                     	;# 
   148  000C                     	;# 
   149  000D                     	;# 
   150  000E                     	;# 
   151  000E                     	;# 
   152  000F                     	;# 
   153  0010                     	;# 
   154  0011                     	;# 
   155  0012                     	;# 
   156  0013                     	;# 
   157  0014                     	;# 
   158  0015                     	;# 
   159  0015                     	;# 
   160  0016                     	;# 
   161  0017                     	;# 
   162  0018                     	;# 
   163  0019                     	;# 
   164  001A                     	;# 
   165  001B                     	;# 
   166  001B                     	;# 
   167  001C                     	;# 
   168  001D                     	;# 
   169  001E                     	;# 
   170  001F                     	;# 
   171  0081                     	;# 
   172  0085                     	;# 
   173  0086                     	;# 
   174  0087                     	;# 
   175  0088                     	;# 
   176  0089                     	;# 
   177  008C                     	;# 
   178  008D                     	;# 
   179  008E                     	;# 
   180  008F                     	;# 
   181  0090                     	;# 
   182  0091                     	;# 
   183  0092                     	;# 
   184  0093                     	;# 
   185  0093                     	;# 
   186  0093                     	;# 
   187  0094                     	;# 
   188  0095                     	;# 
   189  0096                     	;# 
   190  0097                     	;# 
   191  0098                     	;# 
   192  0099                     	;# 
   193  009A                     	;# 
   194  009B                     	;# 
   195  009C                     	;# 
   196  009D                     	;# 
   197  009E                     	;# 
   198  009F                     	;# 
   199  0105                     	;# 
   200  0107                     	;# 
   201  0108                     	;# 
   202  0109                     	;# 
   203  010C                     	;# 
   204  010C                     	;# 
   205  010D                     	;# 
   206  010E                     	;# 
   207  010F                     	;# 
   208  0185                     	;# 
   209  0187                     	;# 
   210  0188                     	;# 
   211  0189                     	;# 
   212  018C                     	;# 
   213  018D                     	;# 
   214  0000                     	;# 
   215  0001                     	;# 
   216  0002                     	;# 
   217  0003                     	;# 
   218  0004                     	;# 
   219  0005                     	;# 
   220  0006                     	;# 
   221  0007                     	;# 
   222  0008                     	;# 
   223  0009                     	;# 
   224  000A                     	;# 
   225  000B                     	;# 
   226  000C                     	;# 
   227  000D                     	;# 
   228  000E                     	;# 
   229  000E                     	;# 
   230  000F                     	;# 
   231  0010                     	;# 
   232  0011                     	;# 
   233  0012                     	;# 
   234  0013                     	;# 
   235  0014                     	;# 
   236  0015                     	;# 
   237  0015                     	;# 
   238  0016                     	;# 
   239  0017                     	;# 
   240  0018                     	;# 
   241  0019                     	;# 
   242  001A                     	;# 
   243  001B                     	;# 
   244  001B                     	;# 
   245  001C                     	;# 
   246  001D                     	;# 
   247  001E                     	;# 
   248  001F                     	;# 
   249  0081                     	;# 
   250  0085                     	;# 
   251  0086                     	;# 
   252  0087                     	;# 
   253  0088                     	;# 
   254  0089                     	;# 
   255  008C                     	;# 
   256  008D                     	;# 
   257  008E                     	;# 
   258  008F                     	;# 
   259  0090                     	;# 
   260  0091                     	;# 
   261  0092                     	;# 
   262  0093                     	;# 
   263  0093                     	;# 
   264  0093                     	;# 
   265  0094                     	;# 
   266  0095                     	;# 
   267  0096                     	;# 
   268  0097                     	;# 
   269  0098                     	;# 
   270  0099                     	;# 
   271  009A                     	;# 
   272  009B                     	;# 
   273  009C                     	;# 
   274  009D                     	;# 
   275  009E                     	;# 
   276  009F                     	;# 
   277  0105                     	;# 
   278  0107                     	;# 
   279  0108                     	;# 
   280  0109                     	;# 
   281  010C                     	;# 
   282  010C                     	;# 
   283  010D                     	;# 
   284  010E                     	;# 
   285  010F                     	;# 
   286  0185                     	;# 
   287  0187                     	;# 
   288  0188                     	;# 
   289  0189                     	;# 
   290  018C                     	;# 
   291  018D                     	;# 
   292  0000                     	;# 
   293  0001                     	;# 
   294  0002                     	;# 
   295  0003                     	;# 
   296  0004                     	;# 
   297  0005                     	;# 
   298  0006                     	;# 
   299  0007                     	;# 
   300  0008                     	;# 
   301  0009                     	;# 
   302  000A                     	;# 
   303  000B                     	;# 
   304  000C                     	;# 
   305  000D                     	;# 
   306  000E                     	;# 
   307  000E                     	;# 
   308  000F                     	;# 
   309  0010                     	;# 
   310  0011                     	;# 
   311  0012                     	;# 
   312  0013                     	;# 
   313  0014                     	;# 
   314  0015                     	;# 
   315  0015                     	;# 
   316  0016                     	;# 
   317  0017                     	;# 
   318  0018                     	;# 
   319  0019                     	;# 
   320  001A                     	;# 
   321  001B                     	;# 
   322  001B                     	;# 
   323  001C                     	;# 
   324  001D                     	;# 
   325  001E                     	;# 
   326  001F                     	;# 
   327  0081                     	;# 
   328  0085                     	;# 
   329  0086                     	;# 
   330  0087                     	;# 
   331  0088                     	;# 
   332  0089                     	;# 
   333  008C                     	;# 
   334  008D                     	;# 
   335  008E                     	;# 
   336  008F                     	;# 
   337  0090                     	;# 
   338  0091                     	;# 
   339  0092                     	;# 
   340  0093                     	;# 
   341  0093                     	;# 
   342  0093                     	;# 
   343  0094                     	;# 
   344  0095                     	;# 
   345  0096                     	;# 
   346  0097                     	;# 
   347  0098                     	;# 
   348  0099                     	;# 
   349  009A                     	;# 
   350  009B                     	;# 
   351  009C                     	;# 
   352  009D                     	;# 
   353  009E                     	;# 
   354  009F                     	;# 
   355  0105                     	;# 
   356  0107                     	;# 
   357  0108                     	;# 
   358  0109                     	;# 
   359  010C                     	;# 
   360  010C                     	;# 
   361  010D                     	;# 
   362  010E                     	;# 
   363  010F                     	;# 
   364  0185                     	;# 
   365  0187                     	;# 
   366  0188                     	;# 
   367  0189                     	;# 
   368  018C                     	;# 
   369  018D                     	;# 
   370  0000                     	;# 
   371  0001                     	;# 
   372  0002                     	;# 
   373  0003                     	;# 
   374  0004                     	;# 
   375  0005                     	;# 
   376  0006                     	;# 
   377  0007                     	;# 
   378  0008                     	;# 
   379  0009                     	;# 
   380  000A                     	;# 
   381  000B                     	;# 
   382  000C                     	;# 
   383  000D                     	;# 
   384  000E                     	;# 
   385  000E                     	;# 
   386  000F                     	;# 
   387  0010                     	;# 
   388  0011                     	;# 
   389  0012                     	;# 
   390  0013                     	;# 
   391  0014                     	;# 
   392  0015                     	;# 
   393  0015                     	;# 
   394  0016                     	;# 
   395  0017                     	;# 
   396  0018                     	;# 
   397  0019                     	;# 
   398  001A                     	;# 
   399  001B                     	;# 
   400  001B                     	;# 
   401  001C                     	;# 
   402  001D                     	;# 
   403  001E                     	;# 
   404  001F                     	;# 
   405  0081                     	;# 
   406  0085                     	;# 
   407  0086                     	;# 
   408  0087                     	;# 
   409  0088                     	;# 
   410  0089                     	;# 
   411  008C                     	;# 
   412  008D                     	;# 
   413  008E                     	;# 
   414  008F                     	;# 
   415  0090                     	;# 
   416  0091                     	;# 
   417  0092                     	;# 
   418  0093                     	;# 
   419  0093                     	;# 
   420  0093                     	;# 
   421  0094                     	;# 
   422  0095                     	;# 
   423  0096                     	;# 
   424  0097                     	;# 
   425  0098                     	;# 
   426  0099                     	;# 
   427  009A                     	;# 
   428  009B                     	;# 
   429  009C                     	;# 
   430  009D                     	;# 
   431  009E                     	;# 
   432  009F                     	;# 
   433  0105                     	;# 
   434  0107                     	;# 
   435  0108                     	;# 
   436  0109                     	;# 
   437  010C                     	;# 
   438  010C                     	;# 
   439  010D                     	;# 
   440  010E                     	;# 
   441  010F                     	;# 
   442  0185                     	;# 
   443  0187                     	;# 
   444  0188                     	;# 
   445  0189                     	;# 
   446  018C                     	;# 
   447  018D                     	;# 
   448  0000                     	;# 
   449  0001                     	;# 
   450  0002                     	;# 
   451  0003                     	;# 
   452  0004                     	;# 
   453  0005                     	;# 
   454  0006                     	;# 
   455  0007                     	;# 
   456  0008                     	;# 
   457  0009                     	;# 
   458  000A                     	;# 
   459  000B                     	;# 
   460  000C                     	;# 
   461  000D                     	;# 
   462  000E                     	;# 
   463  000E                     	;# 
   464  000F                     	;# 
   465  0010                     	;# 
   466  0011                     	;# 
   467  0012                     	;# 
   468  0013                     	;# 
   469  0014                     	;# 
   470  0015                     	;# 
   471  0015                     	;# 
   472  0016                     	;# 
   473  0017                     	;# 
   474  0018                     	;# 
   475  0019                     	;# 
   476  001A                     	;# 
   477  001B                     	;# 
   478  001B                     	;# 
   479  001C                     	;# 
   480  001D                     	;# 
   481  001E                     	;# 
   482  001F                     	;# 
   483  0081                     	;# 
   484  0085                     	;# 
   485  0086                     	;# 
   486  0087                     	;# 
   487  0088                     	;# 
   488  0089                     	;# 
   489  008C                     	;# 
   490  008D                     	;# 
   491  008E                     	;# 
   492  008F                     	;# 
   493  0090                     	;# 
   494  0091                     	;# 
   495  0092                     	;# 
   496  0093                     	;# 
   497  0093                     	;# 
   498  0093                     	;# 
   499  0094                     	;# 
   500  0095                     	;# 
   501  0096                     	;# 
   502  0097                     	;# 
   503  0098                     	;# 
   504  0099                     	;# 
   505  009A                     	;# 
   506  009B                     	;# 
   507  009C                     	;# 
   508  009D                     	;# 
   509  009E                     	;# 
   510  009F                     	;# 
   511  0105                     	;# 
   512  0107                     	;# 
   513  0108                     	;# 
   514  0109                     	;# 
   515  010C                     	;# 
   516  010C                     	;# 
   517  010D                     	;# 
   518  010E                     	;# 
   519  010F                     	;# 
   520  0185                     	;# 
   521  0187                     	;# 
   522  0188                     	;# 
   523  0189                     	;# 
   524  018C                     	;# 
   525  018D                     	;# 
   526  0015                     _CCPR1L	set	21
   527  0017                     _CCP1CONbits	set	23
   528  0012                     _T2CONbits	set	18
   529  001B                     _CCPR2L	set	27
   530  001D                     _CCP2CONbits	set	29
   531  0014                     _SSPCON	set	20
   532  000B                     _INTCONbits	set	11
   533  0009                     _PORTE	set	9
   534  0008                     _PORTD	set	8
   535  0005                     _PORTA	set	5
   536  001F                     _ADCON0bits	set	31
   537  0013                     _SSPBUF	set	19
   538  0014                     _SSPCONbits	set	20
   539  000C                     _PIR1bits	set	12
   540  0006                     _PORTB	set	6
   541  001E                     _ADRESH	set	30
   542  002C                     _RA4	set	44
   543  002B                     _RA3	set	43
   544  0063                     _SSPIF	set	99
   545  005E                     _PEIE	set	94
   546  005F                     _GIE	set	95
   547  0066                     _ADIF	set	102
   548  0092                     _PR2	set	146
   549  0093                     _SSPADD	set	147
   550  0091                     _SSPCON2bits	set	145
   551  0087                     _TRISCbits	set	135
   552  0094                     _SSPSTAT	set	148
   553  0091                     _SSPCON2	set	145
   554  008C                     _PIE1bits	set	140
   555  009F                     _ADCON1bits	set	159
   556  008F                     _OSCCONbits	set	143
   557  0089                     _TRISE	set	137
   558  0088                     _TRISD	set	136
   559  0086                     _TRISB	set	134
   560  0085                     _TRISA	set	133
   561  0094                     _SSPSTATbits	set	148
   562  0463                     _SSPIE	set	1123
   563  043C                     _TRISC4	set	1084
   564  043B                     _TRISC3	set	1083
   565  04A0                     _BF	set	1184
   566  0189                     _ANSELH	set	393
   567  0188                     _ANSEL	set	392
   568                           
   569                           ; #config settings
   570  0000                     
   571                           	psect	cinit
   572  000F                     start_initialization:	
   573  000F                     __initialization:	
   574                           
   575                           ; Clear objects allocated to COMMON
   576  000F  01F7               	clrf	__pbssCOMMON& (0+127)
   577  0010  01F8               	clrf	(__pbssCOMMON+1)& (0+127)
   578  0011  01F9               	clrf	(__pbssCOMMON+2)& (0+127)
   579                           
   580                           ; Clear objects allocated to BANK0
   581  0012  1283               	bcf	3,5	;RP0=0, select bank0
   582  0013  1303               	bcf	3,6	;RP1=0, select bank0
   583  0014  01A4               	clrf	__pbssBANK0& (0+127)
   584  0015  01A5               	clrf	(__pbssBANK0+1)& (0+127)
   585  0016  01A6               	clrf	(__pbssBANK0+2)& (0+127)
   586  0017                     end_of_initialization:	
   587                           ;End of C runtime variable initialization code
   588                           
   589  0017                     __end_of__initialization:	
   590  0017  0183               	clrf	3
   591  0018  120A  118A  2C85   	ljmp	_main	;jump to C main() function
   592                           
   593                           	psect	bssCOMMON
   594  0077                     __pbssCOMMON:	
   595  0077                     _i:	
   596  0077                     	ds	2
   597  0079                     _Humedad_H:	
   598  0079                     	ds	1
   599                           
   600                           	psect	bssBANK0
   601  0024                     __pbssBANK0:	
   602  0024                     _indicador:	
   603  0024                     	ds	1
   604  0025                     _recibir:	
   605  0025                     	ds	1
   606  0026                     _z:	
   607  0026                     	ds	1
   608                           
   609                           	psect	cstackCOMMON
   610  0070                     __pcstackCOMMON:	
   611  0070                     ?_config_PORTS:	
   612  0070                     ?_init_PWM_1:	
   613                           ; 1 bytes @ 0x0
   614                           
   615  0070                     ?_init_PWM_2:	
   616                           ; 1 bytes @ 0x0
   617                           
   618  0070                     ?_config_ADC:	
   619                           ; 1 bytes @ 0x0
   620                           
   621  0070                     ?_I2C_Slave_Init:	
   622                           ; 1 bytes @ 0x0
   623                           
   624  0070                     ?_Servo1_grados:	
   625                           ; 1 bytes @ 0x0
   626                           
   627  0070                     ?_Servo2_grados:	
   628                           ; 1 bytes @ 0x0
   629                           
   630  0070                     ?_ISR:	
   631                           ; 1 bytes @ 0x0
   632                           
   633  0070                     ??_ISR:	
   634                           ; 1 bytes @ 0x0
   635                           
   636  0070                     ?_main:	
   637                           ; 1 bytes @ 0x0
   638                           
   639                           
   640                           ; 1 bytes @ 0x0
   641  0070                     	ds	3
   642  0073                     ?_OSC_config:	
   643  0073                     ??_init_PWM_1:	
   644                           ; 1 bytes @ 0x3
   645                           
   646  0073                     ??_init_PWM_2:	
   647                           ; 1 bytes @ 0x3
   648                           
   649  0073                     ??_config_ADC:	
   650                           ; 1 bytes @ 0x3
   651                           
   652  0073                     ??_I2C_Slave_Init:	
   653                           ; 1 bytes @ 0x3
   654                           
   655  0073                     ??_Servo1_grados:	
   656                           ; 1 bytes @ 0x3
   657                           
   658  0073                     ??_Servo2_grados:	
   659                           ; 1 bytes @ 0x3
   660                           
   661  0073                     ?_Stepper_CCW:	
   662                           ; 1 bytes @ 0x3
   663                           
   664  0073                     ?_Stepper_CW:	
   665                           ; 1 bytes @ 0x3
   666                           
   667  0073                     I2C_Slave_Init@address:	
   668                           ; 1 bytes @ 0x3
   669                           
   670  0073                     Stepper_CW@Step_grados_cw:	
   671                           ; 1 bytes @ 0x3
   672                           
   673  0073                     Stepper_CCW@Step_grados_ccw:	
   674                           ; 2 bytes @ 0x3
   675                           
   676  0073                     OSC_config@frecuencia:	
   677                           ; 2 bytes @ 0x3
   678                           
   679                           
   680                           ; 4 bytes @ 0x3
   681  0073                     	ds	2
   682  0075                     ??_Stepper_CCW:	
   683  0075                     ??_Stepper_CW:	
   684                           ; 1 bytes @ 0x5
   685                           
   686  0075                     Servo1_grados@Servo1_grados:	
   687                           ; 1 bytes @ 0x5
   688                           
   689  0075                     Servo2_grados@Servo2_grados:	
   690                           ; 1 bytes @ 0x5
   691                           
   692                           
   693                           ; 1 bytes @ 0x5
   694  0075                     	ds	2
   695  0077                     ??_OSC_config:	
   696  0077                     ??_config_PORTS:	
   697                           ; 1 bytes @ 0x7
   698                           
   699                           
   700                           	psect	cstackBANK0
   701  0020                     __pcstackBANK0:	
   702                           ; 1 bytes @ 0x7
   703                           
   704  0020                     ??_main:	
   705                           
   706                           ; 1 bytes @ 0x0
   707  0020                     	ds	2
   708  0022                     main@i:	
   709                           
   710                           ; 2 bytes @ 0x2
   711  0022                     	ds	2
   712                           
   713                           	psect	maintext
   714  0485                     __pmaintext:	
   715 ;;
   716 ;;Main: autosize = 0, tempsize = 2, incstack = 0, save=0
   717 ;;
   718 ;; *************** function _main *****************
   719 ;; Defined at:
   720 ;;		line 101 in file "Slave_Lou.c"
   721 ;; Parameters:    Size  Location     Type
   722 ;;		None
   723 ;; Auto vars:     Size  Location     Type
   724 ;;  i               2    2[BANK0 ] int 
   725 ;; Return value:  Size  Location     Type
   726 ;;                  1    wreg      void 
   727 ;; Registers used:
   728 ;;		wreg, fsr0l, fsr0h, status,2, status,0, btemp+1, pclath, cstack
   729 ;; Tracked objects:
   730 ;;		On entry : B00/0
   731 ;;		On exit  : 0/0
   732 ;;		Unchanged: 0/0
   733 ;; Data sizes:     COMMON   BANK0   BANK1   BANK3   BANK2
   734 ;;      Params:         0       0       0       0       0
   735 ;;      Locals:         0       2       0       0       0
   736 ;;      Temps:          0       2       0       0       0
   737 ;;      Totals:         0       4       0       0       0
   738 ;;Total ram usage:        4 bytes
   739 ;; Hardware stack levels required when called:    3
   740 ;; This function calls:
   741 ;;		_I2C_Slave_Init
   742 ;;		_OSC_config
   743 ;;		_Servo1_grados
   744 ;;		_Servo2_grados
   745 ;;		_Stepper_CCW
   746 ;;		_Stepper_CW
   747 ;;		_config_ADC
   748 ;;		_config_PORTS
   749 ;;		_init_PWM_1
   750 ;;		_init_PWM_2
   751 ;; This function is called by:
   752 ;;		Startup code after reset
   753 ;; This function uses a non-reentrant model
   754 ;;
   755                           
   756                           
   757                           ;psect for function _main
   758  0485                     _main:	
   759  0485                     l3329:	
   760                           ;incstack = 0
   761                           ; Regs used in _main: [wreg-fsr0h+status,2+status,0+btemp+1+pclath+cstack]
   762                           
   763                           
   764                           ;Slave_Lou.c: 102:     OSC_config(1000000);
   765  0485  3000               	movlw	0
   766  0486  00F6               	movwf	OSC_config@frecuencia+3
   767  0487  300F               	movlw	15
   768  0488  00F5               	movwf	OSC_config@frecuencia+2
   769  0489  3042               	movlw	66
   770  048A  00F4               	movwf	OSC_config@frecuencia+1
   771  048B  3040               	movlw	64
   772  048C  00F3               	movwf	OSC_config@frecuencia
   773  048D  120A  118A  23D9  120A  118A  	fcall	_OSC_config
   774                           
   775                           ;Slave_Lou.c: 103:     config_PORTS();
   776  0492  120A  118A  2643  120A  118A  	fcall	_config_PORTS
   777  0497                     l3331:	
   778                           
   779                           ;Slave_Lou.c: 104:     init_PWM_1();
   780  0497  120A  118A  2691  120A  118A  	fcall	_init_PWM_1
   781  049C                     l3333:	
   782                           
   783                           ;Slave_Lou.c: 105:     init_PWM_2();
   784  049C  120A  118A  2672  120A  118A  	fcall	_init_PWM_2
   785  04A1                     l3335:	
   786                           
   787                           ;Slave_Lou.c: 106:     config_ADC();
   788  04A1  120A  118A  26C8  120A  118A  	fcall	_config_ADC
   789  04A6                     l3337:	
   790                           
   791                           ;Slave_Lou.c: 107:     I2C_Slave_Init(0x20);
   792  04A6  3020               	movlw	32
   793  04A7  120A  118A  26AE  120A  118A  	fcall	_I2C_Slave_Init
   794  04AC                     l3339:	
   795                           
   796                           ;Slave_Lou.c: 112:         Servo1_grados(0);
   797  04AC  3000               	movlw	0
   798  04AD  120A  118A  25EE  120A  118A  	fcall	_Servo1_grados
   799  04B2                     l3341:	
   800                           
   801                           ;Slave_Lou.c: 113:         Servo2_grados(0);
   802  04B2  3000               	movlw	0
   803  04B3  120A  118A  2599  120A  118A  	fcall	_Servo2_grados
   804  04B8                     l3343:	
   805                           
   806                           ;Slave_Lou.c: 115:         if(indicador == 1){
   807  04B8  1283               	bcf	3,5	;RP0=0, select bank0
   808  04B9  1303               	bcf	3,6	;RP1=0, select bank0
   809  04BA  0324               	decf	_indicador,w
   810  04BB  1D03               	btfss	3,2
   811  04BC  2CBE               	goto	u771
   812  04BD  2CBF               	goto	u770
   813  04BE                     u771:	
   814  04BE  2CAC               	goto	l3339
   815  04BF                     u770:	
   816  04BF                     l3345:	
   817                           
   818                           ;Slave_Lou.c: 116:             Stepper_CCW(90);
   819  04BF  305A               	movlw	90
   820  04C0  00F3               	movwf	Stepper_CCW@Step_grados_ccw
   821  04C1  3000               	movlw	0
   822  04C2  00F4               	movwf	Stepper_CCW@Step_grados_ccw+1
   823  04C3  120A  118A  21FA  120A  118A  	fcall	_Stepper_CCW
   824  04C8                     l3347:	
   825                           
   826                           ;Slave_Lou.c: 117:             _delay((unsigned long)((10)*(1000000/4000.0)));
   827  04C8  3004               	movlw	4
   828  04C9  1283               	bcf	3,5	;RP0=0, select bank0
   829  04CA  1303               	bcf	3,6	;RP1=0, select bank0
   830  04CB  00A1               	movwf	??_main+1
   831  04CC  303D               	movlw	61
   832  04CD  00A0               	movwf	??_main
   833  04CE                     u807:	
   834  04CE  0BA0               	decfsz	??_main,f
   835  04CF  2CCE               	goto	u807
   836  04D0  0BA1               	decfsz	??_main+1,f
   837  04D1  2CCE               	goto	u807
   838  04D2                     l3349:	
   839                           
   840                           ;Slave_Lou.c: 118:             for (int i = 0; i<60; i++){
   841  04D2  1283               	bcf	3,5	;RP0=0, select bank0
   842  04D3  1303               	bcf	3,6	;RP1=0, select bank0
   843  04D4  01A2               	clrf	main@i
   844  04D5  01A3               	clrf	main@i+1
   845  04D6                     l3355:	
   846                           
   847                           ;Slave_Lou.c: 119:                 Servo1_grados(45);
   848  04D6  302D               	movlw	45
   849  04D7  120A  118A  25EE  120A  118A  	fcall	_Servo1_grados
   850  04DC                     l3357:	
   851                           
   852                           ;Slave_Lou.c: 120:                 _delay((unsigned long)((10)*(1000000/4000.0)));
   853  04DC  3004               	movlw	4
   854  04DD  1283               	bcf	3,5	;RP0=0, select bank0
   855  04DE  1303               	bcf	3,6	;RP1=0, select bank0
   856  04DF  00A1               	movwf	??_main+1
   857  04E0  303D               	movlw	61
   858  04E1  00A0               	movwf	??_main
   859  04E2                     u817:	
   860  04E2  0BA0               	decfsz	??_main,f
   861  04E3  2CE2               	goto	u817
   862  04E4  0BA1               	decfsz	??_main+1,f
   863  04E5  2CE2               	goto	u817
   864  04E6                     l3359:	
   865                           
   866                           ;Slave_Lou.c: 121:                 Servo2_grados(180);
   867  04E6  30B4               	movlw	180
   868  04E7  120A  118A  2599  120A  118A  	fcall	_Servo2_grados
   869  04EC                     l3361:	
   870                           
   871                           ;Slave_Lou.c: 122:                 ADCON0bits.GO = 1;
   872  04EC  1283               	bcf	3,5	;RP0=0, select bank0
   873  04ED  1303               	bcf	3,6	;RP1=0, select bank0
   874  04EE  149F               	bsf	31,1	;volatile
   875  04EF                     l103:	
   876                           ;Slave_Lou.c: 124:                 }
   877                           
   878                           
   879                           ;Slave_Lou.c: 123:                 while(ADCON0bits.GO == 1){
   880  04EF  189F               	btfsc	31,1	;volatile
   881  04F0  2CF2               	goto	u781
   882  04F1  2CF3               	goto	u780
   883  04F2                     u781:	
   884  04F2  2CEF               	goto	l103
   885  04F3                     u780:	
   886  04F3                     l3363:	
   887                           
   888                           ;Slave_Lou.c: 125:             }
   889  04F3  3001               	movlw	1
   890  04F4  07A2               	addwf	main@i,f
   891  04F5  1803               	skipnc
   892  04F6  0AA3               	incf	main@i+1,f
   893  04F7  3000               	movlw	0
   894  04F8  07A3               	addwf	main@i+1,f
   895  04F9                     l3365:	
   896  04F9  0823               	movf	main@i+1,w
   897  04FA  3A80               	xorlw	128
   898  04FB  00FF               	movwf	btemp+1
   899  04FC  3080               	movlw	128
   900  04FD  027F               	subwf	btemp+1,w
   901  04FE  1D03               	skipz
   902  04FF  2D02               	goto	u795
   903  0500  303C               	movlw	60
   904  0501  0222               	subwf	main@i,w
   905  0502                     u795:	
   906  0502  1C03               	skipc
   907  0503  2D05               	goto	u791
   908  0504  2D06               	goto	u790
   909  0505                     u791:	
   910  0505  2CD6               	goto	l3355
   911  0506                     u790:	
   912  0506                     l3367:	
   913                           
   914                           ;Slave_Lou.c: 126:             _delay((unsigned long)((500)*(1000000/4000.0)));
   915  0506  30A3               	movlw	163
   916  0507  1283               	bcf	3,5	;RP0=0, select bank0
   917  0508  1303               	bcf	3,6	;RP1=0, select bank0
   918  0509  00A1               	movwf	??_main+1
   919  050A  3054               	movlw	84
   920  050B  00A0               	movwf	??_main
   921  050C                     u827:	
   922  050C  0BA0               	decfsz	??_main,f
   923  050D  2D0C               	goto	u827
   924  050E  0BA1               	decfsz	??_main+1,f
   925  050F  2D0C               	goto	u827
   926  0510  0000               	nop
   927  0511                     l3369:	
   928                           
   929                           ;Slave_Lou.c: 127:             Stepper_CW(90);
   930  0511  305A               	movlw	90
   931  0512  00F3               	movwf	Stepper_CW@Step_grados_cw
   932  0513  3000               	movlw	0
   933  0514  00F4               	movwf	Stepper_CW@Step_grados_cw+1
   934  0515  120A  118A  201B  120A  118A  	fcall	_Stepper_CW
   935  051A                     l3371:	
   936                           
   937                           ;Slave_Lou.c: 128:             indicador = 0;
   938  051A  1283               	bcf	3,5	;RP0=0, select bank0
   939  051B  1303               	bcf	3,6	;RP1=0, select bank0
   940  051C  01A4               	clrf	_indicador
   941  051D  2CAC               	goto	l3339
   942  051E  120A  118A  280C   	ljmp	start
   943  0521                     __end_of_main:	
   944                           
   945                           	psect	text1
   946  0672                     __ptext1:	
   947 ;; *************** function _init_PWM_2 *****************
   948 ;; Defined at:
   949 ;;		line 42 in file "PWMs.c"
   950 ;; Parameters:    Size  Location     Type
   951 ;;		None
   952 ;; Auto vars:     Size  Location     Type
   953 ;;		None
   954 ;; Return value:  Size  Location     Type
   955 ;;                  1    wreg      void 
   956 ;; Registers used:
   957 ;;		wreg
   958 ;; Tracked objects:
   959 ;;		On entry : 0/0
   960 ;;		On exit  : 0/0
   961 ;;		Unchanged: 0/0
   962 ;; Data sizes:     COMMON   BANK0   BANK1   BANK3   BANK2
   963 ;;      Params:         0       0       0       0       0
   964 ;;      Locals:         0       0       0       0       0
   965 ;;      Temps:          0       0       0       0       0
   966 ;;      Totals:         0       0       0       0       0
   967 ;;Total ram usage:        0 bytes
   968 ;; Hardware stack levels used:    1
   969 ;; Hardware stack levels required when called:    1
   970 ;; This function calls:
   971 ;;		Nothing
   972 ;; This function is called by:
   973 ;;		_main
   974 ;; This function uses a non-reentrant model
   975 ;;
   976                           
   977                           
   978                           ;psect for function _init_PWM_2
   979  0672                     _init_PWM_2:	
   980  0672                     l3085:	
   981                           ;incstack = 0
   982                           ; Regs used in _init_PWM_2: [wreg]
   983                           
   984                           
   985                           ;PWMs.c: 43:     TRISCbits.TRISC2 = 1;
   986  0672  1683               	bsf	3,5	;RP0=1, select bank1
   987  0673  1303               	bcf	3,6	;RP1=0, select bank1
   988  0674  1507               	bsf	7,2	;volatile
   989  0675                     l3087:	
   990                           
   991                           ;PWMs.c: 45:     PR2 = 200;
   992  0675  30C8               	movlw	200
   993  0676  0092               	movwf	18	;volatile
   994  0677                     l3089:	
   995                           
   996                           ;PWMs.c: 47:     CCP1CONbits.CCP1M3 = 1;
   997  0677  1283               	bcf	3,5	;RP0=0, select bank0
   998  0678  1303               	bcf	3,6	;RP1=0, select bank0
   999  0679  1597               	bsf	23,3	;volatile
  1000  067A                     l3091:	
  1001                           
  1002                           ;PWMs.c: 48:     CCP1CONbits.CCP1M2 = 1;
  1003  067A  1517               	bsf	23,2	;volatile
  1004  067B                     l3093:	
  1005                           
  1006                           ;PWMs.c: 49:     CCP1CONbits.CCP1M1 = 0;
  1007  067B  1097               	bcf	23,1	;volatile
  1008  067C                     l3095:	
  1009                           
  1010                           ;PWMs.c: 50:     CCP1CONbits.CCP1M0 = 0;
  1011  067C  1017               	bcf	23,0	;volatile
  1012  067D                     l3097:	
  1013                           
  1014                           ;PWMs.c: 52:     CCP1CONbits.P1M1 = 0;
  1015  067D  1397               	bcf	23,7	;volatile
  1016  067E                     l3099:	
  1017                           
  1018                           ;PWMs.c: 53:     CCP1CONbits.P1M0 = 0;
  1019  067E  1317               	bcf	23,6	;volatile
  1020                           
  1021                           ;PWMs.c: 56:     CCPR2L = 0b00011011;
  1022  067F  301B               	movlw	27
  1023  0680  009B               	movwf	27	;volatile
  1024  0681                     l3101:	
  1025                           
  1026                           ;PWMs.c: 57:     CCP1CONbits.DC1B0 = 1;
  1027  0681  1617               	bsf	23,4	;volatile
  1028  0682                     l3103:	
  1029                           
  1030                           ;PWMs.c: 58:     CCP1CONbits.DC1B1 = 1;
  1031  0682  1697               	bsf	23,5	;volatile
  1032  0683                     l3105:	
  1033                           
  1034                           ;PWMs.c: 60:     PIR1bits.TMR2IF = 0;
  1035  0683  108C               	bcf	12,1	;volatile
  1036  0684                     l3107:	
  1037                           
  1038                           ;PWMs.c: 61:     T2CONbits.T2CKPS1 = 1;
  1039  0684  1492               	bsf	18,1	;volatile
  1040  0685                     l3109:	
  1041                           
  1042                           ;PWMs.c: 62:     T2CONbits.T2CKPS0 = 1;
  1043  0685  1412               	bsf	18,0	;volatile
  1044  0686                     l3111:	
  1045                           
  1046                           ;PWMs.c: 64:     T2CONbits.TMR2ON = 1;
  1047  0686  1512               	bsf	18,2	;volatile
  1048                           
  1049                           ;PWMs.c: 66:     while(PIR1bits.TMR2IF == 1){
  1050  0687  2E89               	goto	l260
  1051  0688                     l261:	
  1052                           
  1053                           ;PWMs.c: 67:         PIR1bits.TMR2IF = 0;
  1054  0688  108C               	bcf	12,1	;volatile
  1055  0689                     l260:	
  1056                           ;PWMs.c: 68:     }
  1057                           
  1058                           
  1059                           ;PWMs.c: 66:     while(PIR1bits.TMR2IF == 1){
  1060  0689  188C               	btfsc	12,1	;volatile
  1061  068A  2E8C               	goto	u641
  1062  068B  2E8D               	goto	u640
  1063  068C                     u641:	
  1064  068C  2E88               	goto	l261
  1065  068D                     u640:	
  1066  068D                     l262:	
  1067                           
  1068                           ;PWMs.c: 70:     TRISCbits.TRISC2 = 0;
  1069  068D  1683               	bsf	3,5	;RP0=1, select bank1
  1070  068E  1303               	bcf	3,6	;RP1=0, select bank1
  1071  068F  1107               	bcf	7,2	;volatile
  1072  0690                     l263:	
  1073  0690  0008               	return
  1074  0691                     __end_of_init_PWM_2:	
  1075                           
  1076                           	psect	text2
  1077  0691                     __ptext2:	
  1078 ;; *************** function _init_PWM_1 *****************
  1079 ;; Defined at:
  1080 ;;		line 14 in file "PWMs.c"
  1081 ;; Parameters:    Size  Location     Type
  1082 ;;		None
  1083 ;; Auto vars:     Size  Location     Type
  1084 ;;		None
  1085 ;; Return value:  Size  Location     Type
  1086 ;;                  1    wreg      void 
  1087 ;; Registers used:
  1088 ;;		wreg
  1089 ;; Tracked objects:
  1090 ;;		On entry : 0/0
  1091 ;;		On exit  : 0/0
  1092 ;;		Unchanged: 0/0
  1093 ;; Data sizes:     COMMON   BANK0   BANK1   BANK3   BANK2
  1094 ;;      Params:         0       0       0       0       0
  1095 ;;      Locals:         0       0       0       0       0
  1096 ;;      Temps:          0       0       0       0       0
  1097 ;;      Totals:         0       0       0       0       0
  1098 ;;Total ram usage:        0 bytes
  1099 ;; Hardware stack levels used:    1
  1100 ;; Hardware stack levels required when called:    1
  1101 ;; This function calls:
  1102 ;;		Nothing
  1103 ;; This function is called by:
  1104 ;;		_main
  1105 ;; This function uses a non-reentrant model
  1106 ;;
  1107                           
  1108                           
  1109                           ;psect for function _init_PWM_1
  1110  0691                     _init_PWM_1:	
  1111  0691                     l3061:	
  1112                           ;incstack = 0
  1113                           ; Regs used in _init_PWM_1: [wreg]
  1114                           
  1115                           
  1116                           ;PWMs.c: 15:     TRISCbits.TRISC1 = 1;
  1117  0691  1683               	bsf	3,5	;RP0=1, select bank1
  1118  0692  1303               	bcf	3,6	;RP1=0, select bank1
  1119  0693  1487               	bsf	7,1	;volatile
  1120  0694                     l3063:	
  1121                           
  1122                           ;PWMs.c: 17:     PR2 = 200;
  1123  0694  30C8               	movlw	200
  1124  0695  0092               	movwf	18	;volatile
  1125  0696                     l3065:	
  1126                           
  1127                           ;PWMs.c: 19:     CCP2CONbits.CCP2M3 = 1;
  1128  0696  1283               	bcf	3,5	;RP0=0, select bank0
  1129  0697  1303               	bcf	3,6	;RP1=0, select bank0
  1130  0698  159D               	bsf	29,3	;volatile
  1131  0699                     l3067:	
  1132                           
  1133                           ;PWMs.c: 20:     CCP2CONbits.CCP2M2 = 1;
  1134  0699  151D               	bsf	29,2	;volatile
  1135  069A                     l3069:	
  1136                           
  1137                           ;PWMs.c: 21:     CCP2CONbits.CCP2M1 = 1;
  1138  069A  149D               	bsf	29,1	;volatile
  1139  069B                     l3071:	
  1140                           
  1141                           ;PWMs.c: 22:     CCP2CONbits.CCP2M0 = 1;
  1142  069B  141D               	bsf	29,0	;volatile
  1143                           
  1144                           ;PWMs.c: 25:     CCPR2L = 0b00011011;
  1145  069C  301B               	movlw	27
  1146  069D  009B               	movwf	27	;volatile
  1147  069E                     l3073:	
  1148                           
  1149                           ;PWMs.c: 26:     CCP2CONbits.DC2B0 = 1;
  1150  069E  161D               	bsf	29,4	;volatile
  1151  069F                     l3075:	
  1152                           
  1153                           ;PWMs.c: 27:     CCP2CONbits.DC2B1 = 1;
  1154  069F  169D               	bsf	29,5	;volatile
  1155  06A0                     l3077:	
  1156                           
  1157                           ;PWMs.c: 29:     PIR1bits.TMR2IF = 0;
  1158  06A0  108C               	bcf	12,1	;volatile
  1159  06A1                     l3079:	
  1160                           
  1161                           ;PWMs.c: 30:     T2CONbits.T2CKPS1 = 1;
  1162  06A1  1492               	bsf	18,1	;volatile
  1163  06A2                     l3081:	
  1164                           
  1165                           ;PWMs.c: 31:     T2CONbits.T2CKPS0 = 1;
  1166  06A2  1412               	bsf	18,0	;volatile
  1167  06A3                     l3083:	
  1168                           
  1169                           ;PWMs.c: 33:     T2CONbits.TMR2ON = 1;
  1170  06A3  1512               	bsf	18,2	;volatile
  1171                           
  1172                           ;PWMs.c: 35:     while(PIR1bits.TMR2IF == 1){
  1173  06A4  2EA6               	goto	l254
  1174  06A5                     l255:	
  1175                           
  1176                           ;PWMs.c: 36:         PIR1bits.TMR2IF = 0;
  1177  06A5  108C               	bcf	12,1	;volatile
  1178  06A6                     l254:	
  1179                           ;PWMs.c: 37:     }
  1180                           
  1181                           
  1182                           ;PWMs.c: 35:     while(PIR1bits.TMR2IF == 1){
  1183  06A6  188C               	btfsc	12,1	;volatile
  1184  06A7  2EA9               	goto	u631
  1185  06A8  2EAA               	goto	u630
  1186  06A9                     u631:	
  1187  06A9  2EA5               	goto	l255
  1188  06AA                     u630:	
  1189  06AA                     l256:	
  1190                           
  1191                           ;PWMs.c: 39:     TRISCbits.TRISC1 = 0;
  1192  06AA  1683               	bsf	3,5	;RP0=1, select bank1
  1193  06AB  1303               	bcf	3,6	;RP1=0, select bank1
  1194  06AC  1087               	bcf	7,1	;volatile
  1195  06AD                     l257:	
  1196  06AD  0008               	return
  1197  06AE                     __end_of_init_PWM_1:	
  1198                           
  1199                           	psect	text3
  1200  0643                     __ptext3:	
  1201 ;; *************** function _config_PORTS *****************
  1202 ;; Defined at:
  1203 ;;		line 136 in file "Slave_Lou.c"
  1204 ;; Parameters:    Size  Location     Type
  1205 ;;		None
  1206 ;; Auto vars:     Size  Location     Type
  1207 ;;		None
  1208 ;; Return value:  Size  Location     Type
  1209 ;;                  1    wreg      void 
  1210 ;; Registers used:
  1211 ;;		wreg, fsr0l, fsr0h, status,2, status,0, pclath, cstack
  1212 ;; Tracked objects:
  1213 ;;		On entry : 0/0
  1214 ;;		On exit  : 0/0
  1215 ;;		Unchanged: 0/0
  1216 ;; Data sizes:     COMMON   BANK0   BANK1   BANK3   BANK2
  1217 ;;      Params:         0       0       0       0       0
  1218 ;;      Locals:         0       0       0       0       0
  1219 ;;      Temps:          0       0       0       0       0
  1220 ;;      Totals:         0       0       0       0       0
  1221 ;;Total ram usage:        0 bytes
  1222 ;; Hardware stack levels used:    1
  1223 ;; Hardware stack levels required when called:    2
  1224 ;; This function calls:
  1225 ;;		_OSC_config
  1226 ;; This function is called by:
  1227 ;;		_main
  1228 ;; This function uses a non-reentrant model
  1229 ;;
  1230                           
  1231                           
  1232                           ;psect for function _config_PORTS
  1233  0643                     _config_PORTS:	
  1234  0643                     l3039:	
  1235                           ;incstack = 0
  1236                           ; Regs used in _config_PORTS: [wreg-fsr0h+status,2+status,0+pclath+cstack]
  1237                           
  1238                           
  1239                           ;Slave_Lou.c: 137:     OSC_config(1000000);
  1240  0643  3000               	movlw	0
  1241  0644  00F6               	movwf	OSC_config@frecuencia+3
  1242  0645  300F               	movlw	15
  1243  0646  00F5               	movwf	OSC_config@frecuencia+2
  1244  0647  3042               	movlw	66
  1245  0648  00F4               	movwf	OSC_config@frecuencia+1
  1246  0649  3040               	movlw	64
  1247  064A  00F3               	movwf	OSC_config@frecuencia
  1248  064B  120A  118A  23D9  120A  118A  	fcall	_OSC_config
  1249  0650                     l3041:	
  1250                           
  1251                           ;Slave_Lou.c: 139:     PORTA = 0;
  1252  0650  1283               	bcf	3,5	;RP0=0, select bank0
  1253  0651  1303               	bcf	3,6	;RP1=0, select bank0
  1254  0652  0185               	clrf	5	;volatile
  1255  0653                     l3043:	
  1256                           
  1257                           ;Slave_Lou.c: 140:     TRISA = 0b00000001;
  1258  0653  3001               	movlw	1
  1259  0654  1683               	bsf	3,5	;RP0=1, select bank1
  1260  0655  1303               	bcf	3,6	;RP1=0, select bank1
  1261  0656  0085               	movwf	5	;volatile
  1262  0657                     l3045:	
  1263                           
  1264                           ;Slave_Lou.c: 141:     ANSEL = 0b00000001;
  1265  0657  3001               	movlw	1
  1266  0658  1683               	bsf	3,5	;RP0=1, select bank3
  1267  0659  1703               	bsf	3,6	;RP1=1, select bank3
  1268  065A  0088               	movwf	8	;volatile
  1269  065B                     l3047:	
  1270                           
  1271                           ;Slave_Lou.c: 143:     PORTB = 0;
  1272  065B  1283               	bcf	3,5	;RP0=0, select bank0
  1273  065C  1303               	bcf	3,6	;RP1=0, select bank0
  1274  065D  0186               	clrf	6	;volatile
  1275  065E                     l3049:	
  1276                           
  1277                           ;Slave_Lou.c: 144:     TRISB = 0x00;
  1278  065E  1683               	bsf	3,5	;RP0=1, select bank1
  1279  065F  1303               	bcf	3,6	;RP1=0, select bank1
  1280  0660  0186               	clrf	6	;volatile
  1281  0661                     l3051:	
  1282                           
  1283                           ;Slave_Lou.c: 145:     ANSELH = 0;
  1284  0661  1683               	bsf	3,5	;RP0=1, select bank3
  1285  0662  1703               	bsf	3,6	;RP1=1, select bank3
  1286  0663  0189               	clrf	9	;volatile
  1287  0664                     l3053:	
  1288                           
  1289                           ;Slave_Lou.c: 147:     PORTD = 0;
  1290  0664  1283               	bcf	3,5	;RP0=0, select bank0
  1291  0665  1303               	bcf	3,6	;RP1=0, select bank0
  1292  0666  0188               	clrf	8	;volatile
  1293  0667                     l3055:	
  1294                           
  1295                           ;Slave_Lou.c: 148:     TRISD = 0x00;
  1296  0667  1683               	bsf	3,5	;RP0=1, select bank1
  1297  0668  1303               	bcf	3,6	;RP1=0, select bank1
  1298  0669  0188               	clrf	8	;volatile
  1299  066A                     l3057:	
  1300                           
  1301                           ;Slave_Lou.c: 150:     PORTE = 0;
  1302  066A  1283               	bcf	3,5	;RP0=0, select bank0
  1303  066B  1303               	bcf	3,6	;RP1=0, select bank0
  1304  066C  0189               	clrf	9	;volatile
  1305  066D                     l3059:	
  1306                           
  1307                           ;Slave_Lou.c: 151:     TRISE = 0b1111;
  1308  066D  300F               	movlw	15
  1309  066E  1683               	bsf	3,5	;RP0=1, select bank1
  1310  066F  1303               	bcf	3,6	;RP1=0, select bank1
  1311  0670  0089               	movwf	9	;volatile
  1312  0671                     l111:	
  1313  0671  0008               	return
  1314  0672                     __end_of_config_PORTS:	
  1315                           
  1316                           	psect	text4
  1317  03D9                     __ptext4:	
  1318 ;; *************** function _OSC_config *****************
  1319 ;; Defined at:
  1320 ;;		line 155 in file "Slave_Lou.c"
  1321 ;; Parameters:    Size  Location     Type
  1322 ;;  frecuencia      4    3[COMMON] unsigned long 
  1323 ;; Auto vars:     Size  Location     Type
  1324 ;;		None
  1325 ;; Return value:  Size  Location     Type
  1326 ;;                  1    wreg      void 
  1327 ;; Registers used:
  1328 ;;		wreg, fsr0l, fsr0h, status,2, status,0
  1329 ;; Tracked objects:
  1330 ;;		On entry : 0/0
  1331 ;;		On exit  : 0/0
  1332 ;;		Unchanged: 0/0
  1333 ;; Data sizes:     COMMON   BANK0   BANK1   BANK3   BANK2
  1334 ;;      Params:         4       0       0       0       0
  1335 ;;      Locals:         0       0       0       0       0
  1336 ;;      Temps:          0       0       0       0       0
  1337 ;;      Totals:         4       0       0       0       0
  1338 ;;Total ram usage:        4 bytes
  1339 ;; Hardware stack levels used:    1
  1340 ;; Hardware stack levels required when called:    1
  1341 ;; This function calls:
  1342 ;;		Nothing
  1343 ;; This function is called by:
  1344 ;;		_main
  1345 ;;		_config_PORTS
  1346 ;; This function uses a non-reentrant model
  1347 ;;
  1348                           
  1349                           
  1350                           ;psect for function _OSC_config
  1351  03D9                     _OSC_config:	
  1352  03D9                     l2949:	
  1353                           ;incstack = 0
  1354                           ; Regs used in _OSC_config: [wreg-fsr0h+status,2+status,0]
  1355                           
  1356                           
  1357                           ;Slave_Lou.c: 156:     switch(frecuencia){
  1358  03D9  2C15               	goto	l2969
  1359  03DA                     l2951:	
  1360                           
  1361                           ;Slave_Lou.c: 158:             OSCCONbits.IRCF = 0b111;
  1362  03DA  3070               	movlw	112
  1363  03DB  1683               	bsf	3,5	;RP0=1, select bank1
  1364  03DC  1303               	bcf	3,6	;RP1=0, select bank1
  1365  03DD  048F               	iorwf	15,f	;volatile
  1366                           
  1367                           ;Slave_Lou.c: 159:             break;
  1368  03DE  2C84               	goto	l125
  1369  03DF                     l2953:	
  1370                           
  1371                           ;Slave_Lou.c: 161:             OSCCONbits.IRCF = 0b110;
  1372  03DF  1683               	bsf	3,5	;RP0=1, select bank1
  1373  03E0  1303               	bcf	3,6	;RP1=0, select bank1
  1374  03E1  080F               	movf	15,w	;volatile
  1375  03E2  398F               	andlw	-113
  1376  03E3  3860               	iorlw	96
  1377  03E4  008F               	movwf	15	;volatile
  1378                           
  1379                           ;Slave_Lou.c: 162:             break;
  1380  03E5  2C84               	goto	l125
  1381  03E6                     l2955:	
  1382                           
  1383                           ;Slave_Lou.c: 164:             OSCCONbits.IRCF = 0b101;
  1384  03E6  1683               	bsf	3,5	;RP0=1, select bank1
  1385  03E7  1303               	bcf	3,6	;RP1=0, select bank1
  1386  03E8  080F               	movf	15,w	;volatile
  1387  03E9  398F               	andlw	-113
  1388  03EA  3850               	iorlw	80
  1389  03EB  008F               	movwf	15	;volatile
  1390                           
  1391                           ;Slave_Lou.c: 165:             break;
  1392  03EC  2C84               	goto	l125
  1393  03ED                     l2957:	
  1394                           
  1395                           ;Slave_Lou.c: 167:             OSCCONbits.IRCF = 0b100;
  1396  03ED  1683               	bsf	3,5	;RP0=1, select bank1
  1397  03EE  1303               	bcf	3,6	;RP1=0, select bank1
  1398  03EF  080F               	movf	15,w	;volatile
  1399  03F0  398F               	andlw	-113
  1400  03F1  3840               	iorlw	64
  1401  03F2  008F               	movwf	15	;volatile
  1402                           
  1403                           ;Slave_Lou.c: 168:             break;
  1404  03F3  2C84               	goto	l125
  1405  03F4                     l2959:	
  1406                           
  1407                           ;Slave_Lou.c: 170:             OSCCONbits.IRCF = 0b011;
  1408  03F4  1683               	bsf	3,5	;RP0=1, select bank1
  1409  03F5  1303               	bcf	3,6	;RP1=0, select bank1
  1410  03F6  080F               	movf	15,w	;volatile
  1411  03F7  398F               	andlw	-113
  1412  03F8  3830               	iorlw	48
  1413  03F9  008F               	movwf	15	;volatile
  1414                           
  1415                           ;Slave_Lou.c: 171:             break;
  1416  03FA  2C84               	goto	l125
  1417  03FB                     l2961:	
  1418                           
  1419                           ;Slave_Lou.c: 173:             OSCCONbits.IRCF = 0b010;
  1420  03FB  1683               	bsf	3,5	;RP0=1, select bank1
  1421  03FC  1303               	bcf	3,6	;RP1=0, select bank1
  1422  03FD  080F               	movf	15,w	;volatile
  1423  03FE  398F               	andlw	-113
  1424  03FF  3820               	iorlw	32
  1425  0400  008F               	movwf	15	;volatile
  1426                           
  1427                           ;Slave_Lou.c: 174:             break;
  1428  0401  2C84               	goto	l125
  1429  0402                     l2963:	
  1430                           
  1431                           ;Slave_Lou.c: 176:             OSCCONbits.IRCF = 0b001;
  1432  0402  1683               	bsf	3,5	;RP0=1, select bank1
  1433  0403  1303               	bcf	3,6	;RP1=0, select bank1
  1434  0404  080F               	movf	15,w	;volatile
  1435  0405  398F               	andlw	-113
  1436  0406  3810               	iorlw	16
  1437  0407  008F               	movwf	15	;volatile
  1438                           
  1439                           ;Slave_Lou.c: 177:             break;
  1440  0408  2C84               	goto	l125
  1441  0409                     l2965:	
  1442                           
  1443                           ;Slave_Lou.c: 179:             OSCCONbits.IRCF = 0b000;
  1444  0409  308F               	movlw	-113
  1445  040A  1683               	bsf	3,5	;RP0=1, select bank1
  1446  040B  1303               	bcf	3,6	;RP1=0, select bank1
  1447  040C  058F               	andwf	15,f	;volatile
  1448                           
  1449                           ;Slave_Lou.c: 180:             break;
  1450  040D  2C84               	goto	l125
  1451  040E                     l2967:	
  1452                           
  1453                           ;Slave_Lou.c: 182:             OSCCONbits.IRCF = 0b110;
  1454  040E  1683               	bsf	3,5	;RP0=1, select bank1
  1455  040F  1303               	bcf	3,6	;RP1=0, select bank1
  1456  0410  080F               	movf	15,w	;volatile
  1457  0411  398F               	andlw	-113
  1458  0412  3860               	iorlw	96
  1459  0413  008F               	movwf	15	;volatile
  1460                           
  1461                           ;Slave_Lou.c: 183:     }
  1462  0414  2C84               	goto	l125
  1463  0415                     l2969:	
  1464                           
  1465                           ; Switch on 2 bytes has been partitioned into a top level switch of size 1, and 9 sub-sw
      +                          itches
  1466                           ; Switch size 1, requested type "simple"
  1467                           ; Number of cases is 1, Range of values is 0 to 0
  1468                           ; switch strategies available:
  1469                           ; Name         Instructions Cycles
  1470                           ; simple_byte            4     3 (average)
  1471                           ; direct_byte           11     8 (fixed)
  1472                           ; jumptable            260     6 (fixed)
  1473                           ;	Chosen strategy is simple_byte
  1474  0415  0876               	movf	OSC_config@frecuencia+3,w
  1475  0416  3A00               	xorlw	0	; case 0
  1476  0417  1903               	skipnz
  1477  0418  2C6A               	goto	l3849
  1478  0419  2C0E               	goto	l2967
  1479  041A                     l3833:	
  1480                           
  1481                           ; Switch on 2 bytes has been partitioned into a top level switch of size 1, and 1 sub-sw
      +                          itches
  1482                           ; Switch size 1, requested type "simple"
  1483                           ; Number of cases is 1, Range of values is 125 to 125
  1484                           ; switch strategies available:
  1485                           ; Name         Instructions Cycles
  1486                           ; simple_byte            4     3 (average)
  1487                           ; direct_byte           14    11 (fixed)
  1488                           ; jumptable            263     9 (fixed)
  1489                           ;	Chosen strategy is simple_byte
  1490  041A  0874               	movf	OSC_config@frecuencia+1,w
  1491  041B  3A7D               	xorlw	125	; case 125
  1492  041C  1903               	skipnz
  1493  041D  2C1F               	goto	l3851
  1494  041E  2C0E               	goto	l2967
  1495  041F                     l3851:	
  1496                           
  1497                           ; Switch size 1, requested type "simple"
  1498                           ; Number of cases is 1, Range of values is 0 to 0
  1499                           ; switch strategies available:
  1500                           ; Name         Instructions Cycles
  1501                           ; simple_byte            4     3 (average)
  1502                           ; direct_byte           11     8 (fixed)
  1503                           ; jumptable            260     6 (fixed)
  1504                           ;	Chosen strategy is simple_byte
  1505  041F  0873               	movf	OSC_config@frecuencia,w
  1506  0420  3A00               	xorlw	0	; case 0
  1507  0421  1903               	skipnz
  1508  0422  2C09               	goto	l2965
  1509  0423  2C0E               	goto	l2967
  1510  0424                     l3835:	
  1511                           
  1512                           ; Switch on 2 bytes has been partitioned into a top level switch of size 1, and 1 sub-sw
      +                          itches
  1513                           ; Switch size 1, requested type "simple"
  1514                           ; Number of cases is 1, Range of values is 232 to 232
  1515                           ; switch strategies available:
  1516                           ; Name         Instructions Cycles
  1517                           ; simple_byte            4     3 (average)
  1518                           ; direct_byte           14    11 (fixed)
  1519                           ; jumptable            263     9 (fixed)
  1520                           ;	Chosen strategy is simple_byte
  1521  0424  0874               	movf	OSC_config@frecuencia+1,w
  1522  0425  3AE8               	xorlw	232	; case 232
  1523  0426  1903               	skipnz
  1524  0427  2C29               	goto	l3853
  1525  0428  2C0E               	goto	l2967
  1526  0429                     l3853:	
  1527                           
  1528                           ; Switch size 1, requested type "simple"
  1529                           ; Number of cases is 1, Range of values is 72 to 72
  1530                           ; switch strategies available:
  1531                           ; Name         Instructions Cycles
  1532                           ; simple_byte            4     3 (average)
  1533                           ; direct_byte           14    11 (fixed)
  1534                           ; jumptable            263     9 (fixed)
  1535                           ;	Chosen strategy is simple_byte
  1536  0429  0873               	movf	OSC_config@frecuencia,w
  1537  042A  3A48               	xorlw	72	; case 72
  1538  042B  1903               	skipnz
  1539  042C  2C02               	goto	l2963
  1540  042D  2C0E               	goto	l2967
  1541  042E                     l3837:	
  1542                           
  1543                           ; Switch on 2 bytes has been partitioned into a top level switch of size 1, and 1 sub-sw
      +                          itches
  1544                           ; Switch size 1, requested type "simple"
  1545                           ; Number of cases is 1, Range of values is 208 to 208
  1546                           ; switch strategies available:
  1547                           ; Name         Instructions Cycles
  1548                           ; simple_byte            4     3 (average)
  1549                           ; direct_byte           14    11 (fixed)
  1550                           ; jumptable            263     9 (fixed)
  1551                           ;	Chosen strategy is simple_byte
  1552  042E  0874               	movf	OSC_config@frecuencia+1,w
  1553  042F  3AD0               	xorlw	208	; case 208
  1554  0430  1903               	skipnz
  1555  0431  2C33               	goto	l3855
  1556  0432  2C0E               	goto	l2967
  1557  0433                     l3855:	
  1558                           
  1559                           ; Switch size 1, requested type "simple"
  1560                           ; Number of cases is 1, Range of values is 144 to 144
  1561                           ; switch strategies available:
  1562                           ; Name         Instructions Cycles
  1563                           ; simple_byte            4     3 (average)
  1564                           ; direct_byte           14    11 (fixed)
  1565                           ; jumptable            263     9 (fixed)
  1566                           ;	Chosen strategy is simple_byte
  1567  0433  0873               	movf	OSC_config@frecuencia,w
  1568  0434  3A90               	xorlw	144	; case 144
  1569  0435  1903               	skipnz
  1570  0436  2BFB               	goto	l2961
  1571  0437  2C0E               	goto	l2967
  1572  0438                     l3839:	
  1573                           
  1574                           ; Switch on 2 bytes has been partitioned into a top level switch of size 1, and 1 sub-sw
      +                          itches
  1575                           ; Switch size 1, requested type "simple"
  1576                           ; Number of cases is 1, Range of values is 161 to 161
  1577                           ; switch strategies available:
  1578                           ; Name         Instructions Cycles
  1579                           ; simple_byte            4     3 (average)
  1580                           ; direct_byte           14    11 (fixed)
  1581                           ; jumptable            263     9 (fixed)
  1582                           ;	Chosen strategy is simple_byte
  1583  0438  0874               	movf	OSC_config@frecuencia+1,w
  1584  0439  3AA1               	xorlw	161	; case 161
  1585  043A  1903               	skipnz
  1586  043B  2C3D               	goto	l3857
  1587  043C  2C0E               	goto	l2967
  1588  043D                     l3857:	
  1589                           
  1590                           ; Switch size 1, requested type "simple"
  1591                           ; Number of cases is 1, Range of values is 32 to 32
  1592                           ; switch strategies available:
  1593                           ; Name         Instructions Cycles
  1594                           ; simple_byte            4     3 (average)
  1595                           ; direct_byte           14    11 (fixed)
  1596                           ; jumptable            263     9 (fixed)
  1597                           ;	Chosen strategy is simple_byte
  1598  043D  0873               	movf	OSC_config@frecuencia,w
  1599  043E  3A20               	xorlw	32	; case 32
  1600  043F  1903               	skipnz
  1601  0440  2BF4               	goto	l2959
  1602  0441  2C0E               	goto	l2967
  1603  0442                     l3841:	
  1604                           
  1605                           ; Switch on 2 bytes has been partitioned into a top level switch of size 1, and 1 sub-sw
      +                          itches
  1606                           ; Switch size 1, requested type "simple"
  1607                           ; Number of cases is 1, Range of values is 66 to 66
  1608                           ; switch strategies available:
  1609                           ; Name         Instructions Cycles
  1610                           ; simple_byte            4     3 (average)
  1611                           ; direct_byte           14    11 (fixed)
  1612                           ; jumptable            263     9 (fixed)
  1613                           ;	Chosen strategy is simple_byte
  1614  0442  0874               	movf	OSC_config@frecuencia+1,w
  1615  0443  3A42               	xorlw	66	; case 66
  1616  0444  1903               	skipnz
  1617  0445  2C47               	goto	l3859
  1618  0446  2C0E               	goto	l2967
  1619  0447                     l3859:	
  1620                           
  1621                           ; Switch size 1, requested type "simple"
  1622                           ; Number of cases is 1, Range of values is 64 to 64
  1623                           ; switch strategies available:
  1624                           ; Name         Instructions Cycles
  1625                           ; simple_byte            4     3 (average)
  1626                           ; direct_byte           14    11 (fixed)
  1627                           ; jumptable            263     9 (fixed)
  1628                           ;	Chosen strategy is simple_byte
  1629  0447  0873               	movf	OSC_config@frecuencia,w
  1630  0448  3A40               	xorlw	64	; case 64
  1631  0449  1903               	skipnz
  1632  044A  2BED               	goto	l2957
  1633  044B  2C0E               	goto	l2967
  1634  044C                     l3843:	
  1635                           
  1636                           ; Switch on 2 bytes has been partitioned into a top level switch of size 1, and 1 sub-sw
      +                          itches
  1637                           ; Switch size 1, requested type "simple"
  1638                           ; Number of cases is 1, Range of values is 132 to 132
  1639                           ; switch strategies available:
  1640                           ; Name         Instructions Cycles
  1641                           ; simple_byte            4     3 (average)
  1642                           ; direct_byte           14    11 (fixed)
  1643                           ; jumptable            263     9 (fixed)
  1644                           ;	Chosen strategy is simple_byte
  1645  044C  0874               	movf	OSC_config@frecuencia+1,w
  1646  044D  3A84               	xorlw	132	; case 132
  1647  044E  1903               	skipnz
  1648  044F  2C51               	goto	l3861
  1649  0450  2C0E               	goto	l2967
  1650  0451                     l3861:	
  1651                           
  1652                           ; Switch size 1, requested type "simple"
  1653                           ; Number of cases is 1, Range of values is 128 to 128
  1654                           ; switch strategies available:
  1655                           ; Name         Instructions Cycles
  1656                           ; simple_byte            4     3 (average)
  1657                           ; direct_byte           14    11 (fixed)
  1658                           ; jumptable            263     9 (fixed)
  1659                           ;	Chosen strategy is simple_byte
  1660  0451  0873               	movf	OSC_config@frecuencia,w
  1661  0452  3A80               	xorlw	128	; case 128
  1662  0453  1903               	skipnz
  1663  0454  2BE6               	goto	l2955
  1664  0455  2C0E               	goto	l2967
  1665  0456                     l3845:	
  1666                           
  1667                           ; Switch on 2 bytes has been partitioned into a top level switch of size 1, and 1 sub-sw
      +                          itches
  1668                           ; Switch size 1, requested type "simple"
  1669                           ; Number of cases is 1, Range of values is 9 to 9
  1670                           ; switch strategies available:
  1671                           ; Name         Instructions Cycles
  1672                           ; simple_byte            4     3 (average)
  1673                           ; direct_byte           14    11 (fixed)
  1674                           ; jumptable            263     9 (fixed)
  1675                           ;	Chosen strategy is simple_byte
  1676  0456  0874               	movf	OSC_config@frecuencia+1,w
  1677  0457  3A09               	xorlw	9	; case 9
  1678  0458  1903               	skipnz
  1679  0459  2C5B               	goto	l3863
  1680  045A  2C0E               	goto	l2967
  1681  045B                     l3863:	
  1682                           
  1683                           ; Switch size 1, requested type "simple"
  1684                           ; Number of cases is 1, Range of values is 0 to 0
  1685                           ; switch strategies available:
  1686                           ; Name         Instructions Cycles
  1687                           ; simple_byte            4     3 (average)
  1688                           ; direct_byte           11     8 (fixed)
  1689                           ; jumptable            260     6 (fixed)
  1690                           ;	Chosen strategy is simple_byte
  1691  045B  0873               	movf	OSC_config@frecuencia,w
  1692  045C  3A00               	xorlw	0	; case 0
  1693  045D  1903               	skipnz
  1694  045E  2BDF               	goto	l2953
  1695  045F  2C0E               	goto	l2967
  1696  0460                     l3847:	
  1697                           
  1698                           ; Switch on 2 bytes has been partitioned into a top level switch of size 1, and 1 sub-sw
      +                          itches
  1699                           ; Switch size 1, requested type "simple"
  1700                           ; Number of cases is 1, Range of values is 18 to 18
  1701                           ; switch strategies available:
  1702                           ; Name         Instructions Cycles
  1703                           ; simple_byte            4     3 (average)
  1704                           ; direct_byte           14    11 (fixed)
  1705                           ; jumptable            263     9 (fixed)
  1706                           ;	Chosen strategy is simple_byte
  1707  0460  0874               	movf	OSC_config@frecuencia+1,w
  1708  0461  3A12               	xorlw	18	; case 18
  1709  0462  1903               	skipnz
  1710  0463  2C65               	goto	l3865
  1711  0464  2C0E               	goto	l2967
  1712  0465                     l3865:	
  1713                           
  1714                           ; Switch size 1, requested type "simple"
  1715                           ; Number of cases is 1, Range of values is 0 to 0
  1716                           ; switch strategies available:
  1717                           ; Name         Instructions Cycles
  1718                           ; simple_byte            4     3 (average)
  1719                           ; direct_byte           11     8 (fixed)
  1720                           ; jumptable            260     6 (fixed)
  1721                           ;	Chosen strategy is simple_byte
  1722  0465  0873               	movf	OSC_config@frecuencia,w
  1723  0466  3A00               	xorlw	0	; case 0
  1724  0467  1903               	skipnz
  1725  0468  2BDA               	goto	l2951
  1726  0469  2C0E               	goto	l2967
  1727  046A                     l3849:	
  1728                           
  1729                           ; Switch size 1, requested type "simple"
  1730                           ; Number of cases is 8, Range of values is 0 to 122
  1731                           ; switch strategies available:
  1732                           ; Name         Instructions Cycles
  1733                           ; simple_byte           25    13 (average)
  1734                           ; jumptable            260     6 (fixed)
  1735                           ;	Chosen strategy is simple_byte
  1736  046A  0875               	movf	OSC_config@frecuencia+2,w
  1737  046B  3A00               	xorlw	0	; case 0
  1738  046C  1903               	skipnz
  1739  046D  2C1A               	goto	l3833
  1740  046E  3A01               	xorlw	1	; case 1
  1741  046F  1903               	skipnz
  1742  0470  2C24               	goto	l3835
  1743  0471  3A02               	xorlw	2	; case 3
  1744  0472  1903               	skipnz
  1745  0473  2C2E               	goto	l3837
  1746  0474  3A04               	xorlw	4	; case 7
  1747  0475  1903               	skipnz
  1748  0476  2C38               	goto	l3839
  1749  0477  3A08               	xorlw	8	; case 15
  1750  0478  1903               	skipnz
  1751  0479  2C42               	goto	l3841
  1752  047A  3A11               	xorlw	17	; case 30
  1753  047B  1903               	skipnz
  1754  047C  2C4C               	goto	l3843
  1755  047D  3A23               	xorlw	35	; case 61
  1756  047E  1903               	skipnz
  1757  047F  2C56               	goto	l3845
  1758  0480  3A47               	xorlw	71	; case 122
  1759  0481  1903               	skipnz
  1760  0482  2C60               	goto	l3847
  1761  0483  2C0E               	goto	l2967
  1762  0484                     l125:	
  1763  0484  0008               	return
  1764  0485                     __end_of_OSC_config:	
  1765                           
  1766                           	psect	text5
  1767  06C8                     __ptext5:	
  1768 ;; *************** function _config_ADC *****************
  1769 ;; Defined at:
  1770 ;;		line 186 in file "Slave_Lou.c"
  1771 ;; Parameters:    Size  Location     Type
  1772 ;;		None
  1773 ;; Auto vars:     Size  Location     Type
  1774 ;;		None
  1775 ;; Return value:  Size  Location     Type
  1776 ;;                  1    wreg      void 
  1777 ;; Registers used:
  1778 ;;		None
  1779 ;; Tracked objects:
  1780 ;;		On entry : 0/0
  1781 ;;		On exit  : 0/0
  1782 ;;		Unchanged: 0/0
  1783 ;; Data sizes:     COMMON   BANK0   BANK1   BANK3   BANK2
  1784 ;;      Params:         0       0       0       0       0
  1785 ;;      Locals:         0       0       0       0       0
  1786 ;;      Temps:          0       0       0       0       0
  1787 ;;      Totals:         0       0       0       0       0
  1788 ;;Total ram usage:        0 bytes
  1789 ;; Hardware stack levels used:    1
  1790 ;; Hardware stack levels required when called:    1
  1791 ;; This function calls:
  1792 ;;		Nothing
  1793 ;; This function is called by:
  1794 ;;		_main
  1795 ;; This function uses a non-reentrant model
  1796 ;;
  1797                           
  1798                           
  1799                           ;psect for function _config_ADC
  1800  06C8                     _config_ADC:	
  1801  06C8                     l3113:	
  1802                           ;incstack = 0
  1803                           ; Regs used in _config_ADC: []
  1804                           
  1805                           
  1806                           ;Slave_Lou.c: 191:     ADCON0bits.CHS0 = 0;
  1807  06C8  1283               	bcf	3,5	;RP0=0, select bank0
  1808  06C9  1303               	bcf	3,6	;RP1=0, select bank0
  1809  06CA  111F               	bcf	31,2	;volatile
  1810                           
  1811                           ;Slave_Lou.c: 192:     ADCON0bits.CHS0 = 0;
  1812  06CB  111F               	bcf	31,2	;volatile
  1813                           
  1814                           ;Slave_Lou.c: 193:     ADCON0bits.CHS0 = 0;
  1815  06CC  111F               	bcf	31,2	;volatile
  1816                           
  1817                           ;Slave_Lou.c: 194:     ADCON0bits.CHS0 = 0;
  1818  06CD  111F               	bcf	31,2	;volatile
  1819                           
  1820                           ;Slave_Lou.c: 196:     ADCON1bits.ADFM = 0;
  1821  06CE  1683               	bsf	3,5	;RP0=1, select bank1
  1822  06CF  1303               	bcf	3,6	;RP1=0, select bank1
  1823  06D0  139F               	bcf	31,7	;volatile
  1824                           
  1825                           ;Slave_Lou.c: 197:     ADCON1bits.VCFG0 = 0;
  1826  06D1  121F               	bcf	31,4	;volatile
  1827                           
  1828                           ;Slave_Lou.c: 198:     ADCON1bits.VCFG1 = 0;
  1829  06D2  129F               	bcf	31,5	;volatile
  1830                           
  1831                           ;Slave_Lou.c: 200:     ADCON0bits.ADCS1 = 0;
  1832  06D3  1283               	bcf	3,5	;RP0=0, select bank0
  1833  06D4  1303               	bcf	3,6	;RP1=0, select bank0
  1834  06D5  139F               	bcf	31,7	;volatile
  1835                           
  1836                           ;Slave_Lou.c: 201:     ADCON0bits.ADCS0 = 0;
  1837  06D6  131F               	bcf	31,6	;volatile
  1838                           
  1839                           ;Slave_Lou.c: 204:     INTCONbits.GIE = 1;
  1840  06D7  178B               	bsf	11,7	;volatile
  1841                           
  1842                           ;Slave_Lou.c: 205:     INTCONbits.PEIE = 1;
  1843  06D8  170B               	bsf	11,6	;volatile
  1844                           
  1845                           ;Slave_Lou.c: 206:     PIE1bits.ADIE = 1;
  1846  06D9  1683               	bsf	3,5	;RP0=1, select bank1
  1847  06DA  1303               	bcf	3,6	;RP1=0, select bank1
  1848  06DB  170C               	bsf	12,6	;volatile
  1849                           
  1850                           ;Slave_Lou.c: 207:     PIR1bits.ADIF = 0;
  1851  06DC  1283               	bcf	3,5	;RP0=0, select bank0
  1852  06DD  1303               	bcf	3,6	;RP1=0, select bank0
  1853  06DE  130C               	bcf	12,6	;volatile
  1854                           
  1855                           ;Slave_Lou.c: 209:     ADCON0bits.ADON = 1;
  1856  06DF  141F               	bsf	31,0	;volatile
  1857  06E0                     l128:	
  1858  06E0  0008               	return
  1859  06E1                     __end_of_config_ADC:	
  1860                           
  1861                           	psect	text6
  1862  001B                     __ptext6:	
  1863 ;; *************** function _Stepper_CW *****************
  1864 ;; Defined at:
  1865 ;;		line 14 in file "STEPPER_MITSUMI.c"
  1866 ;; Parameters:    Size  Location     Type
  1867 ;;  Step_grados_    2    3[COMMON] unsigned int 
  1868 ;; Auto vars:     Size  Location     Type
  1869 ;;		None
  1870 ;; Return value:  Size  Location     Type
  1871 ;;                  1    wreg      void 
  1872 ;; Registers used:
  1873 ;;		wreg, fsr0l, fsr0h, status,2, status,0, btemp+1
  1874 ;; Tracked objects:
  1875 ;;		On entry : 0/0
  1876 ;;		On exit  : 0/0
  1877 ;;		Unchanged: 0/0
  1878 ;; Data sizes:     COMMON   BANK0   BANK1   BANK3   BANK2
  1879 ;;      Params:         2       0       0       0       0
  1880 ;;      Locals:         0       0       0       0       0
  1881 ;;      Temps:          2       0       0       0       0
  1882 ;;      Totals:         4       0       0       0       0
  1883 ;;Total ram usage:        4 bytes
  1884 ;; Hardware stack levels used:    1
  1885 ;; Hardware stack levels required when called:    1
  1886 ;; This function calls:
  1887 ;;		Nothing
  1888 ;; This function is called by:
  1889 ;;		_main
  1890 ;; This function uses a non-reentrant model
  1891 ;;
  1892                           
  1893                           
  1894                           ;psect for function _Stepper_CW
  1895  001B                     _Stepper_CW:	
  1896  001B                     l3257:	
  1897                           ;incstack = 0
  1898                           ; Regs used in _Stepper_CW: [wreg-fsr0h+status,2+status,0+btemp+1]
  1899                           
  1900                           
  1901                           ;STEPPER_MITSUMI.c: 15:     switch(Step_grados_cw){
  1902  001B  29DE               	goto	l3319
  1903  001C                     l3259:	
  1904                           
  1905                           ;STEPPER_MITSUMI.c: 17:             for(i=0; i<25; i++){
  1906  001C  01F7               	clrf	_i
  1907  001D  01F8               	clrf	_i+1
  1908  001E                     l3261:	
  1909  001E  0878               	movf	_i+1,w
  1910  001F  3A80               	xorlw	128
  1911  0020  00FF               	movwf	btemp+1
  1912  0021  3080               	movlw	128
  1913  0022  027F               	subwf	btemp+1,w
  1914  0023  1D03               	skipz
  1915  0024  2827               	goto	u715
  1916  0025  3019               	movlw	25
  1917  0026  0277               	subwf	_i,w
  1918  0027                     u715:	
  1919  0027  1C03               	skipc
  1920  0028  282A               	goto	u711
  1921  0029  282B               	goto	u710
  1922  002A                     u711:	
  1923  002A  282C               	goto	l3265
  1924  002B                     u710:	
  1925  002B  29F9               	goto	l157
  1926  002C                     l3265:	
  1927                           
  1928                           ;STEPPER_MITSUMI.c: 18:                     PORTD = 0b1010;
  1929  002C  300A               	movlw	10
  1930  002D  1283               	bcf	3,5	;RP0=0, select bank0
  1931  002E  1303               	bcf	3,6	;RP1=0, select bank0
  1932  002F  0088               	movwf	8	;volatile
  1933                           
  1934                           ;STEPPER_MITSUMI.c: 19:                     _delay((unsigned long)((10)*(4000000/4000.0)
      +                          ));
  1935  0030  300D               	movlw	13
  1936  0031  00F6               	movwf	??_Stepper_CW+1
  1937  0032  30FB               	movlw	251
  1938  0033  00F5               	movwf	??_Stepper_CW
  1939  0034                     u837:	
  1940  0034  0BF5               	decfsz	??_Stepper_CW,f
  1941  0035  2834               	goto	u837
  1942  0036  0BF6               	decfsz	??_Stepper_CW+1,f
  1943  0037  2834               	goto	u837
  1944  0038  2839               	nop2
  1945                           
  1946                           ;STEPPER_MITSUMI.c: 20:                     PORTD = 0b0110;
  1947  0039  3006               	movlw	6
  1948  003A  1283               	bcf	3,5	;RP0=0, select bank0
  1949  003B  1303               	bcf	3,6	;RP1=0, select bank0
  1950  003C  0088               	movwf	8	;volatile
  1951                           
  1952                           ;STEPPER_MITSUMI.c: 21:                     _delay((unsigned long)((10)*(4000000/4000.0)
      +                          ));
  1953  003D  300D               	movlw	13
  1954  003E  00F6               	movwf	??_Stepper_CW+1
  1955  003F  30FB               	movlw	251
  1956  0040  00F5               	movwf	??_Stepper_CW
  1957  0041                     u847:	
  1958  0041  0BF5               	decfsz	??_Stepper_CW,f
  1959  0042  2841               	goto	u847
  1960  0043  0BF6               	decfsz	??_Stepper_CW+1,f
  1961  0044  2841               	goto	u847
  1962  0045  2846               	nop2
  1963                           
  1964                           ;STEPPER_MITSUMI.c: 22:                     PORTD = 0b0101;
  1965  0046  3005               	movlw	5
  1966  0047  1283               	bcf	3,5	;RP0=0, select bank0
  1967  0048  1303               	bcf	3,6	;RP1=0, select bank0
  1968  0049  0088               	movwf	8	;volatile
  1969                           
  1970                           ;STEPPER_MITSUMI.c: 23:                     _delay((unsigned long)((10)*(4000000/4000.0)
      +                          ));
  1971  004A  300D               	movlw	13
  1972  004B  00F6               	movwf	??_Stepper_CW+1
  1973  004C  30FB               	movlw	251
  1974  004D  00F5               	movwf	??_Stepper_CW
  1975  004E                     u857:	
  1976  004E  0BF5               	decfsz	??_Stepper_CW,f
  1977  004F  284E               	goto	u857
  1978  0050  0BF6               	decfsz	??_Stepper_CW+1,f
  1979  0051  284E               	goto	u857
  1980  0052  2853               	nop2
  1981                           
  1982                           ;STEPPER_MITSUMI.c: 24:                     PORTD = 0b1001;
  1983  0053  3009               	movlw	9
  1984  0054  1283               	bcf	3,5	;RP0=0, select bank0
  1985  0055  1303               	bcf	3,6	;RP1=0, select bank0
  1986  0056  0088               	movwf	8	;volatile
  1987                           
  1988                           ;STEPPER_MITSUMI.c: 25:                     _delay((unsigned long)((10)*(4000000/4000.0)
      +                          ));
  1989  0057  300D               	movlw	13
  1990  0058  00F6               	movwf	??_Stepper_CW+1
  1991  0059  30FB               	movlw	251
  1992  005A  00F5               	movwf	??_Stepper_CW
  1993  005B                     u867:	
  1994  005B  0BF5               	decfsz	??_Stepper_CW,f
  1995  005C  285B               	goto	u867
  1996  005D  0BF6               	decfsz	??_Stepper_CW+1,f
  1997  005E  285B               	goto	u867
  1998  005F  2860               	nop2
  1999                           
  2000                           ;STEPPER_MITSUMI.c: 27:                 };
  2001  0060  3001               	movlw	1
  2002  0061  07F7               	addwf	_i,f
  2003  0062  1803               	skipnc
  2004  0063  0AF8               	incf	_i+1,f
  2005  0064  3000               	movlw	0
  2006  0065  07F8               	addwf	_i+1,f
  2007  0066  281E               	goto	l3261
  2008  0067                     l3269:	
  2009                           
  2010                           ;STEPPER_MITSUMI.c: 31:             for(i=0; i<12; i++){
  2011  0067  01F7               	clrf	_i
  2012  0068  01F8               	clrf	_i+1
  2013  0069                     l3271:	
  2014  0069  0878               	movf	_i+1,w
  2015  006A  3A80               	xorlw	128
  2016  006B  00FF               	movwf	btemp+1
  2017  006C  3080               	movlw	128
  2018  006D  027F               	subwf	btemp+1,w
  2019  006E  1D03               	skipz
  2020  006F  2872               	goto	u725
  2021  0070  300C               	movlw	12
  2022  0071  0277               	subwf	_i,w
  2023  0072                     u725:	
  2024  0072  1C03               	skipc
  2025  0073  2875               	goto	u721
  2026  0074  2876               	goto	u720
  2027  0075                     u721:	
  2028  0075  2877               	goto	l3275
  2029  0076                     u720:	
  2030  0076  29F9               	goto	l157
  2031  0077                     l3275:	
  2032                           
  2033                           ;STEPPER_MITSUMI.c: 32:                     PORTD = 0b1010;
  2034  0077  300A               	movlw	10
  2035  0078  1283               	bcf	3,5	;RP0=0, select bank0
  2036  0079  1303               	bcf	3,6	;RP1=0, select bank0
  2037  007A  0088               	movwf	8	;volatile
  2038                           
  2039                           ;STEPPER_MITSUMI.c: 33:                     _delay((unsigned long)((10)*(4000000/4000.0)
      +                          ));
  2040  007B  300D               	movlw	13
  2041  007C  00F6               	movwf	??_Stepper_CW+1
  2042  007D  30FB               	movlw	251
  2043  007E  00F5               	movwf	??_Stepper_CW
  2044  007F                     u877:	
  2045  007F  0BF5               	decfsz	??_Stepper_CW,f
  2046  0080  287F               	goto	u877
  2047  0081  0BF6               	decfsz	??_Stepper_CW+1,f
  2048  0082  287F               	goto	u877
  2049  0083  2884               	nop2
  2050                           
  2051                           ;STEPPER_MITSUMI.c: 34:                     PORTD = 0b0110;
  2052  0084  3006               	movlw	6
  2053  0085  1283               	bcf	3,5	;RP0=0, select bank0
  2054  0086  1303               	bcf	3,6	;RP1=0, select bank0
  2055  0087  0088               	movwf	8	;volatile
  2056                           
  2057                           ;STEPPER_MITSUMI.c: 35:                     _delay((unsigned long)((10)*(4000000/4000.0)
      +                          ));
  2058  0088  300D               	movlw	13
  2059  0089  00F6               	movwf	??_Stepper_CW+1
  2060  008A  30FB               	movlw	251
  2061  008B  00F5               	movwf	??_Stepper_CW
  2062  008C                     u887:	
  2063  008C  0BF5               	decfsz	??_Stepper_CW,f
  2064  008D  288C               	goto	u887
  2065  008E  0BF6               	decfsz	??_Stepper_CW+1,f
  2066  008F  288C               	goto	u887
  2067  0090  2891               	nop2
  2068                           
  2069                           ;STEPPER_MITSUMI.c: 36:                     PORTD = 0b0101;
  2070  0091  3005               	movlw	5
  2071  0092  1283               	bcf	3,5	;RP0=0, select bank0
  2072  0093  1303               	bcf	3,6	;RP1=0, select bank0
  2073  0094  0088               	movwf	8	;volatile
  2074                           
  2075                           ;STEPPER_MITSUMI.c: 37:                     _delay((unsigned long)((10)*(4000000/4000.0)
      +                          ));
  2076  0095  300D               	movlw	13
  2077  0096  00F6               	movwf	??_Stepper_CW+1
  2078  0097  30FB               	movlw	251
  2079  0098  00F5               	movwf	??_Stepper_CW
  2080  0099                     u897:	
  2081  0099  0BF5               	decfsz	??_Stepper_CW,f
  2082  009A  2899               	goto	u897
  2083  009B  0BF6               	decfsz	??_Stepper_CW+1,f
  2084  009C  2899               	goto	u897
  2085  009D  289E               	nop2
  2086                           
  2087                           ;STEPPER_MITSUMI.c: 38:                     PORTD = 0b1001;
  2088  009E  3009               	movlw	9
  2089  009F  1283               	bcf	3,5	;RP0=0, select bank0
  2090  00A0  1303               	bcf	3,6	;RP1=0, select bank0
  2091  00A1  0088               	movwf	8	;volatile
  2092                           
  2093                           ;STEPPER_MITSUMI.c: 39:                     _delay((unsigned long)((10)*(4000000/4000.0)
      +                          ));
  2094  00A2  300D               	movlw	13
  2095  00A3  00F6               	movwf	??_Stepper_CW+1
  2096  00A4  30FB               	movlw	251
  2097  00A5  00F5               	movwf	??_Stepper_CW
  2098  00A6                     u907:	
  2099  00A6  0BF5               	decfsz	??_Stepper_CW,f
  2100  00A7  28A6               	goto	u907
  2101  00A8  0BF6               	decfsz	??_Stepper_CW+1,f
  2102  00A9  28A6               	goto	u907
  2103  00AA  28AB               	nop2
  2104                           
  2105                           ;STEPPER_MITSUMI.c: 41:                 };
  2106  00AB  3001               	movlw	1
  2107  00AC  07F7               	addwf	_i,f
  2108  00AD  1803               	skipnc
  2109  00AE  0AF8               	incf	_i+1,f
  2110  00AF  3000               	movlw	0
  2111  00B0  07F8               	addwf	_i+1,f
  2112  00B1  2869               	goto	l3271
  2113  00B2                     l3279:	
  2114                           
  2115                           ;STEPPER_MITSUMI.c: 45:             for(i=0; i<6; i++){
  2116  00B2  01F7               	clrf	_i
  2117  00B3  01F8               	clrf	_i+1
  2118  00B4                     l3281:	
  2119  00B4  0878               	movf	_i+1,w
  2120  00B5  3A80               	xorlw	128
  2121  00B6  00FF               	movwf	btemp+1
  2122  00B7  3080               	movlw	128
  2123  00B8  027F               	subwf	btemp+1,w
  2124  00B9  1D03               	skipz
  2125  00BA  28BD               	goto	u735
  2126  00BB  3006               	movlw	6
  2127  00BC  0277               	subwf	_i,w
  2128  00BD                     u735:	
  2129  00BD  1C03               	skipc
  2130  00BE  28C0               	goto	u731
  2131  00BF  28C1               	goto	u730
  2132  00C0                     u731:	
  2133  00C0  28C2               	goto	l3285
  2134  00C1                     u730:	
  2135  00C1  29F9               	goto	l157
  2136  00C2                     l3285:	
  2137                           
  2138                           ;STEPPER_MITSUMI.c: 46:                     PORTD = 0b1010;
  2139  00C2  300A               	movlw	10
  2140  00C3  1283               	bcf	3,5	;RP0=0, select bank0
  2141  00C4  1303               	bcf	3,6	;RP1=0, select bank0
  2142  00C5  0088               	movwf	8	;volatile
  2143                           
  2144                           ;STEPPER_MITSUMI.c: 47:                     _delay((unsigned long)((10)*(4000000/4000.0)
      +                          ));
  2145  00C6  300D               	movlw	13
  2146  00C7  00F6               	movwf	??_Stepper_CW+1
  2147  00C8  30FB               	movlw	251
  2148  00C9  00F5               	movwf	??_Stepper_CW
  2149  00CA                     u917:	
  2150  00CA  0BF5               	decfsz	??_Stepper_CW,f
  2151  00CB  28CA               	goto	u917
  2152  00CC  0BF6               	decfsz	??_Stepper_CW+1,f
  2153  00CD  28CA               	goto	u917
  2154  00CE  28CF               	nop2
  2155                           
  2156                           ;STEPPER_MITSUMI.c: 48:                     PORTD = 0b0110;
  2157  00CF  3006               	movlw	6
  2158  00D0  1283               	bcf	3,5	;RP0=0, select bank0
  2159  00D1  1303               	bcf	3,6	;RP1=0, select bank0
  2160  00D2  0088               	movwf	8	;volatile
  2161                           
  2162                           ;STEPPER_MITSUMI.c: 49:                     _delay((unsigned long)((10)*(4000000/4000.0)
      +                          ));
  2163  00D3  300D               	movlw	13
  2164  00D4  00F6               	movwf	??_Stepper_CW+1
  2165  00D5  30FB               	movlw	251
  2166  00D6  00F5               	movwf	??_Stepper_CW
  2167  00D7                     u927:	
  2168  00D7  0BF5               	decfsz	??_Stepper_CW,f
  2169  00D8  28D7               	goto	u927
  2170  00D9  0BF6               	decfsz	??_Stepper_CW+1,f
  2171  00DA  28D7               	goto	u927
  2172  00DB  28DC               	nop2
  2173                           
  2174                           ;STEPPER_MITSUMI.c: 50:                     PORTD = 0b0101;
  2175  00DC  3005               	movlw	5
  2176  00DD  1283               	bcf	3,5	;RP0=0, select bank0
  2177  00DE  1303               	bcf	3,6	;RP1=0, select bank0
  2178  00DF  0088               	movwf	8	;volatile
  2179                           
  2180                           ;STEPPER_MITSUMI.c: 51:                     _delay((unsigned long)((10)*(4000000/4000.0)
      +                          ));
  2181  00E0  300D               	movlw	13
  2182  00E1  00F6               	movwf	??_Stepper_CW+1
  2183  00E2  30FB               	movlw	251
  2184  00E3  00F5               	movwf	??_Stepper_CW
  2185  00E4                     u937:	
  2186  00E4  0BF5               	decfsz	??_Stepper_CW,f
  2187  00E5  28E4               	goto	u937
  2188  00E6  0BF6               	decfsz	??_Stepper_CW+1,f
  2189  00E7  28E4               	goto	u937
  2190  00E8  28E9               	nop2
  2191                           
  2192                           ;STEPPER_MITSUMI.c: 52:                     PORTD = 0b1001;
  2193  00E9  3009               	movlw	9
  2194  00EA  1283               	bcf	3,5	;RP0=0, select bank0
  2195  00EB  1303               	bcf	3,6	;RP1=0, select bank0
  2196  00EC  0088               	movwf	8	;volatile
  2197                           
  2198                           ;STEPPER_MITSUMI.c: 53:                     _delay((unsigned long)((10)*(4000000/4000.0)
      +                          ));
  2199  00ED  300D               	movlw	13
  2200  00EE  00F6               	movwf	??_Stepper_CW+1
  2201  00EF  30FB               	movlw	251
  2202  00F0  00F5               	movwf	??_Stepper_CW
  2203  00F1                     u947:	
  2204  00F1  0BF5               	decfsz	??_Stepper_CW,f
  2205  00F2  28F1               	goto	u947
  2206  00F3  0BF6               	decfsz	??_Stepper_CW+1,f
  2207  00F4  28F1               	goto	u947
  2208  00F5  28F6               	nop2
  2209                           
  2210                           ;STEPPER_MITSUMI.c: 55:                 };
  2211  00F6  3001               	movlw	1
  2212  00F7  07F7               	addwf	_i,f
  2213  00F8  1803               	skipnc
  2214  00F9  0AF8               	incf	_i+1,f
  2215  00FA  3000               	movlw	0
  2216  00FB  07F8               	addwf	_i+1,f
  2217  00FC  28B4               	goto	l3281
  2218  00FD                     l3289:	
  2219                           
  2220                           ;STEPPER_MITSUMI.c: 59:             for(i=0; i<3; i++){
  2221  00FD  01F7               	clrf	_i
  2222  00FE  01F8               	clrf	_i+1
  2223  00FF                     l3291:	
  2224  00FF  0878               	movf	_i+1,w
  2225  0100  3A80               	xorlw	128
  2226  0101  00FF               	movwf	btemp+1
  2227  0102  3080               	movlw	128
  2228  0103  027F               	subwf	btemp+1,w
  2229  0104  1D03               	skipz
  2230  0105  2908               	goto	u745
  2231  0106  3003               	movlw	3
  2232  0107  0277               	subwf	_i,w
  2233  0108                     u745:	
  2234  0108  1C03               	skipc
  2235  0109  290B               	goto	u741
  2236  010A  290C               	goto	u740
  2237  010B                     u741:	
  2238  010B  290D               	goto	l3295
  2239  010C                     u740:	
  2240  010C  29F9               	goto	l157
  2241  010D                     l3295:	
  2242                           
  2243                           ;STEPPER_MITSUMI.c: 60:                     PORTD = 0b1010;
  2244  010D  300A               	movlw	10
  2245  010E  1283               	bcf	3,5	;RP0=0, select bank0
  2246  010F  1303               	bcf	3,6	;RP1=0, select bank0
  2247  0110  0088               	movwf	8	;volatile
  2248                           
  2249                           ;STEPPER_MITSUMI.c: 61:                     _delay((unsigned long)((10)*(4000000/4000.0)
      +                          ));
  2250  0111  300D               	movlw	13
  2251  0112  00F6               	movwf	??_Stepper_CW+1
  2252  0113  30FB               	movlw	251
  2253  0114  00F5               	movwf	??_Stepper_CW
  2254  0115                     u957:	
  2255  0115  0BF5               	decfsz	??_Stepper_CW,f
  2256  0116  2915               	goto	u957
  2257  0117  0BF6               	decfsz	??_Stepper_CW+1,f
  2258  0118  2915               	goto	u957
  2259  0119  291A               	nop2
  2260                           
  2261                           ;STEPPER_MITSUMI.c: 62:                     PORTD = 0b0110;
  2262  011A  3006               	movlw	6
  2263  011B  1283               	bcf	3,5	;RP0=0, select bank0
  2264  011C  1303               	bcf	3,6	;RP1=0, select bank0
  2265  011D  0088               	movwf	8	;volatile
  2266                           
  2267                           ;STEPPER_MITSUMI.c: 63:                     _delay((unsigned long)((10)*(4000000/4000.0)
      +                          ));
  2268  011E  300D               	movlw	13
  2269  011F  00F6               	movwf	??_Stepper_CW+1
  2270  0120  30FB               	movlw	251
  2271  0121  00F5               	movwf	??_Stepper_CW
  2272  0122                     u967:	
  2273  0122  0BF5               	decfsz	??_Stepper_CW,f
  2274  0123  2922               	goto	u967
  2275  0124  0BF6               	decfsz	??_Stepper_CW+1,f
  2276  0125  2922               	goto	u967
  2277  0126  2927               	nop2
  2278                           
  2279                           ;STEPPER_MITSUMI.c: 64:                     PORTD = 0b0101;
  2280  0127  3005               	movlw	5
  2281  0128  1283               	bcf	3,5	;RP0=0, select bank0
  2282  0129  1303               	bcf	3,6	;RP1=0, select bank0
  2283  012A  0088               	movwf	8	;volatile
  2284                           
  2285                           ;STEPPER_MITSUMI.c: 65:                     _delay((unsigned long)((10)*(4000000/4000.0)
      +                          ));
  2286  012B  300D               	movlw	13
  2287  012C  00F6               	movwf	??_Stepper_CW+1
  2288  012D  30FB               	movlw	251
  2289  012E  00F5               	movwf	??_Stepper_CW
  2290  012F                     u977:	
  2291  012F  0BF5               	decfsz	??_Stepper_CW,f
  2292  0130  292F               	goto	u977
  2293  0131  0BF6               	decfsz	??_Stepper_CW+1,f
  2294  0132  292F               	goto	u977
  2295  0133  2934               	nop2
  2296                           
  2297                           ;STEPPER_MITSUMI.c: 66:                     PORTD = 0b1001;
  2298  0134  3009               	movlw	9
  2299  0135  1283               	bcf	3,5	;RP0=0, select bank0
  2300  0136  1303               	bcf	3,6	;RP1=0, select bank0
  2301  0137  0088               	movwf	8	;volatile
  2302                           
  2303                           ;STEPPER_MITSUMI.c: 67:                     _delay((unsigned long)((10)*(4000000/4000.0)
      +                          ));
  2304  0138  300D               	movlw	13
  2305  0139  00F6               	movwf	??_Stepper_CW+1
  2306  013A  30FB               	movlw	251
  2307  013B  00F5               	movwf	??_Stepper_CW
  2308  013C                     u987:	
  2309  013C  0BF5               	decfsz	??_Stepper_CW,f
  2310  013D  293C               	goto	u987
  2311  013E  0BF6               	decfsz	??_Stepper_CW+1,f
  2312  013F  293C               	goto	u987
  2313  0140  2941               	nop2
  2314                           
  2315                           ;STEPPER_MITSUMI.c: 69:                 };
  2316  0141  3001               	movlw	1
  2317  0142  07F7               	addwf	_i,f
  2318  0143  1803               	skipnc
  2319  0144  0AF8               	incf	_i+1,f
  2320  0145  3000               	movlw	0
  2321  0146  07F8               	addwf	_i+1,f
  2322  0147  28FF               	goto	l3291
  2323  0148                     l3299:	
  2324                           
  2325                           ;STEPPER_MITSUMI.c: 73:             for(i=0; i<1; i++){
  2326  0148  01F7               	clrf	_i
  2327  0149  01F8               	clrf	_i+1
  2328  014A                     l3301:	
  2329  014A  0878               	movf	_i+1,w
  2330  014B  3A80               	xorlw	128
  2331  014C  00FF               	movwf	btemp+1
  2332  014D  3080               	movlw	128
  2333  014E  027F               	subwf	btemp+1,w
  2334  014F  1D03               	skipz
  2335  0150  2953               	goto	u755
  2336  0151  3001               	movlw	1
  2337  0152  0277               	subwf	_i,w
  2338  0153                     u755:	
  2339  0153  1C03               	skipc
  2340  0154  2956               	goto	u751
  2341  0155  2957               	goto	u750
  2342  0156                     u751:	
  2343  0156  2958               	goto	l3305
  2344  0157                     u750:	
  2345  0157  29F9               	goto	l157
  2346  0158                     l3305:	
  2347                           
  2348                           ;STEPPER_MITSUMI.c: 74:                     PORTD = 0b1010;
  2349  0158  300A               	movlw	10
  2350  0159  1283               	bcf	3,5	;RP0=0, select bank0
  2351  015A  1303               	bcf	3,6	;RP1=0, select bank0
  2352  015B  0088               	movwf	8	;volatile
  2353                           
  2354                           ;STEPPER_MITSUMI.c: 75:                     _delay((unsigned long)((10)*(4000000/4000.0)
      +                          ));
  2355  015C  300D               	movlw	13
  2356  015D  00F6               	movwf	??_Stepper_CW+1
  2357  015E  30FB               	movlw	251
  2358  015F  00F5               	movwf	??_Stepper_CW
  2359  0160                     u997:	
  2360  0160  0BF5               	decfsz	??_Stepper_CW,f
  2361  0161  2960               	goto	u997
  2362  0162  0BF6               	decfsz	??_Stepper_CW+1,f
  2363  0163  2960               	goto	u997
  2364  0164  2965               	nop2
  2365                           
  2366                           ;STEPPER_MITSUMI.c: 76:                     PORTD = 0b0110;
  2367  0165  3006               	movlw	6
  2368  0166  1283               	bcf	3,5	;RP0=0, select bank0
  2369  0167  1303               	bcf	3,6	;RP1=0, select bank0
  2370  0168  0088               	movwf	8	;volatile
  2371                           
  2372                           ;STEPPER_MITSUMI.c: 77:                     _delay((unsigned long)((10)*(4000000/4000.0)
      +                          ));
  2373  0169  300D               	movlw	13
  2374  016A  00F6               	movwf	??_Stepper_CW+1
  2375  016B  30FB               	movlw	251
  2376  016C  00F5               	movwf	??_Stepper_CW
  2377  016D                     u1007:	
  2378  016D  0BF5               	decfsz	??_Stepper_CW,f
  2379  016E  296D               	goto	u1007
  2380  016F  0BF6               	decfsz	??_Stepper_CW+1,f
  2381  0170  296D               	goto	u1007
  2382  0171  2972               	nop2
  2383                           
  2384                           ;STEPPER_MITSUMI.c: 78:                     PORTD = 0b0101;
  2385  0172  3005               	movlw	5
  2386  0173  1283               	bcf	3,5	;RP0=0, select bank0
  2387  0174  1303               	bcf	3,6	;RP1=0, select bank0
  2388  0175  0088               	movwf	8	;volatile
  2389                           
  2390                           ;STEPPER_MITSUMI.c: 79:                     _delay((unsigned long)((10)*(4000000/4000.0)
      +                          ));
  2391  0176  300D               	movlw	13
  2392  0177  00F6               	movwf	??_Stepper_CW+1
  2393  0178  30FB               	movlw	251
  2394  0179  00F5               	movwf	??_Stepper_CW
  2395  017A                     u1017:	
  2396  017A  0BF5               	decfsz	??_Stepper_CW,f
  2397  017B  297A               	goto	u1017
  2398  017C  0BF6               	decfsz	??_Stepper_CW+1,f
  2399  017D  297A               	goto	u1017
  2400  017E  297F               	nop2
  2401                           
  2402                           ;STEPPER_MITSUMI.c: 80:                     PORTD = 0b1001;
  2403  017F  3009               	movlw	9
  2404  0180  1283               	bcf	3,5	;RP0=0, select bank0
  2405  0181  1303               	bcf	3,6	;RP1=0, select bank0
  2406  0182  0088               	movwf	8	;volatile
  2407                           
  2408                           ;STEPPER_MITSUMI.c: 81:                     _delay((unsigned long)((10)*(4000000/4000.0)
      +                          ));
  2409  0183  300D               	movlw	13
  2410  0184  00F6               	movwf	??_Stepper_CW+1
  2411  0185  30FB               	movlw	251
  2412  0186  00F5               	movwf	??_Stepper_CW
  2413  0187                     u1027:	
  2414  0187  0BF5               	decfsz	??_Stepper_CW,f
  2415  0188  2987               	goto	u1027
  2416  0189  0BF6               	decfsz	??_Stepper_CW+1,f
  2417  018A  2987               	goto	u1027
  2418  018B  298C               	nop2
  2419                           
  2420                           ;STEPPER_MITSUMI.c: 83:                 };
  2421  018C  3001               	movlw	1
  2422  018D  07F7               	addwf	_i,f
  2423  018E  1803               	skipnc
  2424  018F  0AF8               	incf	_i+1,f
  2425  0190  3000               	movlw	0
  2426  0191  07F8               	addwf	_i+1,f
  2427  0192  294A               	goto	l3301
  2428  0193                     l3309:	
  2429                           
  2430                           ;STEPPER_MITSUMI.c: 87:             for(i=0; i<2; i++){
  2431  0193  01F7               	clrf	_i
  2432  0194  01F8               	clrf	_i+1
  2433  0195                     l3311:	
  2434  0195  0878               	movf	_i+1,w
  2435  0196  3A80               	xorlw	128
  2436  0197  00FF               	movwf	btemp+1
  2437  0198  3080               	movlw	128
  2438  0199  027F               	subwf	btemp+1,w
  2439  019A  1D03               	skipz
  2440  019B  299E               	goto	u765
  2441  019C  3002               	movlw	2
  2442  019D  0277               	subwf	_i,w
  2443  019E                     u765:	
  2444  019E  1C03               	skipc
  2445  019F  29A1               	goto	u761
  2446  01A0  29A2               	goto	u760
  2447  01A1                     u761:	
  2448  01A1  29A3               	goto	l3315
  2449  01A2                     u760:	
  2450  01A2  29F9               	goto	l157
  2451  01A3                     l3315:	
  2452                           
  2453                           ;STEPPER_MITSUMI.c: 88:                     PORTD = 0b1010;
  2454  01A3  300A               	movlw	10
  2455  01A4  1283               	bcf	3,5	;RP0=0, select bank0
  2456  01A5  1303               	bcf	3,6	;RP1=0, select bank0
  2457  01A6  0088               	movwf	8	;volatile
  2458                           
  2459                           ;STEPPER_MITSUMI.c: 89:                     _delay((unsigned long)((10)*(4000000/4000.0)
      +                          ));
  2460  01A7  300D               	movlw	13
  2461  01A8  00F6               	movwf	??_Stepper_CW+1
  2462  01A9  30FB               	movlw	251
  2463  01AA  00F5               	movwf	??_Stepper_CW
  2464  01AB                     u1037:	
  2465  01AB  0BF5               	decfsz	??_Stepper_CW,f
  2466  01AC  29AB               	goto	u1037
  2467  01AD  0BF6               	decfsz	??_Stepper_CW+1,f
  2468  01AE  29AB               	goto	u1037
  2469  01AF  29B0               	nop2
  2470                           
  2471                           ;STEPPER_MITSUMI.c: 90:                     PORTD = 0b0110;
  2472  01B0  3006               	movlw	6
  2473  01B1  1283               	bcf	3,5	;RP0=0, select bank0
  2474  01B2  1303               	bcf	3,6	;RP1=0, select bank0
  2475  01B3  0088               	movwf	8	;volatile
  2476                           
  2477                           ;STEPPER_MITSUMI.c: 91:                     _delay((unsigned long)((10)*(4000000/4000.0)
      +                          ));
  2478  01B4  300D               	movlw	13
  2479  01B5  00F6               	movwf	??_Stepper_CW+1
  2480  01B6  30FB               	movlw	251
  2481  01B7  00F5               	movwf	??_Stepper_CW
  2482  01B8                     u1047:	
  2483  01B8  0BF5               	decfsz	??_Stepper_CW,f
  2484  01B9  29B8               	goto	u1047
  2485  01BA  0BF6               	decfsz	??_Stepper_CW+1,f
  2486  01BB  29B8               	goto	u1047
  2487  01BC  29BD               	nop2
  2488                           
  2489                           ;STEPPER_MITSUMI.c: 92:                     PORTD = 0b0101;
  2490  01BD  3005               	movlw	5
  2491  01BE  1283               	bcf	3,5	;RP0=0, select bank0
  2492  01BF  1303               	bcf	3,6	;RP1=0, select bank0
  2493  01C0  0088               	movwf	8	;volatile
  2494                           
  2495                           ;STEPPER_MITSUMI.c: 93:                     _delay((unsigned long)((10)*(4000000/4000.0)
      +                          ));
  2496  01C1  300D               	movlw	13
  2497  01C2  00F6               	movwf	??_Stepper_CW+1
  2498  01C3  30FB               	movlw	251
  2499  01C4  00F5               	movwf	??_Stepper_CW
  2500  01C5                     u1057:	
  2501  01C5  0BF5               	decfsz	??_Stepper_CW,f
  2502  01C6  29C5               	goto	u1057
  2503  01C7  0BF6               	decfsz	??_Stepper_CW+1,f
  2504  01C8  29C5               	goto	u1057
  2505  01C9  29CA               	nop2
  2506                           
  2507                           ;STEPPER_MITSUMI.c: 94:                     PORTD = 0b1001;
  2508  01CA  3009               	movlw	9
  2509  01CB  1283               	bcf	3,5	;RP0=0, select bank0
  2510  01CC  1303               	bcf	3,6	;RP1=0, select bank0
  2511  01CD  0088               	movwf	8	;volatile
  2512                           
  2513                           ;STEPPER_MITSUMI.c: 95:                     _delay((unsigned long)((10)*(4000000/4000.0)
      +                          ));
  2514  01CE  300D               	movlw	13
  2515  01CF  00F6               	movwf	??_Stepper_CW+1
  2516  01D0  30FB               	movlw	251
  2517  01D1  00F5               	movwf	??_Stepper_CW
  2518  01D2                     u1067:	
  2519  01D2  0BF5               	decfsz	??_Stepper_CW,f
  2520  01D3  29D2               	goto	u1067
  2521  01D4  0BF6               	decfsz	??_Stepper_CW+1,f
  2522  01D5  29D2               	goto	u1067
  2523  01D6  29D7               	nop2
  2524                           
  2525                           ;STEPPER_MITSUMI.c: 97:                 };
  2526  01D7  3001               	movlw	1
  2527  01D8  07F7               	addwf	_i,f
  2528  01D9  1803               	skipnc
  2529  01DA  0AF8               	incf	_i+1,f
  2530  01DB  3000               	movlw	0
  2531  01DC  07F8               	addwf	_i+1,f
  2532  01DD  2995               	goto	l3311
  2533  01DE                     l3319:	
  2534                           
  2535                           ; Switch on 2 bytes has been partitioned into a top level switch of size 1, and 2 sub-sw
      +                          itches
  2536                           ; Switch size 1, requested type "simple"
  2537                           ; Number of cases is 2, Range of values is 0 to 1
  2538                           ; switch strategies available:
  2539                           ; Name         Instructions Cycles
  2540                           ; simple_byte            7     4 (average)
  2541                           ; direct_byte           14     8 (fixed)
  2542                           ; jumptable            260     6 (fixed)
  2543                           ;	Chosen strategy is simple_byte
  2544  01DE  0874               	movf	Stepper_CW@Step_grados_cw+1,w
  2545  01DF  3A00               	xorlw	0	; case 0
  2546  01E0  1903               	skipnz
  2547  01E1  29E6               	goto	l3867
  2548  01E2  3A01               	xorlw	1	; case 1
  2549  01E3  1903               	skipnz
  2550  01E4  29F4               	goto	l3869
  2551  01E5  2993               	goto	l3309
  2552  01E6                     l3867:	
  2553                           
  2554                           ; Switch size 1, requested type "simple"
  2555                           ; Number of cases is 4, Range of values is 15 to 180
  2556                           ; switch strategies available:
  2557                           ; Name         Instructions Cycles
  2558                           ; simple_byte           13     7 (average)
  2559                           ; jumptable            263     9 (fixed)
  2560                           ;	Chosen strategy is simple_byte
  2561  01E6  0873               	movf	Stepper_CW@Step_grados_cw,w
  2562  01E7  3A0F               	xorlw	15	; case 15
  2563  01E8  1903               	skipnz
  2564  01E9  2948               	goto	l3299
  2565  01EA  3A22               	xorlw	34	; case 45
  2566  01EB  1903               	skipnz
  2567  01EC  28FD               	goto	l3289
  2568  01ED  3A77               	xorlw	119	; case 90
  2569  01EE  1903               	skipnz
  2570  01EF  28B2               	goto	l3279
  2571  01F0  3AEE               	xorlw	238	; case 180
  2572  01F1  1903               	skipnz
  2573  01F2  2867               	goto	l3269
  2574  01F3  2993               	goto	l3309
  2575  01F4                     l3869:	
  2576                           
  2577                           ; Switch size 1, requested type "simple"
  2578                           ; Number of cases is 1, Range of values is 104 to 104
  2579                           ; switch strategies available:
  2580                           ; Name         Instructions Cycles
  2581                           ; simple_byte            4     3 (average)
  2582                           ; direct_byte           14    11 (fixed)
  2583                           ; jumptable            263     9 (fixed)
  2584                           ;	Chosen strategy is simple_byte
  2585  01F4  0873               	movf	Stepper_CW@Step_grados_cw,w
  2586  01F5  3A68               	xorlw	104	; case 104
  2587  01F6  1903               	skipnz
  2588  01F7  281C               	goto	l3259
  2589  01F8  2993               	goto	l3309
  2590  01F9                     l157:	
  2591  01F9  0008               	return
  2592  01FA                     __end_of_Stepper_CW:	
  2593                           
  2594                           	psect	text7
  2595  01FA                     __ptext7:	
  2596 ;; *************** function _Stepper_CCW *****************
  2597 ;; Defined at:
  2598 ;;		line 102 in file "STEPPER_MITSUMI.c"
  2599 ;; Parameters:    Size  Location     Type
  2600 ;;  Step_grados_    2    3[COMMON] unsigned int 
  2601 ;; Auto vars:     Size  Location     Type
  2602 ;;		None
  2603 ;; Return value:  Size  Location     Type
  2604 ;;                  1    wreg      void 
  2605 ;; Registers used:
  2606 ;;		wreg, fsr0l, fsr0h, status,2, status,0, btemp+1
  2607 ;; Tracked objects:
  2608 ;;		On entry : 0/0
  2609 ;;		On exit  : 0/0
  2610 ;;		Unchanged: 0/0
  2611 ;; Data sizes:     COMMON   BANK0   BANK1   BANK3   BANK2
  2612 ;;      Params:         2       0       0       0       0
  2613 ;;      Locals:         0       0       0       0       0
  2614 ;;      Temps:          2       0       0       0       0
  2615 ;;      Totals:         4       0       0       0       0
  2616 ;;Total ram usage:        4 bytes
  2617 ;; Hardware stack levels used:    1
  2618 ;; Hardware stack levels required when called:    1
  2619 ;; This function calls:
  2620 ;;		Nothing
  2621 ;; This function is called by:
  2622 ;;		_main
  2623 ;; This function uses a non-reentrant model
  2624 ;;
  2625                           
  2626                           
  2627                           ;psect for function _Stepper_CCW
  2628  01FA                     _Stepper_CCW:	
  2629  01FA                     l3185:	
  2630                           ;incstack = 0
  2631                           ; Regs used in _Stepper_CCW: [wreg-fsr0h+status,2+status,0+btemp+1]
  2632                           
  2633                           
  2634                           ;STEPPER_MITSUMI.c: 103:     switch(Step_grados_ccw){
  2635  01FA  2BBD               	goto	l3247
  2636  01FB                     l3187:	
  2637                           
  2638                           ;STEPPER_MITSUMI.c: 105:             for(i=0; i<25; i++){
  2639  01FB  01F7               	clrf	_i
  2640  01FC  01F8               	clrf	_i+1
  2641  01FD                     l3189:	
  2642  01FD  0878               	movf	_i+1,w
  2643  01FE  3A80               	xorlw	128
  2644  01FF  00FF               	movwf	btemp+1
  2645  0200  3080               	movlw	128
  2646  0201  027F               	subwf	btemp+1,w
  2647  0202  1D03               	skipz
  2648  0203  2A06               	goto	u655
  2649  0204  3019               	movlw	25
  2650  0205  0277               	subwf	_i,w
  2651  0206                     u655:	
  2652  0206  1C03               	skipc
  2653  0207  2A09               	goto	u651
  2654  0208  2A0A               	goto	u650
  2655  0209                     u651:	
  2656  0209  2A0B               	goto	l3193
  2657  020A                     u650:	
  2658  020A  2BD8               	goto	l180
  2659  020B                     l3193:	
  2660                           
  2661                           ;STEPPER_MITSUMI.c: 106:                     PORTD = 0b1001;
  2662  020B  3009               	movlw	9
  2663  020C  1283               	bcf	3,5	;RP0=0, select bank0
  2664  020D  1303               	bcf	3,6	;RP1=0, select bank0
  2665  020E  0088               	movwf	8	;volatile
  2666                           
  2667                           ;STEPPER_MITSUMI.c: 107:                     _delay((unsigned long)((10)*(4000000/4000.0
      +                          )));
  2668  020F  300D               	movlw	13
  2669  0210  00F6               	movwf	??_Stepper_CCW+1
  2670  0211  30FB               	movlw	251
  2671  0212  00F5               	movwf	??_Stepper_CCW
  2672  0213                     u1077:	
  2673  0213  0BF5               	decfsz	??_Stepper_CCW,f
  2674  0214  2A13               	goto	u1077
  2675  0215  0BF6               	decfsz	??_Stepper_CCW+1,f
  2676  0216  2A13               	goto	u1077
  2677  0217  2A18               	nop2
  2678                           
  2679                           ;STEPPER_MITSUMI.c: 108:                     PORTD = 0b0101;
  2680  0218  3005               	movlw	5
  2681  0219  1283               	bcf	3,5	;RP0=0, select bank0
  2682  021A  1303               	bcf	3,6	;RP1=0, select bank0
  2683  021B  0088               	movwf	8	;volatile
  2684                           
  2685                           ;STEPPER_MITSUMI.c: 109:                     _delay((unsigned long)((10)*(4000000/4000.0
      +                          )));
  2686  021C  300D               	movlw	13
  2687  021D  00F6               	movwf	??_Stepper_CCW+1
  2688  021E  30FB               	movlw	251
  2689  021F  00F5               	movwf	??_Stepper_CCW
  2690  0220                     u1087:	
  2691  0220  0BF5               	decfsz	??_Stepper_CCW,f
  2692  0221  2A20               	goto	u1087
  2693  0222  0BF6               	decfsz	??_Stepper_CCW+1,f
  2694  0223  2A20               	goto	u1087
  2695  0224  2A25               	nop2
  2696                           
  2697                           ;STEPPER_MITSUMI.c: 110:                     PORTD = 0b0110;
  2698  0225  3006               	movlw	6
  2699  0226  1283               	bcf	3,5	;RP0=0, select bank0
  2700  0227  1303               	bcf	3,6	;RP1=0, select bank0
  2701  0228  0088               	movwf	8	;volatile
  2702                           
  2703                           ;STEPPER_MITSUMI.c: 111:                     _delay((unsigned long)((10)*(4000000/4000.0
      +                          )));
  2704  0229  300D               	movlw	13
  2705  022A  00F6               	movwf	??_Stepper_CCW+1
  2706  022B  30FB               	movlw	251
  2707  022C  00F5               	movwf	??_Stepper_CCW
  2708  022D                     u1097:	
  2709  022D  0BF5               	decfsz	??_Stepper_CCW,f
  2710  022E  2A2D               	goto	u1097
  2711  022F  0BF6               	decfsz	??_Stepper_CCW+1,f
  2712  0230  2A2D               	goto	u1097
  2713  0231  2A32               	nop2
  2714                           
  2715                           ;STEPPER_MITSUMI.c: 112:                     PORTD = 0b1010;
  2716  0232  300A               	movlw	10
  2717  0233  1283               	bcf	3,5	;RP0=0, select bank0
  2718  0234  1303               	bcf	3,6	;RP1=0, select bank0
  2719  0235  0088               	movwf	8	;volatile
  2720                           
  2721                           ;STEPPER_MITSUMI.c: 113:                     _delay((unsigned long)((10)*(4000000/4000.0
      +                          )));
  2722  0236  300D               	movlw	13
  2723  0237  00F6               	movwf	??_Stepper_CCW+1
  2724  0238  30FB               	movlw	251
  2725  0239  00F5               	movwf	??_Stepper_CCW
  2726  023A                     u1107:	
  2727  023A  0BF5               	decfsz	??_Stepper_CCW,f
  2728  023B  2A3A               	goto	u1107
  2729  023C  0BF6               	decfsz	??_Stepper_CCW+1,f
  2730  023D  2A3A               	goto	u1107
  2731  023E  2A3F               	nop2
  2732                           
  2733                           ;STEPPER_MITSUMI.c: 114:                 };
  2734  023F  3001               	movlw	1
  2735  0240  07F7               	addwf	_i,f
  2736  0241  1803               	skipnc
  2737  0242  0AF8               	incf	_i+1,f
  2738  0243  3000               	movlw	0
  2739  0244  07F8               	addwf	_i+1,f
  2740  0245  29FD               	goto	l3189
  2741  0246                     l3197:	
  2742                           
  2743                           ;STEPPER_MITSUMI.c: 118:             for(i=0; i<12; i++){
  2744  0246  01F7               	clrf	_i
  2745  0247  01F8               	clrf	_i+1
  2746  0248                     l3199:	
  2747  0248  0878               	movf	_i+1,w
  2748  0249  3A80               	xorlw	128
  2749  024A  00FF               	movwf	btemp+1
  2750  024B  3080               	movlw	128
  2751  024C  027F               	subwf	btemp+1,w
  2752  024D  1D03               	skipz
  2753  024E  2A51               	goto	u665
  2754  024F  300C               	movlw	12
  2755  0250  0277               	subwf	_i,w
  2756  0251                     u665:	
  2757  0251  1C03               	skipc
  2758  0252  2A54               	goto	u661
  2759  0253  2A55               	goto	u660
  2760  0254                     u661:	
  2761  0254  2A56               	goto	l3203
  2762  0255                     u660:	
  2763  0255  2BD8               	goto	l180
  2764  0256                     l3203:	
  2765                           
  2766                           ;STEPPER_MITSUMI.c: 119:                     PORTD = 0b1001;
  2767  0256  3009               	movlw	9
  2768  0257  1283               	bcf	3,5	;RP0=0, select bank0
  2769  0258  1303               	bcf	3,6	;RP1=0, select bank0
  2770  0259  0088               	movwf	8	;volatile
  2771                           
  2772                           ;STEPPER_MITSUMI.c: 120:                     _delay((unsigned long)((10)*(4000000/4000.0
      +                          )));
  2773  025A  300D               	movlw	13
  2774  025B  00F6               	movwf	??_Stepper_CCW+1
  2775  025C  30FB               	movlw	251
  2776  025D  00F5               	movwf	??_Stepper_CCW
  2777  025E                     u1117:	
  2778  025E  0BF5               	decfsz	??_Stepper_CCW,f
  2779  025F  2A5E               	goto	u1117
  2780  0260  0BF6               	decfsz	??_Stepper_CCW+1,f
  2781  0261  2A5E               	goto	u1117
  2782  0262  2A63               	nop2
  2783                           
  2784                           ;STEPPER_MITSUMI.c: 121:                     PORTD = 0b0101;
  2785  0263  3005               	movlw	5
  2786  0264  1283               	bcf	3,5	;RP0=0, select bank0
  2787  0265  1303               	bcf	3,6	;RP1=0, select bank0
  2788  0266  0088               	movwf	8	;volatile
  2789                           
  2790                           ;STEPPER_MITSUMI.c: 122:                     _delay((unsigned long)((10)*(4000000/4000.0
      +                          )));
  2791  0267  300D               	movlw	13
  2792  0268  00F6               	movwf	??_Stepper_CCW+1
  2793  0269  30FB               	movlw	251
  2794  026A  00F5               	movwf	??_Stepper_CCW
  2795  026B                     u1127:	
  2796  026B  0BF5               	decfsz	??_Stepper_CCW,f
  2797  026C  2A6B               	goto	u1127
  2798  026D  0BF6               	decfsz	??_Stepper_CCW+1,f
  2799  026E  2A6B               	goto	u1127
  2800  026F  2A70               	nop2
  2801                           
  2802                           ;STEPPER_MITSUMI.c: 123:                     PORTD = 0b0110;
  2803  0270  3006               	movlw	6
  2804  0271  1283               	bcf	3,5	;RP0=0, select bank0
  2805  0272  1303               	bcf	3,6	;RP1=0, select bank0
  2806  0273  0088               	movwf	8	;volatile
  2807                           
  2808                           ;STEPPER_MITSUMI.c: 124:                     _delay((unsigned long)((10)*(4000000/4000.0
      +                          )));
  2809  0274  300D               	movlw	13
  2810  0275  00F6               	movwf	??_Stepper_CCW+1
  2811  0276  30FB               	movlw	251
  2812  0277  00F5               	movwf	??_Stepper_CCW
  2813  0278                     u1137:	
  2814  0278  0BF5               	decfsz	??_Stepper_CCW,f
  2815  0279  2A78               	goto	u1137
  2816  027A  0BF6               	decfsz	??_Stepper_CCW+1,f
  2817  027B  2A78               	goto	u1137
  2818  027C  2A7D               	nop2
  2819                           
  2820                           ;STEPPER_MITSUMI.c: 125:                     PORTD = 0b1010;
  2821  027D  300A               	movlw	10
  2822  027E  1283               	bcf	3,5	;RP0=0, select bank0
  2823  027F  1303               	bcf	3,6	;RP1=0, select bank0
  2824  0280  0088               	movwf	8	;volatile
  2825                           
  2826                           ;STEPPER_MITSUMI.c: 126:                     _delay((unsigned long)((10)*(4000000/4000.0
      +                          )));
  2827  0281  300D               	movlw	13
  2828  0282  00F6               	movwf	??_Stepper_CCW+1
  2829  0283  30FB               	movlw	251
  2830  0284  00F5               	movwf	??_Stepper_CCW
  2831  0285                     u1147:	
  2832  0285  0BF5               	decfsz	??_Stepper_CCW,f
  2833  0286  2A85               	goto	u1147
  2834  0287  0BF6               	decfsz	??_Stepper_CCW+1,f
  2835  0288  2A85               	goto	u1147
  2836  0289  2A8A               	nop2
  2837                           
  2838                           ;STEPPER_MITSUMI.c: 127:                 };
  2839  028A  3001               	movlw	1
  2840  028B  07F7               	addwf	_i,f
  2841  028C  1803               	skipnc
  2842  028D  0AF8               	incf	_i+1,f
  2843  028E  3000               	movlw	0
  2844  028F  07F8               	addwf	_i+1,f
  2845  0290  2A48               	goto	l3199
  2846  0291                     l3207:	
  2847                           
  2848                           ;STEPPER_MITSUMI.c: 131:             for(i=0; i<6; i++){
  2849  0291  01F7               	clrf	_i
  2850  0292  01F8               	clrf	_i+1
  2851  0293                     l3209:	
  2852  0293  0878               	movf	_i+1,w
  2853  0294  3A80               	xorlw	128
  2854  0295  00FF               	movwf	btemp+1
  2855  0296  3080               	movlw	128
  2856  0297  027F               	subwf	btemp+1,w
  2857  0298  1D03               	skipz
  2858  0299  2A9C               	goto	u675
  2859  029A  3006               	movlw	6
  2860  029B  0277               	subwf	_i,w
  2861  029C                     u675:	
  2862  029C  1C03               	skipc
  2863  029D  2A9F               	goto	u671
  2864  029E  2AA0               	goto	u670
  2865  029F                     u671:	
  2866  029F  2AA1               	goto	l3213
  2867  02A0                     u670:	
  2868  02A0  2BD8               	goto	l180
  2869  02A1                     l3213:	
  2870                           
  2871                           ;STEPPER_MITSUMI.c: 132:                     PORTD = 0b1001;
  2872  02A1  3009               	movlw	9
  2873  02A2  1283               	bcf	3,5	;RP0=0, select bank0
  2874  02A3  1303               	bcf	3,6	;RP1=0, select bank0
  2875  02A4  0088               	movwf	8	;volatile
  2876                           
  2877                           ;STEPPER_MITSUMI.c: 133:                     _delay((unsigned long)((10)*(4000000/4000.0
      +                          )));
  2878  02A5  300D               	movlw	13
  2879  02A6  00F6               	movwf	??_Stepper_CCW+1
  2880  02A7  30FB               	movlw	251
  2881  02A8  00F5               	movwf	??_Stepper_CCW
  2882  02A9                     u1157:	
  2883  02A9  0BF5               	decfsz	??_Stepper_CCW,f
  2884  02AA  2AA9               	goto	u1157
  2885  02AB  0BF6               	decfsz	??_Stepper_CCW+1,f
  2886  02AC  2AA9               	goto	u1157
  2887  02AD  2AAE               	nop2
  2888                           
  2889                           ;STEPPER_MITSUMI.c: 134:                     PORTD = 0b0101;
  2890  02AE  3005               	movlw	5
  2891  02AF  1283               	bcf	3,5	;RP0=0, select bank0
  2892  02B0  1303               	bcf	3,6	;RP1=0, select bank0
  2893  02B1  0088               	movwf	8	;volatile
  2894                           
  2895                           ;STEPPER_MITSUMI.c: 135:                     _delay((unsigned long)((10)*(4000000/4000.0
      +                          )));
  2896  02B2  300D               	movlw	13
  2897  02B3  00F6               	movwf	??_Stepper_CCW+1
  2898  02B4  30FB               	movlw	251
  2899  02B5  00F5               	movwf	??_Stepper_CCW
  2900  02B6                     u1167:	
  2901  02B6  0BF5               	decfsz	??_Stepper_CCW,f
  2902  02B7  2AB6               	goto	u1167
  2903  02B8  0BF6               	decfsz	??_Stepper_CCW+1,f
  2904  02B9  2AB6               	goto	u1167
  2905  02BA  2ABB               	nop2
  2906                           
  2907                           ;STEPPER_MITSUMI.c: 136:                     PORTD = 0b0110;
  2908  02BB  3006               	movlw	6
  2909  02BC  1283               	bcf	3,5	;RP0=0, select bank0
  2910  02BD  1303               	bcf	3,6	;RP1=0, select bank0
  2911  02BE  0088               	movwf	8	;volatile
  2912                           
  2913                           ;STEPPER_MITSUMI.c: 137:                     _delay((unsigned long)((10)*(4000000/4000.0
      +                          )));
  2914  02BF  300D               	movlw	13
  2915  02C0  00F6               	movwf	??_Stepper_CCW+1
  2916  02C1  30FB               	movlw	251
  2917  02C2  00F5               	movwf	??_Stepper_CCW
  2918  02C3                     u1177:	
  2919  02C3  0BF5               	decfsz	??_Stepper_CCW,f
  2920  02C4  2AC3               	goto	u1177
  2921  02C5  0BF6               	decfsz	??_Stepper_CCW+1,f
  2922  02C6  2AC3               	goto	u1177
  2923  02C7  2AC8               	nop2
  2924                           
  2925                           ;STEPPER_MITSUMI.c: 138:                     PORTD = 0b1010;
  2926  02C8  300A               	movlw	10
  2927  02C9  1283               	bcf	3,5	;RP0=0, select bank0
  2928  02CA  1303               	bcf	3,6	;RP1=0, select bank0
  2929  02CB  0088               	movwf	8	;volatile
  2930                           
  2931                           ;STEPPER_MITSUMI.c: 139:                     _delay((unsigned long)((10)*(4000000/4000.0
      +                          )));
  2932  02CC  300D               	movlw	13
  2933  02CD  00F6               	movwf	??_Stepper_CCW+1
  2934  02CE  30FB               	movlw	251
  2935  02CF  00F5               	movwf	??_Stepper_CCW
  2936  02D0                     u1187:	
  2937  02D0  0BF5               	decfsz	??_Stepper_CCW,f
  2938  02D1  2AD0               	goto	u1187
  2939  02D2  0BF6               	decfsz	??_Stepper_CCW+1,f
  2940  02D3  2AD0               	goto	u1187
  2941  02D4  2AD5               	nop2
  2942                           
  2943                           ;STEPPER_MITSUMI.c: 140:                 };
  2944  02D5  3001               	movlw	1
  2945  02D6  07F7               	addwf	_i,f
  2946  02D7  1803               	skipnc
  2947  02D8  0AF8               	incf	_i+1,f
  2948  02D9  3000               	movlw	0
  2949  02DA  07F8               	addwf	_i+1,f
  2950  02DB  2A93               	goto	l3209
  2951  02DC                     l3217:	
  2952                           
  2953                           ;STEPPER_MITSUMI.c: 144:             for(i=0; i<3; i++){
  2954  02DC  01F7               	clrf	_i
  2955  02DD  01F8               	clrf	_i+1
  2956  02DE                     l3219:	
  2957  02DE  0878               	movf	_i+1,w
  2958  02DF  3A80               	xorlw	128
  2959  02E0  00FF               	movwf	btemp+1
  2960  02E1  3080               	movlw	128
  2961  02E2  027F               	subwf	btemp+1,w
  2962  02E3  1D03               	skipz
  2963  02E4  2AE7               	goto	u685
  2964  02E5  3003               	movlw	3
  2965  02E6  0277               	subwf	_i,w
  2966  02E7                     u685:	
  2967  02E7  1C03               	skipc
  2968  02E8  2AEA               	goto	u681
  2969  02E9  2AEB               	goto	u680
  2970  02EA                     u681:	
  2971  02EA  2AEC               	goto	l3223
  2972  02EB                     u680:	
  2973  02EB  2BD8               	goto	l180
  2974  02EC                     l3223:	
  2975                           
  2976                           ;STEPPER_MITSUMI.c: 145:                     PORTD = 0b1001;
  2977  02EC  3009               	movlw	9
  2978  02ED  1283               	bcf	3,5	;RP0=0, select bank0
  2979  02EE  1303               	bcf	3,6	;RP1=0, select bank0
  2980  02EF  0088               	movwf	8	;volatile
  2981                           
  2982                           ;STEPPER_MITSUMI.c: 146:                     _delay((unsigned long)((10)*(4000000/4000.0
      +                          )));
  2983  02F0  300D               	movlw	13
  2984  02F1  00F6               	movwf	??_Stepper_CCW+1
  2985  02F2  30FB               	movlw	251
  2986  02F3  00F5               	movwf	??_Stepper_CCW
  2987  02F4                     u1197:	
  2988  02F4  0BF5               	decfsz	??_Stepper_CCW,f
  2989  02F5  2AF4               	goto	u1197
  2990  02F6  0BF6               	decfsz	??_Stepper_CCW+1,f
  2991  02F7  2AF4               	goto	u1197
  2992  02F8  2AF9               	nop2
  2993                           
  2994                           ;STEPPER_MITSUMI.c: 147:                     PORTD = 0b0101;
  2995  02F9  3005               	movlw	5
  2996  02FA  1283               	bcf	3,5	;RP0=0, select bank0
  2997  02FB  1303               	bcf	3,6	;RP1=0, select bank0
  2998  02FC  0088               	movwf	8	;volatile
  2999                           
  3000                           ;STEPPER_MITSUMI.c: 148:                     _delay((unsigned long)((10)*(4000000/4000.0
      +                          )));
  3001  02FD  300D               	movlw	13
  3002  02FE  00F6               	movwf	??_Stepper_CCW+1
  3003  02FF  30FB               	movlw	251
  3004  0300  00F5               	movwf	??_Stepper_CCW
  3005  0301                     u1207:	
  3006  0301  0BF5               	decfsz	??_Stepper_CCW,f
  3007  0302  2B01               	goto	u1207
  3008  0303  0BF6               	decfsz	??_Stepper_CCW+1,f
  3009  0304  2B01               	goto	u1207
  3010  0305  2B06               	nop2
  3011                           
  3012                           ;STEPPER_MITSUMI.c: 149:                     PORTD = 0b0110;
  3013  0306  3006               	movlw	6
  3014  0307  1283               	bcf	3,5	;RP0=0, select bank0
  3015  0308  1303               	bcf	3,6	;RP1=0, select bank0
  3016  0309  0088               	movwf	8	;volatile
  3017                           
  3018                           ;STEPPER_MITSUMI.c: 150:                     _delay((unsigned long)((10)*(4000000/4000.0
      +                          )));
  3019  030A  300D               	movlw	13
  3020  030B  00F6               	movwf	??_Stepper_CCW+1
  3021  030C  30FB               	movlw	251
  3022  030D  00F5               	movwf	??_Stepper_CCW
  3023  030E                     u1217:	
  3024  030E  0BF5               	decfsz	??_Stepper_CCW,f
  3025  030F  2B0E               	goto	u1217
  3026  0310  0BF6               	decfsz	??_Stepper_CCW+1,f
  3027  0311  2B0E               	goto	u1217
  3028  0312  2B13               	nop2
  3029                           
  3030                           ;STEPPER_MITSUMI.c: 151:                     PORTD = 0b1010;
  3031  0313  300A               	movlw	10
  3032  0314  1283               	bcf	3,5	;RP0=0, select bank0
  3033  0315  1303               	bcf	3,6	;RP1=0, select bank0
  3034  0316  0088               	movwf	8	;volatile
  3035                           
  3036                           ;STEPPER_MITSUMI.c: 152:                     _delay((unsigned long)((10)*(4000000/4000.0
      +                          )));
  3037  0317  300D               	movlw	13
  3038  0318  00F6               	movwf	??_Stepper_CCW+1
  3039  0319  30FB               	movlw	251
  3040  031A  00F5               	movwf	??_Stepper_CCW
  3041  031B                     u1227:	
  3042  031B  0BF5               	decfsz	??_Stepper_CCW,f
  3043  031C  2B1B               	goto	u1227
  3044  031D  0BF6               	decfsz	??_Stepper_CCW+1,f
  3045  031E  2B1B               	goto	u1227
  3046  031F  2B20               	nop2
  3047                           
  3048                           ;STEPPER_MITSUMI.c: 153:                 };
  3049  0320  3001               	movlw	1
  3050  0321  07F7               	addwf	_i,f
  3051  0322  1803               	skipnc
  3052  0323  0AF8               	incf	_i+1,f
  3053  0324  3000               	movlw	0
  3054  0325  07F8               	addwf	_i+1,f
  3055  0326  2ADE               	goto	l3219
  3056  0327                     l3227:	
  3057                           
  3058                           ;STEPPER_MITSUMI.c: 157:             for(i=0; i<1; i++){
  3059  0327  01F7               	clrf	_i
  3060  0328  01F8               	clrf	_i+1
  3061  0329                     l3229:	
  3062  0329  0878               	movf	_i+1,w
  3063  032A  3A80               	xorlw	128
  3064  032B  00FF               	movwf	btemp+1
  3065  032C  3080               	movlw	128
  3066  032D  027F               	subwf	btemp+1,w
  3067  032E  1D03               	skipz
  3068  032F  2B32               	goto	u695
  3069  0330  3001               	movlw	1
  3070  0331  0277               	subwf	_i,w
  3071  0332                     u695:	
  3072  0332  1C03               	skipc
  3073  0333  2B35               	goto	u691
  3074  0334  2B36               	goto	u690
  3075  0335                     u691:	
  3076  0335  2B37               	goto	l3233
  3077  0336                     u690:	
  3078  0336  2BD8               	goto	l180
  3079  0337                     l3233:	
  3080                           
  3081                           ;STEPPER_MITSUMI.c: 158:                     PORTD = 0b1001;
  3082  0337  3009               	movlw	9
  3083  0338  1283               	bcf	3,5	;RP0=0, select bank0
  3084  0339  1303               	bcf	3,6	;RP1=0, select bank0
  3085  033A  0088               	movwf	8	;volatile
  3086                           
  3087                           ;STEPPER_MITSUMI.c: 159:                     _delay((unsigned long)((10)*(4000000/4000.0
      +                          )));
  3088  033B  300D               	movlw	13
  3089  033C  00F6               	movwf	??_Stepper_CCW+1
  3090  033D  30FB               	movlw	251
  3091  033E  00F5               	movwf	??_Stepper_CCW
  3092  033F                     u1237:	
  3093  033F  0BF5               	decfsz	??_Stepper_CCW,f
  3094  0340  2B3F               	goto	u1237
  3095  0341  0BF6               	decfsz	??_Stepper_CCW+1,f
  3096  0342  2B3F               	goto	u1237
  3097  0343  2B44               	nop2
  3098                           
  3099                           ;STEPPER_MITSUMI.c: 160:                     PORTD = 0b0101;
  3100  0344  3005               	movlw	5
  3101  0345  1283               	bcf	3,5	;RP0=0, select bank0
  3102  0346  1303               	bcf	3,6	;RP1=0, select bank0
  3103  0347  0088               	movwf	8	;volatile
  3104                           
  3105                           ;STEPPER_MITSUMI.c: 161:                     _delay((unsigned long)((10)*(4000000/4000.0
      +                          )));
  3106  0348  300D               	movlw	13
  3107  0349  00F6               	movwf	??_Stepper_CCW+1
  3108  034A  30FB               	movlw	251
  3109  034B  00F5               	movwf	??_Stepper_CCW
  3110  034C                     u1247:	
  3111  034C  0BF5               	decfsz	??_Stepper_CCW,f
  3112  034D  2B4C               	goto	u1247
  3113  034E  0BF6               	decfsz	??_Stepper_CCW+1,f
  3114  034F  2B4C               	goto	u1247
  3115  0350  2B51               	nop2
  3116                           
  3117                           ;STEPPER_MITSUMI.c: 162:                     PORTD = 0b0110;
  3118  0351  3006               	movlw	6
  3119  0352  1283               	bcf	3,5	;RP0=0, select bank0
  3120  0353  1303               	bcf	3,6	;RP1=0, select bank0
  3121  0354  0088               	movwf	8	;volatile
  3122                           
  3123                           ;STEPPER_MITSUMI.c: 163:                     _delay((unsigned long)((10)*(4000000/4000.0
      +                          )));
  3124  0355  300D               	movlw	13
  3125  0356  00F6               	movwf	??_Stepper_CCW+1
  3126  0357  30FB               	movlw	251
  3127  0358  00F5               	movwf	??_Stepper_CCW
  3128  0359                     u1257:	
  3129  0359  0BF5               	decfsz	??_Stepper_CCW,f
  3130  035A  2B59               	goto	u1257
  3131  035B  0BF6               	decfsz	??_Stepper_CCW+1,f
  3132  035C  2B59               	goto	u1257
  3133  035D  2B5E               	nop2
  3134                           
  3135                           ;STEPPER_MITSUMI.c: 164:                     PORTD = 0b1010;
  3136  035E  300A               	movlw	10
  3137  035F  1283               	bcf	3,5	;RP0=0, select bank0
  3138  0360  1303               	bcf	3,6	;RP1=0, select bank0
  3139  0361  0088               	movwf	8	;volatile
  3140                           
  3141                           ;STEPPER_MITSUMI.c: 165:                     _delay((unsigned long)((10)*(4000000/4000.0
      +                          )));
  3142  0362  300D               	movlw	13
  3143  0363  00F6               	movwf	??_Stepper_CCW+1
  3144  0364  30FB               	movlw	251
  3145  0365  00F5               	movwf	??_Stepper_CCW
  3146  0366                     u1267:	
  3147  0366  0BF5               	decfsz	??_Stepper_CCW,f
  3148  0367  2B66               	goto	u1267
  3149  0368  0BF6               	decfsz	??_Stepper_CCW+1,f
  3150  0369  2B66               	goto	u1267
  3151  036A  2B6B               	nop2
  3152                           
  3153                           ;STEPPER_MITSUMI.c: 166:                 };
  3154  036B  3001               	movlw	1
  3155  036C  07F7               	addwf	_i,f
  3156  036D  1803               	skipnc
  3157  036E  0AF8               	incf	_i+1,f
  3158  036F  3000               	movlw	0
  3159  0370  07F8               	addwf	_i+1,f
  3160  0371  2B29               	goto	l3229
  3161  0372                     l3237:	
  3162                           
  3163                           ;STEPPER_MITSUMI.c: 170:             for(i=0; i<2; i++){
  3164  0372  01F7               	clrf	_i
  3165  0373  01F8               	clrf	_i+1
  3166  0374                     l3239:	
  3167  0374  0878               	movf	_i+1,w
  3168  0375  3A80               	xorlw	128
  3169  0376  00FF               	movwf	btemp+1
  3170  0377  3080               	movlw	128
  3171  0378  027F               	subwf	btemp+1,w
  3172  0379  1D03               	skipz
  3173  037A  2B7D               	goto	u705
  3174  037B  3002               	movlw	2
  3175  037C  0277               	subwf	_i,w
  3176  037D                     u705:	
  3177  037D  1C03               	skipc
  3178  037E  2B80               	goto	u701
  3179  037F  2B81               	goto	u700
  3180  0380                     u701:	
  3181  0380  2B82               	goto	l3243
  3182  0381                     u700:	
  3183  0381  2BD8               	goto	l180
  3184  0382                     l3243:	
  3185                           
  3186                           ;STEPPER_MITSUMI.c: 171:                     PORTD = 0b1001;
  3187  0382  3009               	movlw	9
  3188  0383  1283               	bcf	3,5	;RP0=0, select bank0
  3189  0384  1303               	bcf	3,6	;RP1=0, select bank0
  3190  0385  0088               	movwf	8	;volatile
  3191                           
  3192                           ;STEPPER_MITSUMI.c: 172:                     _delay((unsigned long)((10)*(4000000/4000.0
      +                          )));
  3193  0386  300D               	movlw	13
  3194  0387  00F6               	movwf	??_Stepper_CCW+1
  3195  0388  30FB               	movlw	251
  3196  0389  00F5               	movwf	??_Stepper_CCW
  3197  038A                     u1277:	
  3198  038A  0BF5               	decfsz	??_Stepper_CCW,f
  3199  038B  2B8A               	goto	u1277
  3200  038C  0BF6               	decfsz	??_Stepper_CCW+1,f
  3201  038D  2B8A               	goto	u1277
  3202  038E  2B8F               	nop2
  3203                           
  3204                           ;STEPPER_MITSUMI.c: 173:                     PORTD = 0b0101;
  3205  038F  3005               	movlw	5
  3206  0390  1283               	bcf	3,5	;RP0=0, select bank0
  3207  0391  1303               	bcf	3,6	;RP1=0, select bank0
  3208  0392  0088               	movwf	8	;volatile
  3209                           
  3210                           ;STEPPER_MITSUMI.c: 174:                     _delay((unsigned long)((10)*(4000000/4000.0
      +                          )));
  3211  0393  300D               	movlw	13
  3212  0394  00F6               	movwf	??_Stepper_CCW+1
  3213  0395  30FB               	movlw	251
  3214  0396  00F5               	movwf	??_Stepper_CCW
  3215  0397                     u1287:	
  3216  0397  0BF5               	decfsz	??_Stepper_CCW,f
  3217  0398  2B97               	goto	u1287
  3218  0399  0BF6               	decfsz	??_Stepper_CCW+1,f
  3219  039A  2B97               	goto	u1287
  3220  039B  2B9C               	nop2
  3221                           
  3222                           ;STEPPER_MITSUMI.c: 175:                     PORTD = 0b0110;
  3223  039C  3006               	movlw	6
  3224  039D  1283               	bcf	3,5	;RP0=0, select bank0
  3225  039E  1303               	bcf	3,6	;RP1=0, select bank0
  3226  039F  0088               	movwf	8	;volatile
  3227                           
  3228                           ;STEPPER_MITSUMI.c: 176:                     _delay((unsigned long)((10)*(4000000/4000.0
      +                          )));
  3229  03A0  300D               	movlw	13
  3230  03A1  00F6               	movwf	??_Stepper_CCW+1
  3231  03A2  30FB               	movlw	251
  3232  03A3  00F5               	movwf	??_Stepper_CCW
  3233  03A4                     u1297:	
  3234  03A4  0BF5               	decfsz	??_Stepper_CCW,f
  3235  03A5  2BA4               	goto	u1297
  3236  03A6  0BF6               	decfsz	??_Stepper_CCW+1,f
  3237  03A7  2BA4               	goto	u1297
  3238  03A8  2BA9               	nop2
  3239                           
  3240                           ;STEPPER_MITSUMI.c: 177:                     PORTD = 0b1010;
  3241  03A9  300A               	movlw	10
  3242  03AA  1283               	bcf	3,5	;RP0=0, select bank0
  3243  03AB  1303               	bcf	3,6	;RP1=0, select bank0
  3244  03AC  0088               	movwf	8	;volatile
  3245                           
  3246                           ;STEPPER_MITSUMI.c: 178:                     _delay((unsigned long)((10)*(4000000/4000.0
      +                          )));
  3247  03AD  300D               	movlw	13
  3248  03AE  00F6               	movwf	??_Stepper_CCW+1
  3249  03AF  30FB               	movlw	251
  3250  03B0  00F5               	movwf	??_Stepper_CCW
  3251  03B1                     u1307:	
  3252  03B1  0BF5               	decfsz	??_Stepper_CCW,f
  3253  03B2  2BB1               	goto	u1307
  3254  03B3  0BF6               	decfsz	??_Stepper_CCW+1,f
  3255  03B4  2BB1               	goto	u1307
  3256  03B5  2BB6               	nop2
  3257                           
  3258                           ;STEPPER_MITSUMI.c: 179:                 };
  3259  03B6  3001               	movlw	1
  3260  03B7  07F7               	addwf	_i,f
  3261  03B8  1803               	skipnc
  3262  03B9  0AF8               	incf	_i+1,f
  3263  03BA  3000               	movlw	0
  3264  03BB  07F8               	addwf	_i+1,f
  3265  03BC  2B74               	goto	l3239
  3266  03BD                     l3247:	
  3267                           
  3268                           ; Switch on 2 bytes has been partitioned into a top level switch of size 1, and 2 sub-sw
      +                          itches
  3269                           ; Switch size 1, requested type "simple"
  3270                           ; Number of cases is 2, Range of values is 0 to 1
  3271                           ; switch strategies available:
  3272                           ; Name         Instructions Cycles
  3273                           ; simple_byte            7     4 (average)
  3274                           ; direct_byte           14     8 (fixed)
  3275                           ; jumptable            260     6 (fixed)
  3276                           ;	Chosen strategy is simple_byte
  3277  03BD  0874               	movf	Stepper_CCW@Step_grados_ccw+1,w
  3278  03BE  3A00               	xorlw	0	; case 0
  3279  03BF  1903               	skipnz
  3280  03C0  2BC5               	goto	l3871
  3281  03C1  3A01               	xorlw	1	; case 1
  3282  03C2  1903               	skipnz
  3283  03C3  2BD3               	goto	l3873
  3284  03C4  2B72               	goto	l3237
  3285  03C5                     l3871:	
  3286                           
  3287                           ; Switch size 1, requested type "simple"
  3288                           ; Number of cases is 4, Range of values is 15 to 180
  3289                           ; switch strategies available:
  3290                           ; Name         Instructions Cycles
  3291                           ; simple_byte           13     7 (average)
  3292                           ; jumptable            263     9 (fixed)
  3293                           ;	Chosen strategy is simple_byte
  3294  03C5  0873               	movf	Stepper_CCW@Step_grados_ccw,w
  3295  03C6  3A0F               	xorlw	15	; case 15
  3296  03C7  1903               	skipnz
  3297  03C8  2B27               	goto	l3227
  3298  03C9  3A22               	xorlw	34	; case 45
  3299  03CA  1903               	skipnz
  3300  03CB  2ADC               	goto	l3217
  3301  03CC  3A77               	xorlw	119	; case 90
  3302  03CD  1903               	skipnz
  3303  03CE  2A91               	goto	l3207
  3304  03CF  3AEE               	xorlw	238	; case 180
  3305  03D0  1903               	skipnz
  3306  03D1  2A46               	goto	l3197
  3307  03D2  2B72               	goto	l3237
  3308  03D3                     l3873:	
  3309                           
  3310                           ; Switch size 1, requested type "simple"
  3311                           ; Number of cases is 1, Range of values is 104 to 104
  3312                           ; switch strategies available:
  3313                           ; Name         Instructions Cycles
  3314                           ; simple_byte            4     3 (average)
  3315                           ; direct_byte           14    11 (fixed)
  3316                           ; jumptable            263     9 (fixed)
  3317                           ;	Chosen strategy is simple_byte
  3318  03D3  0873               	movf	Stepper_CCW@Step_grados_ccw,w
  3319  03D4  3A68               	xorlw	104	; case 104
  3320  03D5  1903               	skipnz
  3321  03D6  29FB               	goto	l3187
  3322  03D7  2B72               	goto	l3237
  3323  03D8                     l180:	
  3324  03D8  0008               	return
  3325  03D9                     __end_of_Stepper_CCW:	
  3326                           
  3327                           	psect	text8
  3328  0599                     __ptext8:	
  3329 ;; *************** function _Servo2_grados *****************
  3330 ;; Defined at:
  3331 ;;		line 117 in file "PWMs.c"
  3332 ;; Parameters:    Size  Location     Type
  3333 ;;  Servo2_grado    1    wreg     unsigned char 
  3334 ;; Auto vars:     Size  Location     Type
  3335 ;;  Servo2_grado    1    5[COMMON] unsigned char 
  3336 ;; Return value:  Size  Location     Type
  3337 ;;                  1    wreg      void 
  3338 ;; Registers used:
  3339 ;;		wreg, fsr0l, fsr0h, status,2, status,0
  3340 ;; Tracked objects:
  3341 ;;		On entry : 0/0
  3342 ;;		On exit  : 0/0
  3343 ;;		Unchanged: 0/0
  3344 ;; Data sizes:     COMMON   BANK0   BANK1   BANK3   BANK2
  3345 ;;      Params:         0       0       0       0       0
  3346 ;;      Locals:         1       0       0       0       0
  3347 ;;      Temps:          2       0       0       0       0
  3348 ;;      Totals:         3       0       0       0       0
  3349 ;;Total ram usage:        3 bytes
  3350 ;; Hardware stack levels used:    1
  3351 ;; Hardware stack levels required when called:    1
  3352 ;; This function calls:
  3353 ;;		Nothing
  3354 ;; This function is called by:
  3355 ;;		_main
  3356 ;; This function uses a non-reentrant model
  3357 ;;
  3358                           
  3359                           
  3360                           ;psect for function _Servo2_grados
  3361  0599                     _Servo2_grados:	
  3362                           
  3363                           ;incstack = 0
  3364                           ; Regs used in _Servo2_grados: [wreg-fsr0h+status,2+status,0]
  3365                           ;Servo2_grados@Servo2_grados stored from wreg
  3366  0599  00F5               	movwf	Servo2_grados@Servo2_grados
  3367  059A                     l3157:	
  3368                           
  3369                           ;PWMs.c: 118:     switch(Servo2_grados){
  3370  059A  2DC8               	goto	l3179
  3371  059B                     l3159:	
  3372                           
  3373                           ;PWMs.c: 120:             CCPR1L = 10;
  3374  059B  300A               	movlw	10
  3375  059C  1283               	bcf	3,5	;RP0=0, select bank0
  3376  059D  1303               	bcf	3,6	;RP1=0, select bank0
  3377  059E  0095               	movwf	21	;volatile
  3378                           
  3379                           ;PWMs.c: 121:             break;
  3380  059F  2DED               	goto	l293
  3381  05A0                     l3161:	
  3382                           
  3383                           ;PWMs.c: 124:             CCPR1L = 12;
  3384  05A0  300C               	movlw	12
  3385  05A1  1283               	bcf	3,5	;RP0=0, select bank0
  3386  05A2  1303               	bcf	3,6	;RP1=0, select bank0
  3387  05A3  0095               	movwf	21	;volatile
  3388                           
  3389                           ;PWMs.c: 125:             break;
  3390  05A4  2DED               	goto	l293
  3391  05A5                     l3163:	
  3392                           
  3393                           ;PWMs.c: 128:             CCPR1L = 14;
  3394  05A5  300E               	movlw	14
  3395  05A6  1283               	bcf	3,5	;RP0=0, select bank0
  3396  05A7  1303               	bcf	3,6	;RP1=0, select bank0
  3397  05A8  0095               	movwf	21	;volatile
  3398                           
  3399                           ;PWMs.c: 129:             break;
  3400  05A9  2DED               	goto	l293
  3401  05AA                     l3165:	
  3402                           
  3403                           ;PWMs.c: 132:             CCPR1L = 18;
  3404  05AA  3012               	movlw	18
  3405  05AB  1283               	bcf	3,5	;RP0=0, select bank0
  3406  05AC  1303               	bcf	3,6	;RP1=0, select bank0
  3407  05AD  0095               	movwf	21	;volatile
  3408                           
  3409                           ;PWMs.c: 133:             break;
  3410  05AE  2DED               	goto	l293
  3411  05AF                     l3167:	
  3412                           
  3413                           ;PWMs.c: 136:             CCPR1L = 25;
  3414  05AF  3019               	movlw	25
  3415  05B0  1283               	bcf	3,5	;RP0=0, select bank0
  3416  05B1  1303               	bcf	3,6	;RP1=0, select bank0
  3417  05B2  0095               	movwf	21	;volatile
  3418                           
  3419                           ;PWMs.c: 137:             break;
  3420  05B3  2DED               	goto	l293
  3421  05B4                     l3169:	
  3422                           
  3423                           ;PWMs.c: 140:             CCPR1L = 30;
  3424  05B4  301E               	movlw	30
  3425  05B5  1283               	bcf	3,5	;RP0=0, select bank0
  3426  05B6  1303               	bcf	3,6	;RP1=0, select bank0
  3427  05B7  0095               	movwf	21	;volatile
  3428                           
  3429                           ;PWMs.c: 141:             break;
  3430  05B8  2DED               	goto	l293
  3431  05B9                     l3171:	
  3432                           
  3433                           ;PWMs.c: 144:             CCPR1L = 33;
  3434  05B9  3021               	movlw	33
  3435  05BA  1283               	bcf	3,5	;RP0=0, select bank0
  3436  05BB  1303               	bcf	3,6	;RP1=0, select bank0
  3437  05BC  0095               	movwf	21	;volatile
  3438                           
  3439                           ;PWMs.c: 145:             break;
  3440  05BD  2DED               	goto	l293
  3441  05BE                     l3173:	
  3442                           
  3443                           ;PWMs.c: 148:             CCPR1L = 37;
  3444  05BE  3025               	movlw	37
  3445  05BF  1283               	bcf	3,5	;RP0=0, select bank0
  3446  05C0  1303               	bcf	3,6	;RP1=0, select bank0
  3447  05C1  0095               	movwf	21	;volatile
  3448                           
  3449                           ;PWMs.c: 149:             break;
  3450  05C2  2DED               	goto	l293
  3451  05C3                     l3175:	
  3452                           
  3453                           ;PWMs.c: 152:             CCPR1L = 40;
  3454  05C3  3028               	movlw	40
  3455  05C4  1283               	bcf	3,5	;RP0=0, select bank0
  3456  05C5  1303               	bcf	3,6	;RP1=0, select bank0
  3457  05C6  0095               	movwf	21	;volatile
  3458                           
  3459                           ;PWMs.c: 153:             break;
  3460  05C7  2DED               	goto	l293
  3461  05C8                     l3179:	
  3462  05C8  0875               	movf	Servo2_grados@Servo2_grados,w
  3463  05C9  00F3               	movwf	??_Servo2_grados
  3464  05CA  01F4               	clrf	??_Servo2_grados+1
  3465                           
  3466                           ; Switch on 2 bytes has been partitioned into a top level switch of size 1, and 1 sub-sw
      +                          itches
  3467                           ; Switch size 1, requested type "simple"
  3468                           ; Number of cases is 1, Range of values is 0 to 0
  3469                           ; switch strategies available:
  3470                           ; Name         Instructions Cycles
  3471                           ; simple_byte            4     3 (average)
  3472                           ; direct_byte           11     8 (fixed)
  3473                           ; jumptable            260     6 (fixed)
  3474                           ;	Chosen strategy is simple_byte
  3475  05CB  0874               	movf	??_Servo2_grados+1,w
  3476  05CC  3A00               	xorlw	0	; case 0
  3477  05CD  1903               	skipnz
  3478  05CE  2DD0               	goto	l3875
  3479  05CF  2D9B               	goto	l3159
  3480  05D0                     l3875:	
  3481                           
  3482                           ; Switch size 1, requested type "simple"
  3483                           ; Number of cases is 9, Range of values is 0 to 180
  3484                           ; switch strategies available:
  3485                           ; Name         Instructions Cycles
  3486                           ; simple_byte           28    15 (average)
  3487                           ; jumptable            260     6 (fixed)
  3488                           ;	Chosen strategy is simple_byte
  3489  05D0  0873               	movf	??_Servo2_grados,w
  3490  05D1  3A00               	xorlw	0	; case 0
  3491  05D2  1903               	skipnz
  3492  05D3  2D9B               	goto	l3159
  3493  05D4  3A0A               	xorlw	10	; case 10
  3494  05D5  1903               	skipnz
  3495  05D6  2DA0               	goto	l3161
  3496  05D7  3A14               	xorlw	20	; case 30
  3497  05D8  1903               	skipnz
  3498  05D9  2DA5               	goto	l3163
  3499  05DA  3A33               	xorlw	51	; case 45
  3500  05DB  1903               	skipnz
  3501  05DC  2DAA               	goto	l3165
  3502  05DD  3A77               	xorlw	119	; case 90
  3503  05DE  1903               	skipnz
  3504  05DF  2DAF               	goto	l3167
  3505  05E0  3A22               	xorlw	34	; case 120
  3506  05E1  1903               	skipnz
  3507  05E2  2DB4               	goto	l3169
  3508  05E3  3AFF               	xorlw	255	; case 135
  3509  05E4  1903               	skipnz
  3510  05E5  2DB9               	goto	l3171
  3511  05E6  3A11               	xorlw	17	; case 150
  3512  05E7  1903               	skipnz
  3513  05E8  2DBE               	goto	l3173
  3514  05E9  3A22               	xorlw	34	; case 180
  3515  05EA  1903               	skipnz
  3516  05EB  2DC3               	goto	l3175
  3517  05EC  2D9B               	goto	l3159
  3518  05ED                     l293:	
  3519  05ED  0008               	return
  3520  05EE                     __end_of_Servo2_grados:	
  3521                           
  3522                           	psect	text9
  3523  05EE                     __ptext9:	
  3524 ;; *************** function _Servo1_grados *****************
  3525 ;; Defined at:
  3526 ;;		line 73 in file "PWMs.c"
  3527 ;; Parameters:    Size  Location     Type
  3528 ;;  Servo1_grado    1    wreg     unsigned char 
  3529 ;; Auto vars:     Size  Location     Type
  3530 ;;  Servo1_grado    1    5[COMMON] unsigned char 
  3531 ;; Return value:  Size  Location     Type
  3532 ;;                  1    wreg      void 
  3533 ;; Registers used:
  3534 ;;		wreg, fsr0l, fsr0h, status,2, status,0
  3535 ;; Tracked objects:
  3536 ;;		On entry : 0/0
  3537 ;;		On exit  : 0/0
  3538 ;;		Unchanged: 0/0
  3539 ;; Data sizes:     COMMON   BANK0   BANK1   BANK3   BANK2
  3540 ;;      Params:         0       0       0       0       0
  3541 ;;      Locals:         1       0       0       0       0
  3542 ;;      Temps:          2       0       0       0       0
  3543 ;;      Totals:         3       0       0       0       0
  3544 ;;Total ram usage:        3 bytes
  3545 ;; Hardware stack levels used:    1
  3546 ;; Hardware stack levels required when called:    1
  3547 ;; This function calls:
  3548 ;;		Nothing
  3549 ;; This function is called by:
  3550 ;;		_main
  3551 ;; This function uses a non-reentrant model
  3552 ;;
  3553                           
  3554                           
  3555                           ;psect for function _Servo1_grados
  3556  05EE                     _Servo1_grados:	
  3557                           
  3558                           ;incstack = 0
  3559                           ; Regs used in _Servo1_grados: [wreg-fsr0h+status,2+status,0]
  3560                           ;Servo1_grados@Servo1_grados stored from wreg
  3561  05EE  00F5               	movwf	Servo1_grados@Servo1_grados
  3562  05EF                     l3129:	
  3563                           
  3564                           ;PWMs.c: 74:     switch(Servo1_grados){
  3565  05EF  2E1D               	goto	l3151
  3566  05F0                     l3131:	
  3567                           
  3568                           ;PWMs.c: 76:             CCPR2L = 10;
  3569  05F0  300A               	movlw	10
  3570  05F1  1283               	bcf	3,5	;RP0=0, select bank0
  3571  05F2  1303               	bcf	3,6	;RP1=0, select bank0
  3572  05F3  009B               	movwf	27	;volatile
  3573                           
  3574                           ;PWMs.c: 77:             break;
  3575  05F4  2E42               	goto	l278
  3576  05F5                     l3133:	
  3577                           
  3578                           ;PWMs.c: 80:             CCPR2L = 12;
  3579  05F5  300C               	movlw	12
  3580  05F6  1283               	bcf	3,5	;RP0=0, select bank0
  3581  05F7  1303               	bcf	3,6	;RP1=0, select bank0
  3582  05F8  009B               	movwf	27	;volatile
  3583                           
  3584                           ;PWMs.c: 81:             break;
  3585  05F9  2E42               	goto	l278
  3586  05FA                     l3135:	
  3587                           
  3588                           ;PWMs.c: 84:             CCPR2L = 14;
  3589  05FA  300E               	movlw	14
  3590  05FB  1283               	bcf	3,5	;RP0=0, select bank0
  3591  05FC  1303               	bcf	3,6	;RP1=0, select bank0
  3592  05FD  009B               	movwf	27	;volatile
  3593                           
  3594                           ;PWMs.c: 85:             break;
  3595  05FE  2E42               	goto	l278
  3596  05FF                     l3137:	
  3597                           
  3598                           ;PWMs.c: 88:             CCPR2L = 18;
  3599  05FF  3012               	movlw	18
  3600  0600  1283               	bcf	3,5	;RP0=0, select bank0
  3601  0601  1303               	bcf	3,6	;RP1=0, select bank0
  3602  0602  009B               	movwf	27	;volatile
  3603                           
  3604                           ;PWMs.c: 89:             break;
  3605  0603  2E42               	goto	l278
  3606  0604                     l3139:	
  3607                           
  3608                           ;PWMs.c: 92:             CCPR2L = 25;
  3609  0604  3019               	movlw	25
  3610  0605  1283               	bcf	3,5	;RP0=0, select bank0
  3611  0606  1303               	bcf	3,6	;RP1=0, select bank0
  3612  0607  009B               	movwf	27	;volatile
  3613                           
  3614                           ;PWMs.c: 93:             break;
  3615  0608  2E42               	goto	l278
  3616  0609                     l3141:	
  3617                           
  3618                           ;PWMs.c: 96:             CCPR2L = 30;
  3619  0609  301E               	movlw	30
  3620  060A  1283               	bcf	3,5	;RP0=0, select bank0
  3621  060B  1303               	bcf	3,6	;RP1=0, select bank0
  3622  060C  009B               	movwf	27	;volatile
  3623                           
  3624                           ;PWMs.c: 97:             break;
  3625  060D  2E42               	goto	l278
  3626  060E                     l3143:	
  3627                           
  3628                           ;PWMs.c: 100:             CCPR2L = 33;
  3629  060E  3021               	movlw	33
  3630  060F  1283               	bcf	3,5	;RP0=0, select bank0
  3631  0610  1303               	bcf	3,6	;RP1=0, select bank0
  3632  0611  009B               	movwf	27	;volatile
  3633                           
  3634                           ;PWMs.c: 101:             break;
  3635  0612  2E42               	goto	l278
  3636  0613                     l3145:	
  3637                           
  3638                           ;PWMs.c: 104:             CCPR2L = 37;
  3639  0613  3025               	movlw	37
  3640  0614  1283               	bcf	3,5	;RP0=0, select bank0
  3641  0615  1303               	bcf	3,6	;RP1=0, select bank0
  3642  0616  009B               	movwf	27	;volatile
  3643                           
  3644                           ;PWMs.c: 105:             break;
  3645  0617  2E42               	goto	l278
  3646  0618                     l3147:	
  3647                           
  3648                           ;PWMs.c: 108:             CCPR2L = 40;
  3649  0618  3028               	movlw	40
  3650  0619  1283               	bcf	3,5	;RP0=0, select bank0
  3651  061A  1303               	bcf	3,6	;RP1=0, select bank0
  3652  061B  009B               	movwf	27	;volatile
  3653                           
  3654                           ;PWMs.c: 109:             break;
  3655  061C  2E42               	goto	l278
  3656  061D                     l3151:	
  3657  061D  0875               	movf	Servo1_grados@Servo1_grados,w
  3658  061E  00F3               	movwf	??_Servo1_grados
  3659  061F  01F4               	clrf	??_Servo1_grados+1
  3660                           
  3661                           ; Switch on 2 bytes has been partitioned into a top level switch of size 1, and 1 sub-sw
      +                          itches
  3662                           ; Switch size 1, requested type "simple"
  3663                           ; Number of cases is 1, Range of values is 0 to 0
  3664                           ; switch strategies available:
  3665                           ; Name         Instructions Cycles
  3666                           ; simple_byte            4     3 (average)
  3667                           ; direct_byte           11     8 (fixed)
  3668                           ; jumptable            260     6 (fixed)
  3669                           ;	Chosen strategy is simple_byte
  3670  0620  0874               	movf	??_Servo1_grados+1,w
  3671  0621  3A00               	xorlw	0	; case 0
  3672  0622  1903               	skipnz
  3673  0623  2E25               	goto	l3877
  3674  0624  2DF0               	goto	l3131
  3675  0625                     l3877:	
  3676                           
  3677                           ; Switch size 1, requested type "simple"
  3678                           ; Number of cases is 9, Range of values is 0 to 180
  3679                           ; switch strategies available:
  3680                           ; Name         Instructions Cycles
  3681                           ; simple_byte           28    15 (average)
  3682                           ; jumptable            260     6 (fixed)
  3683                           ;	Chosen strategy is simple_byte
  3684  0625  0873               	movf	??_Servo1_grados,w
  3685  0626  3A00               	xorlw	0	; case 0
  3686  0627  1903               	skipnz
  3687  0628  2DF0               	goto	l3131
  3688  0629  3A0A               	xorlw	10	; case 10
  3689  062A  1903               	skipnz
  3690  062B  2DF5               	goto	l3133
  3691  062C  3A14               	xorlw	20	; case 30
  3692  062D  1903               	skipnz
  3693  062E  2DFA               	goto	l3135
  3694  062F  3A33               	xorlw	51	; case 45
  3695  0630  1903               	skipnz
  3696  0631  2DFF               	goto	l3137
  3697  0632  3A77               	xorlw	119	; case 90
  3698  0633  1903               	skipnz
  3699  0634  2E04               	goto	l3139
  3700  0635  3A22               	xorlw	34	; case 120
  3701  0636  1903               	skipnz
  3702  0637  2E09               	goto	l3141
  3703  0638  3AFF               	xorlw	255	; case 135
  3704  0639  1903               	skipnz
  3705  063A  2E0E               	goto	l3143
  3706  063B  3A11               	xorlw	17	; case 150
  3707  063C  1903               	skipnz
  3708  063D  2E13               	goto	l3145
  3709  063E  3A22               	xorlw	34	; case 180
  3710  063F  1903               	skipnz
  3711  0640  2E18               	goto	l3147
  3712  0641  2DF0               	goto	l3131
  3713  0642                     l278:	
  3714  0642  0008               	return
  3715  0643                     __end_of_Servo1_grados:	
  3716                           
  3717                           	psect	text10
  3718  06AE                     __ptext10:	
  3719 ;; *************** function _I2C_Slave_Init *****************
  3720 ;; Defined at:
  3721 ;;		line 94 in file "I2C.c"
  3722 ;; Parameters:    Size  Location     Type
  3723 ;;  address         1    wreg     unsigned char 
  3724 ;; Auto vars:     Size  Location     Type
  3725 ;;  address         1    3[COMMON] unsigned char 
  3726 ;; Return value:  Size  Location     Type
  3727 ;;                  1    wreg      void 
  3728 ;; Registers used:
  3729 ;;		wreg
  3730 ;; Tracked objects:
  3731 ;;		On entry : 0/0
  3732 ;;		On exit  : 0/0
  3733 ;;		Unchanged: 0/0
  3734 ;; Data sizes:     COMMON   BANK0   BANK1   BANK3   BANK2
  3735 ;;      Params:         0       0       0       0       0
  3736 ;;      Locals:         1       0       0       0       0
  3737 ;;      Temps:          0       0       0       0       0
  3738 ;;      Totals:         1       0       0       0       0
  3739 ;;Total ram usage:        1 bytes
  3740 ;; Hardware stack levels used:    1
  3741 ;; Hardware stack levels required when called:    1
  3742 ;; This function calls:
  3743 ;;		Nothing
  3744 ;; This function is called by:
  3745 ;;		_main
  3746 ;; This function uses a non-reentrant model
  3747 ;;
  3748                           
  3749                           
  3750                           ;psect for function _I2C_Slave_Init
  3751  06AE                     _I2C_Slave_Init:	
  3752                           
  3753                           ;incstack = 0
  3754                           ; Regs used in _I2C_Slave_Init: [wreg]
  3755                           ;I2C_Slave_Init@address stored from wreg
  3756  06AE  00F3               	movwf	I2C_Slave_Init@address
  3757  06AF                     l3115:	
  3758                           
  3759                           ;I2C.c: 94: void I2C_Slave_Init(uint8_t address);I2C.c: 95: {;I2C.c: 96:     SSPADD = ad
      +                          dress;
  3760  06AF  0873               	movf	I2C_Slave_Init@address,w
  3761  06B0  1683               	bsf	3,5	;RP0=1, select bank1
  3762  06B1  1303               	bcf	3,6	;RP1=0, select bank1
  3763  06B2  0093               	movwf	19	;volatile
  3764                           
  3765                           ;I2C.c: 97:     SSPCON = 0x36;
  3766  06B3  3036               	movlw	54
  3767  06B4  1283               	bcf	3,5	;RP0=0, select bank0
  3768  06B5  1303               	bcf	3,6	;RP1=0, select bank0
  3769  06B6  0094               	movwf	20	;volatile
  3770                           
  3771                           ;I2C.c: 98:     SSPSTAT = 0x80;
  3772  06B7  3080               	movlw	128
  3773  06B8  1683               	bsf	3,5	;RP0=1, select bank1
  3774  06B9  1303               	bcf	3,6	;RP1=0, select bank1
  3775  06BA  0094               	movwf	20	;volatile
  3776                           
  3777                           ;I2C.c: 99:     SSPCON2 = 0x01;
  3778  06BB  3001               	movlw	1
  3779  06BC  0091               	movwf	17	;volatile
  3780  06BD                     l3117:	
  3781                           
  3782                           ;I2C.c: 100:     TRISC3 = 1;
  3783  06BD  1587               	bsf	7,3	;volatile
  3784  06BE                     l3119:	
  3785                           
  3786                           ;I2C.c: 101:     TRISC4 = 1;
  3787  06BE  1607               	bsf	7,4	;volatile
  3788  06BF                     l3121:	
  3789                           
  3790                           ;I2C.c: 102:     GIE = 1;
  3791  06BF  178B               	bsf	11,7	;volatile
  3792  06C0                     l3123:	
  3793                           
  3794                           ;I2C.c: 103:     PEIE = 1;
  3795  06C0  170B               	bsf	11,6	;volatile
  3796  06C1                     l3125:	
  3797                           
  3798                           ;I2C.c: 104:     SSPIF = 0;
  3799  06C1  1283               	bcf	3,5	;RP0=0, select bank0
  3800  06C2  1303               	bcf	3,6	;RP1=0, select bank0
  3801  06C3  118C               	bcf	12,3	;volatile
  3802  06C4                     l3127:	
  3803                           
  3804                           ;I2C.c: 105:     SSPIE = 1;
  3805  06C4  1683               	bsf	3,5	;RP0=1, select bank1
  3806  06C5  1303               	bcf	3,6	;RP1=0, select bank1
  3807  06C6  158C               	bsf	12,3	;volatile
  3808  06C7                     l235:	
  3809  06C7  0008               	return
  3810  06C8                     __end_of_I2C_Slave_Init:	
  3811                           
  3812                           	psect	text11
  3813  0521                     __ptext11:	
  3814 ;; *************** function _ISR *****************
  3815 ;; Defined at:
  3816 ;;		line 51 in file "Slave_Lou.c"
  3817 ;; Parameters:    Size  Location     Type
  3818 ;;		None
  3819 ;; Auto vars:     Size  Location     Type
  3820 ;;		None
  3821 ;; Return value:  Size  Location     Type
  3822 ;;                  1    wreg      void 
  3823 ;; Registers used:
  3824 ;;		wreg, status,2, status,0
  3825 ;; Tracked objects:
  3826 ;;		On entry : 0/0
  3827 ;;		On exit  : 0/0
  3828 ;;		Unchanged: 0/0
  3829 ;; Data sizes:     COMMON   BANK0   BANK1   BANK3   BANK2
  3830 ;;      Params:         0       0       0       0       0
  3831 ;;      Locals:         0       0       0       0       0
  3832 ;;      Temps:          3       0       0       0       0
  3833 ;;      Totals:         3       0       0       0       0
  3834 ;;Total ram usage:        3 bytes
  3835 ;; Hardware stack levels used:    1
  3836 ;; This function calls:
  3837 ;;		Nothing
  3838 ;; This function is called by:
  3839 ;;		Interrupt level 1
  3840 ;; This function uses a non-reentrant model
  3841 ;;
  3842                           
  3843                           
  3844                           ;psect for function _ISR
  3845  0521                     _ISR:	
  3846  0521                     i1l2399:	
  3847                           
  3848                           ;Slave_Lou.c: 52:     if (ADIF) {
  3849  0521  1283               	bcf	3,5	;RP0=0, select bank0
  3850  0522  1303               	bcf	3,6	;RP1=0, select bank0
  3851  0523  1F0C               	btfss	12,6	;volatile
  3852  0524  2D26               	goto	u49_21
  3853  0525  2D27               	goto	u49_20
  3854  0526                     u49_21:	
  3855  0526  2D2E               	goto	i1l2405
  3856  0527                     u49_20:	
  3857  0527                     i1l2401:	
  3858                           
  3859                           ;Slave_Lou.c: 53:         Humedad_H = ADRESH ;
  3860  0527  081E               	movf	30,w	;volatile
  3861  0528  00F0               	movwf	??_ISR
  3862  0529  0870               	movf	??_ISR,w
  3863  052A  00F9               	movwf	_Humedad_H
  3864                           
  3865                           ;Slave_Lou.c: 54:         PORTB = Humedad_H;
  3866  052B  0879               	movf	_Humedad_H,w
  3867  052C  0086               	movwf	6	;volatile
  3868  052D                     i1l2403:	
  3869                           
  3870                           ;Slave_Lou.c: 55:         PIR1bits.ADIF = 0;
  3871  052D  130C               	bcf	12,6	;volatile
  3872  052E                     i1l2405:	
  3873                           
  3874                           ;Slave_Lou.c: 59:     if(PIR1bits.SSPIF == 1){
  3875  052E  1D8C               	btfss	12,3	;volatile
  3876  052F  2D31               	goto	u50_21
  3877  0530  2D32               	goto	u50_20
  3878  0531                     u50_21:	
  3879  0531  2D92               	goto	i1l94
  3880  0532                     u50_20:	
  3881  0532                     i1l2407:	
  3882                           
  3883                           ;Slave_Lou.c: 61:         SSPCONbits.CKP = 0;
  3884  0532  1214               	bcf	20,4	;volatile
  3885                           
  3886                           ;Slave_Lou.c: 63:         if ((SSPCONbits.SSPOV) || (SSPCONbits.WCOL)){
  3887  0533  1B14               	btfsc	20,6	;volatile
  3888  0534  2D36               	goto	u51_21
  3889  0535  2D37               	goto	u51_20
  3890  0536                     u51_21:	
  3891  0536  2D3B               	goto	i1l2411
  3892  0537                     u51_20:	
  3893  0537                     i1l2409:	
  3894  0537  1F94               	btfss	20,7	;volatile
  3895  0538  2D3A               	goto	u52_21
  3896  0539  2D3B               	goto	u52_20
  3897  053A                     u52_21:	
  3898  053A  2D42               	goto	i1l2419
  3899  053B                     u52_20:	
  3900  053B                     i1l2411:	
  3901                           
  3902                           ;Slave_Lou.c: 64:             z = SSPBUF;
  3903  053B  0813               	movf	19,w	;volatile
  3904  053C  00F0               	movwf	??_ISR
  3905  053D  0870               	movf	??_ISR,w
  3906  053E  00A6               	movwf	_z
  3907  053F                     i1l2413:	
  3908                           
  3909                           ;Slave_Lou.c: 65:             SSPCONbits.SSPOV = 0;
  3910  053F  1314               	bcf	20,6	;volatile
  3911  0540                     i1l2415:	
  3912                           
  3913                           ;Slave_Lou.c: 66:             SSPCONbits.WCOL = 0;
  3914  0540  1394               	bcf	20,7	;volatile
  3915  0541                     i1l2417:	
  3916                           
  3917                           ;Slave_Lou.c: 67:             SSPCONbits.CKP = 1;
  3918  0541  1614               	bsf	20,4	;volatile
  3919  0542                     i1l2419:	
  3920                           
  3921                           ;Slave_Lou.c: 70:         if(!SSPSTATbits.D_nA && !SSPSTATbits.R_nW) {
  3922  0542  1683               	bsf	3,5	;RP0=1, select bank1
  3923  0543  1303               	bcf	3,6	;RP1=0, select bank1
  3924  0544  1A94               	btfsc	20,5	;volatile
  3925  0545  2D47               	goto	u53_21
  3926  0546  2D48               	goto	u53_20
  3927  0547                     u53_21:	
  3928  0547  2D6E               	goto	i1l84
  3929  0548                     u53_20:	
  3930  0548                     i1l2421:	
  3931  0548  1914               	btfsc	20,2	;volatile
  3932  0549  2D4B               	goto	u54_21
  3933  054A  2D4C               	goto	u54_20
  3934  054B                     u54_21:	
  3935  054B  2D6E               	goto	i1l84
  3936  054C                     u54_20:	
  3937  054C                     i1l2423:	
  3938                           
  3939                           ;Slave_Lou.c: 72:             z = SSPBUF;
  3940  054C  1283               	bcf	3,5	;RP0=0, select bank0
  3941  054D  1303               	bcf	3,6	;RP1=0, select bank0
  3942  054E  0813               	movf	19,w	;volatile
  3943  054F  00F0               	movwf	??_ISR
  3944  0550  0870               	movf	??_ISR,w
  3945  0551  00A6               	movwf	_z
  3946  0552                     i1l2425:	
  3947                           
  3948                           ;Slave_Lou.c: 74:             PIR1bits.SSPIF = 0;
  3949  0552  118C               	bcf	12,3	;volatile
  3950  0553                     i1l2427:	
  3951                           
  3952                           ;Slave_Lou.c: 75:             SSPCONbits.CKP = 1;
  3953  0553  1614               	bsf	20,4	;volatile
  3954  0554                     i1l85:	
  3955                           ;Slave_Lou.c: 76:             while(!SSPSTATbits.BF);
  3956                           
  3957  0554  1683               	bsf	3,5	;RP0=1, select bank1
  3958  0555  1303               	bcf	3,6	;RP1=0, select bank1
  3959  0556  1C14               	btfss	20,0	;volatile
  3960  0557  2D59               	goto	u55_21
  3961  0558  2D5A               	goto	u55_20
  3962  0559                     u55_21:	
  3963  0559  2D54               	goto	i1l85
  3964  055A                     u55_20:	
  3965  055A                     i1l2429:	
  3966                           
  3967                           ;Slave_Lou.c: 77:             recibir = SSPBUF;
  3968  055A  1283               	bcf	3,5	;RP0=0, select bank0
  3969  055B  1303               	bcf	3,6	;RP1=0, select bank0
  3970  055C  0813               	movf	19,w	;volatile
  3971  055D  00F0               	movwf	??_ISR
  3972  055E  0870               	movf	??_ISR,w
  3973  055F  00A5               	movwf	_recibir
  3974  0560                     i1l2431:	
  3975                           
  3976                           ;Slave_Lou.c: 79:             if (recibir == 0xF0){
  3977  0560  30F0               	movlw	240
  3978  0561  0625               	xorwf	_recibir,w
  3979  0562  1D03               	btfss	3,2
  3980  0563  2D65               	goto	u56_21
  3981  0564  2D66               	goto	u56_20
  3982  0565                     u56_21:	
  3983  0565  2D68               	goto	i1l2435
  3984  0566                     u56_20:	
  3985  0566                     i1l2433:	
  3986                           
  3987                           ;Slave_Lou.c: 80:                 indicador =1;
  3988  0566  01A4               	clrf	_indicador
  3989  0567  0AA4               	incf	_indicador,f
  3990  0568                     i1l2435:	
  3991                           
  3992                           ;Slave_Lou.c: 82:             _delay((unsigned long)((250)*(1000000/4000000.0))); }
  3993  0568  3014               	movlw	20
  3994  0569  00F0               	movwf	??_ISR
  3995  056A                     u131_27:	
  3996  056A  0BF0               	decfsz	??_ISR,f
  3997  056B  2D6A               	goto	u131_27
  3998  056C  0000               	nop
  3999  056D  2D8F               	goto	i1l89
  4000  056E                     i1l84:	
  4001                           ;Slave_Lou.c: 84:         else if(!SSPSTATbits.D_nA && SSPSTATbits.R_nW){
  4002                           
  4003  056E  1A94               	btfsc	20,5	;volatile
  4004  056F  2D71               	goto	u57_21
  4005  0570  2D72               	goto	u57_20
  4006  0571                     u57_21:	
  4007  0571  2D8F               	goto	i1l89
  4008  0572                     u57_20:	
  4009  0572                     i1l2437:	
  4010  0572  1D14               	btfss	20,2	;volatile
  4011  0573  2D75               	goto	u58_21
  4012  0574  2D76               	goto	u58_20
  4013  0575                     u58_21:	
  4014  0575  2D8F               	goto	i1l89
  4015  0576                     u58_20:	
  4016  0576                     i1l2439:	
  4017                           
  4018                           ;Slave_Lou.c: 85:             z = SSPBUF;
  4019  0576  1283               	bcf	3,5	;RP0=0, select bank0
  4020  0577  1303               	bcf	3,6	;RP1=0, select bank0
  4021  0578  0813               	movf	19,w	;volatile
  4022  0579  00F0               	movwf	??_ISR
  4023  057A  0870               	movf	??_ISR,w
  4024  057B  00A6               	movwf	_z
  4025  057C                     i1l2441:	
  4026                           
  4027                           ;Slave_Lou.c: 86:             BF = 0;
  4028  057C  1683               	bsf	3,5	;RP0=1, select bank1
  4029  057D  1303               	bcf	3,6	;RP1=0, select bank1
  4030  057E  1014               	bcf	20,0	;volatile
  4031                           
  4032                           ;Slave_Lou.c: 87:             SSPBUF = Humedad_H;
  4033  057F  0879               	movf	_Humedad_H,w
  4034  0580  1283               	bcf	3,5	;RP0=0, select bank0
  4035  0581  1303               	bcf	3,6	;RP1=0, select bank0
  4036  0582  0093               	movwf	19	;volatile
  4037  0583                     i1l2443:	
  4038                           
  4039                           ;Slave_Lou.c: 88:             SSPCONbits.CKP = 1;
  4040  0583  1614               	bsf	20,4	;volatile
  4041                           
  4042                           ;Slave_Lou.c: 89:             _delay((unsigned long)((250)*(1000000/4000000.0)));
  4043  0584  3014               	movlw	20
  4044  0585  00F0               	movwf	??_ISR
  4045  0586                     u132_27:	
  4046  0586  0BF0               	decfsz	??_ISR,f
  4047  0587  2D86               	goto	u132_27
  4048  0588  0000               	nop
  4049  0589                     i1l91:	
  4050                           ;Slave_Lou.c: 90:             while(SSPSTATbits.BF);
  4051                           
  4052  0589  1683               	bsf	3,5	;RP0=1, select bank1
  4053  058A  1303               	bcf	3,6	;RP1=0, select bank1
  4054  058B  1814               	btfsc	20,0	;volatile
  4055  058C  2D8E               	goto	u59_21
  4056  058D  2D8F               	goto	u59_20
  4057  058E                     u59_21:	
  4058  058E  2D89               	goto	i1l91
  4059  058F                     u59_20:	
  4060  058F                     i1l89:	
  4061                           
  4062                           ;Slave_Lou.c: 93:         PIR1bits.SSPIF = 0;
  4063  058F  1283               	bcf	3,5	;RP0=0, select bank0
  4064  0590  1303               	bcf	3,6	;RP1=0, select bank0
  4065  0591  118C               	bcf	12,3	;volatile
  4066  0592                     i1l94:	
  4067  0592  0872               	movf	??_ISR+2,w
  4068  0593  008A               	movwf	10
  4069  0594  0E71               	swapf	(??_ISR+1)^(0+4294967168),w
  4070  0595  0083               	movwf	3
  4071  0596  0EFE               	swapf	btemp,f
  4072  0597  0E7E               	swapf	btemp,w
  4073  0598  0009               	retfie
  4074  0599                     __end_of_ISR:	
  4075  007E                     btemp	set	126	;btemp
  4076  007E                     wtemp0	set	126
  4077                           
  4078                           	psect	intentry
  4079  0004                     __pintentry:	
  4080                           ;incstack = 0
  4081                           ; Regs used in _ISR: [wreg+status,2+status,0]
  4082                           
  4083  0004                     interrupt_function:	
  4084  007E                     saved_w	set	btemp
  4085  0004  00FE               	movwf	btemp
  4086  0005  0E03               	swapf	3,w
  4087  0006  00F1               	movwf	??_ISR+1
  4088  0007  080A               	movf	10,w
  4089  0008  00F2               	movwf	??_ISR+2
  4090  0009  120A  118A  2D21   	ljmp	_ISR


Data Sizes:
    Strings     0
    Constant    0
    Data        0
    BSS         6
    Persistent  0
    Stack       0

Auto Spaces:
    Space          Size  Autos    Used
    COMMON           14      7      10
    BANK0            80      4       7
    BANK1            80      0       0
    BANK3            96      0       0
    BANK2            96      0       0

Pointer List with Targets:

    None.

Critical Paths under _main in COMMON

    _main->_OSC_config
    _main->_Stepper_CCW
    _main->_Stepper_CW
    _config_PORTS->_OSC_config

Critical Paths under _ISR in COMMON

    None.

Critical Paths under _main in BANK0

    None.

Critical Paths under _ISR in BANK0

    None.

Critical Paths under _main in BANK1

    None.

Critical Paths under _ISR in BANK1

    None.

Critical Paths under _main in BANK3

    None.

Critical Paths under _ISR in BANK3

    None.

Critical Paths under _main in BANK2

    None.

Critical Paths under _ISR in BANK2

    None.

Call Graph Tables:

 ---------------------------------------------------------------------------------
 (Depth) Function   	        Calls       Base Space   Used Autos Params    Refs
 ---------------------------------------------------------------------------------
 (0) _main                                                 4     4      0     825
                                              0 BANK0      4     4      0
                     _I2C_Slave_Init
                         _OSC_config
                      _Servo1_grados
                      _Servo2_grados
                        _Stepper_CCW
                         _Stepper_CW
                         _config_ADC
                       _config_PORTS
                         _init_PWM_1
                         _init_PWM_2
 ---------------------------------------------------------------------------------
 (1) _init_PWM_2                                           0     0      0       0
 ---------------------------------------------------------------------------------
 (1) _init_PWM_1                                           0     0      0       0
 ---------------------------------------------------------------------------------
 (1) _config_PORTS                                         0     0      0     211
                         _OSC_config
 ---------------------------------------------------------------------------------
 (2) _OSC_config                                           4     0      4     211
                                              3 COMMON     4     0      4
 ---------------------------------------------------------------------------------
 (1) _config_ADC                                           0     0      0       0
 ---------------------------------------------------------------------------------
 (1) _Stepper_CW                                           4     2      2     121
                                              3 COMMON     4     2      2
 ---------------------------------------------------------------------------------
 (1) _Stepper_CCW                                          4     2      2     121
                                              3 COMMON     4     2      2
 ---------------------------------------------------------------------------------
 (1) _Servo2_grados                                        3     3      0      31
                                              3 COMMON     3     3      0
 ---------------------------------------------------------------------------------
 (1) _Servo1_grados                                        3     3      0      31
                                              3 COMMON     3     3      0
 ---------------------------------------------------------------------------------
 (1) _I2C_Slave_Init                                       1     1      0      31
                                              3 COMMON     1     1      0
 ---------------------------------------------------------------------------------
 Estimated maximum stack depth 2
 ---------------------------------------------------------------------------------
 (Depth) Function   	        Calls       Base Space   Used Autos Params    Refs
 ---------------------------------------------------------------------------------
 (3) _ISR                                                  3     3      0       0
                                              0 COMMON     3     3      0
 ---------------------------------------------------------------------------------
 Estimated maximum stack depth 3
 ---------------------------------------------------------------------------------

 Call Graph Graphs:

 _main (ROOT)
   _I2C_Slave_Init
   _OSC_config
   _Servo1_grados
   _Servo2_grados
   _Stepper_CCW
   _Stepper_CW
   _config_ADC
   _config_PORTS
     _OSC_config
   _init_PWM_1
   _init_PWM_2

 _ISR (ROOT)

 Address spaces:
Name               Size   Autos  Total    Cost      Usage
BITCOMMON            E      0       0       0        0.0%
EEDATA             100      0       0       0        0.0%
NULL                 0      0       0       0        0.0%
CODE                 0      0       0       0        0.0%
COMMON               E      7       A       1       71.4%
BITSFR0              0      0       0       1        0.0%
SFR0                 0      0       0       1        0.0%
BITSFR1              0      0       0       2        0.0%
SFR1                 0      0       0       2        0.0%
STACK                0      0       0       2        0.0%
ABS                  0      0      11       3        0.0%
BITBANK0            50      0       0       4        0.0%
BITSFR3              0      0       0       4        0.0%
SFR3                 0      0       0       4        0.0%
BANK0               50      4       7       5        8.8%
BITSFR2              0      0       0       5        0.0%
SFR2                 0      0       0       5        0.0%
BITBANK1            50      0       0       6        0.0%
BANK1               50      0       0       7        0.0%
BITBANK3            60      0       0       8        0.0%
BANK3               60      0       0       9        0.0%
BITBANK2            60      0       0      10        0.0%
BANK2               60      0       0      11        0.0%
DATA                 0      0      11      12        0.0%


Microchip Technology PIC Macro Assembler V2.10 build 88905656 
Symbol Table                                                                                   Tue May 05 00:07:47 2020

Stepper_CCW@Step_grados_ccw 0073                           _i 0077                           _z 0026  
               __CFG_CP$OFF 0000                 _SSPSTATbits 0094                          _BF 04A0  
                       l111 0671                         l103 04EF                         l125 0484  
                       l128 06E0                         l235 06C7                         l180 03D8  
                       l260 0689                         l157 01F9                         l261 0688  
                       l254 06A6                         l262 068D                         l255 06A5  
                       l263 0690                         l256 06AA                         l257 06AD  
                       l293 05ED                         l278 0642                         _GIE 005F  
                       _RA3 002B                         _RA4 002C                         _PR2 0092  
              __CFG_CPD$OFF 0000                         u700 0381                         _ISR 0521  
                       u701 0380                         u710 002B                         u630 06AA  
                       u711 002A                         u631 06A9                         u720 0076  
                       u640 068D                         u705 037D                         u721 0075  
                       u641 068C                         u650 020A                         u730 00C1  
                       u651 0209                         u731 00C0                         u715 0027  
                       u660 0255                         u740 010C                         u661 0254  
                       u741 010B                         u725 0072                         u670 02A0  
                       u750 0157                         u671 029F                         u655 0206  
                       u751 0156                         u735 00BD                         u807 04CE  
                       u680 02EB                         u760 01A2                         u681 02EA  
                       u665 0251                         u761 01A1                         u745 0108  
                       u817 04E2                         u690 0336                         u770 04BF  
                       u691 0335                         u675 029C                         u755 0153  
                       u907 00A6                         u827 050C                         u771 04BE  
                       u780 04F3                         u685 02E7                         u765 019E  
                       u917 00CA                         u837 0034                         u781 04F2  
                       u790 0506                         u695 0332                         u927 00D7  
                       u847 0041                         u791 0505                         u937 00E4  
                       u857 004E                         u947 00F1                         u867 005B  
                       u795 0502                         u957 0115                         u877 007F  
                       u967 0122                         u887 008C                         u977 012F  
                       u897 0099                         u987 013C                         u997 0160  
              __CFG_LVP$OFF 0000                        ?_ISR 0070                        l3101 0681  
                      l3111 0686                        l3103 0682                        l3121 06BF  
                      l3113 06C8                        l3041 0650                        l3105 0683  
                      l3123 06C0                        l3115 06AF                        l3131 05F0  
                      l3203 0256                        l3051 0661                        l3043 0653  
                      l3107 0684                        l3125 06C1                        l3117 06BD  
                      l3141 0609                        l3133 05F5                        l3213 02A1  
                      l3301 014A                        l3053 0664                        l3045 0657  
                      l3061 0691                        l3109 0685                        l3127 06C4  
                      l3119 06BE                        l3143 060E                        l3135 05FA  
                      l3151 061D                        l3223 02EC                        l3207 0291  
                      l3311 0195                        l3055 0667                        l3047 065B  
                      l3039 0643                        l3071 069B                        l3063 0694  
                      l3145 0613                        l3137 05FF                        l3129 05EF  
                      l3161 05A0                        l3233 0337                        l3217 02DC  
                      l3209 0293                        l3305 0158                        l3057 066A  
                      l3049 065E                        l3081 06A2                        l3073 069E  
                      l3065 0696                        l3147 0618                        l3139 0604  
                      l3171 05B9                        l3163 05A5                        l3243 0382  
                      l3227 0327                        l3219 02DE                        l3315 01A3  
                      l3059 066D                        l3083 06A3                        l3075 069F  
                      l3067 0699                        l3091 067A                        l3331 0497  
                      l3173 05BE                        l3165 05AA                        l3157 059A  
                      l3237 0372                        l3229 0329                        l3309 0193  
                      l3261 001E                        l3077 06A0                        l3069 069A  
                      l3093 067B                        l3085 0672                        l3341 04B2  
                      l3333 049C                        l3175 05C3                        l3167 05AF  
                      l3159 059B                        l3239 0374                        l3247 03BD  
                      l3271 0069                        l3319 01DE                        l3079 06A1  
                      l3095 067C                        l3087 0675                        l3343 04B8  
                      l3335 04A1                        l3169 05B4                        l3193 020B  
                      l3185 01FA                        l3281 00B4                        l3265 002C  
                      l3257 001B                        l3097 067D                        l3089 0677  
                      l3361 04EC                        l3345 04BF                        l3337 04A6  
                      l3329 0485                        l3179 05C8                        l3187 01FB  
                      l3291 00FF                        l3275 0077                        l3259 001C  
                      l3099 067E                        l3371 051A                        l3363 04F3  
                      l3355 04D6                        l3347 04C8                        l3339 04AC  
                      l3197 0246                        l3189 01FD                        l3285 00C2  
                      l3269 0067                        l3365 04F9                        l3357 04DC  
                      l3349 04D2                        l3199 0248                        l3295 010D  
                      l3279 00B2                        l3367 0506                        l3359 04E6  
                      l3289 00FD                        l3369 0511                        l3299 0148  
                      l2951 03DA                        l3841 0442                        l3833 041A  
                      l2961 03FB                        l2953 03DF                        l3843 044C  
                      l3835 0424                        l3851 041F                        l2963 0402  
                      l2955 03E6                        l3845 0456                        l3861 0451  
                      l3837 042E                        l3853 0429                        l2965 0409  
                      l2957 03ED                        l2949 03D9                        l3871 03C5  
                      l3847 0460                        l3863 045B                        l3839 0438  
                      l3855 0433                        l2967 040E                        l2959 03F4  
                      l3873 03D3                        l3865 0465                        l3857 043D  
                      l3849 046A                        l2969 0415                        l3875 05D0  
                      l3867 01E6                        l3859 0447                        l3877 0625  
                      l3869 01F4                        _ADIF 0066              ??_config_PORTS 0077  
                      u1007 016D                        u1017 017A                        u1107 023A  
                      u1027 0187                        u1117 025E                        u1037 01AB  
                      u1207 0301                        u1127 026B                        u1047 01B8  
                      u1217 030E                        u1137 0278                        u1057 01C5  
                      u1307 03B1                        u1227 031B                        u1147 0285  
                      u1067 01D2                        u1237 033F                        u1157 02A9  
                      u1077 0213                        u1247 034C                        u1167 02B6  
                      u1087 0220                        u1257 0359                        u1177 02C3  
                      u1097 022D                        u1267 0366                        u1187 02D0  
                      u1277 038A                        u1197 02F4                        u1287 0397  
                      u1297 03A4                        _PEIE 005E                        i1l91 0589  
                      i1l84 056E                        i1l85 0554                        i1l94 0592  
                      i1l89 058F                __CFG_WRT$OFF 0000                        _main 0485  
                      btemp 007E                        start 000C               __CFG_IESO$OFF 0000  
                     ??_ISR 0070                       ?_main 0070               __CFG_WDTE$OFF 0000  
                     _ANSEL 0188                       u50_20 0532                       u50_21 0531  
                     u51_20 0537                       u51_21 0536                       _PORTA 0005  
                     _PORTB 0006                       _PORTD 0008                       _PORTE 0009  
                     u52_20 053B                       u52_21 053A                       u53_20 0548  
                     u53_21 0547                       u54_20 054C                       u54_21 054B  
                     u55_20 055A                       u55_21 0559                       u56_20 0566  
                     u56_21 0565                       u57_20 0572                       u49_20 0527  
                     u57_21 0571                       u49_21 0526                       _TRISA 0085  
                     _TRISB 0086                       _TRISD 0088                       _SSPIE 0463  
                     _TRISE 0089                       u58_20 0576                       _SSPIF 0063  
                     u58_21 0575                       u59_20 058F                       u59_21 058E  
            __CFG_FCMEN$OFF 0000                       main@i 0022              __CFG_BOREN$OFF 0000  
               ?_OSC_config 0073                       pclath 000A                       status 0003  
                     wtemp0 007E              __CFG_MCLRE$OFF 0000             __initialization 000F  
              __end_of_main 0521       __end_of_Servo1_grados 0643  Servo1_grados@Servo1_grados 0075  
     __end_of_Servo2_grados 05EE                      ??_main 0020                      _ADRESH 001E  
                    _CCPR1L 0015                      _CCPR2L 001B                      _ANSELH 0189  
                    i1l2401 0527                      i1l2411 053B                      i1l2403 052D  
                    i1l2421 0548                      i1l2413 053F                      i1l2405 052E  
                    i1l2431 0560                      i1l2423 054C                      i1l2415 0540  
                    i1l2407 0532                      i1l2441 057C                      i1l2433 0566  
                    i1l2425 0552                      i1l2417 0541                      i1l2409 0537  
                    i1l2443 0583                      i1l2435 0568                      i1l2427 0553  
                    i1l2419 0542                      i1l2437 0572                      i1l2429 055A  
                    i1l2439 0576                      i1l2399 0521                      u131_27 056A  
                    u132_27 0586                      _SSPADD 0093                      _TRISC3 043B  
                    _TRISC4 043C                      _SSPBUF 0013                      _SSPCON 0014  
            __CFG_PWRTE$OFF 0000        __end_of_config_PORTS 0672         __size_of_OSC_config 00AC  
                    saved_w 007E                  _Stepper_CW 001B     __end_of__initialization 0017  
            __pcstackCOMMON 0070     __size_of_I2C_Slave_Init 001A               ??_Stepper_CCW 0075  
     I2C_Slave_Init@address 0073                  __pbssBANK0 0024                  __pmaintext 0485  
                __pintentry 0004        OSC_config@frecuencia 0073                  _config_ADC 06C8  
                   _SSPCON2 0091         __end_of_Stepper_CCW 03D9                     _SSPSTAT 0094  
              ??_OSC_config 0077                 ?_Stepper_CW 0073       __size_of_config_PORTS 002F  
                _init_PWM_1 0691                  _init_PWM_2 0672                     __ptext1 0672  
                   __ptext2 0691                     __ptext3 0643                     __ptext4 03D9  
                   __ptext5 06C8                     __ptext6 001B                     __ptext7 01FA  
                   __ptext8 0599                     __ptext9 05EE          __end_of_OSC_config 0485  
              __size_of_ISR 0078                   _T2CONbits 0012                     _recibir 0025  
      end_of_initialization 0017                _config_PORTS 0643              _I2C_Slave_Init 06AE  
       __size_of_Stepper_CW 01DF                 _Stepper_CCW 01FA                 ?_config_ADC 0070  
                 _TRISCbits 0087      __size_of_Servo1_grados 0055                 _CCP1CONbits 0017  
    __size_of_Servo2_grados 0055                 _CCP2CONbits 001D      __end_of_I2C_Slave_Init 06C8  
               ?_init_PWM_1 0070                 ?_init_PWM_2 0070    Stepper_CW@Step_grados_cw 0073  
       start_initialization 000F                 __end_of_ISR 0599                   _Humedad_H 0079  
  __CFG_FOSC$INTRC_NOCLKOUT 0000             ?_I2C_Slave_Init 0070         __size_of_config_ADC 0019  
             _Servo1_grados 05EE               _Servo2_grados 0599                 __pbssCOMMON 0077  
                 ___latbits 0002               __pcstackBANK0 0020         __size_of_init_PWM_1 001D  
       __size_of_init_PWM_2 001F                ??_Stepper_CW 0075              ?_Servo1_grados 0070  
            ?_Servo2_grados 0070          __end_of_Stepper_CW 01FA                   _indicador 0024  
         interrupt_function 0004                    _PIE1bits 008C                    _PIR1bits 000C  
                _ADCON0bits 001F                  _ADCON1bits 009F                ?_Stepper_CCW 0073  
              ??_config_ADC 0073                ??_init_PWM_1 0073                ??_init_PWM_2 0073  
        __end_of_config_ADC 06E1             ??_Servo1_grados 0073             ??_Servo2_grados 0073  
Servo2_grados@Servo2_grados 0075                    __ptext10 06AE                    __ptext11 0521  
         __CFG_BOR4V$BOR40V 0000          __end_of_init_PWM_1 06AE          __end_of_init_PWM_2 0691  
          ??_I2C_Slave_Init 0073               __size_of_main 009C                  _INTCONbits 000B  
                  intlevel1 0000                  _OSCCONbits 008F        __size_of_Stepper_CCW 01DF  
               _SSPCON2bits 0091                  _OSC_config 03D9               ?_config_PORTS 0070  
                _SSPCONbits 0014  
